Archive member included because of file (symbol)

/usr/local/popcorn/x86_64/lib/libc.a(closedir.o)
                              tiny_x86_64.o (closedir)
/usr/local/popcorn/x86_64/lib/libc.a(fdopendir.o)
                              tiny_x86_64.o (fdopendir)
/usr/local/popcorn/x86_64/lib/libc.a(readdir.o)
                              tiny_x86_64.o (readdir)
/usr/local/popcorn/x86_64/lib/libc.a(__libc_start_main.o)
                              /usr/local/popcorn/x86_64/lib/crt1.o (__libc_start_main)
/usr/local/popcorn/x86_64/lib/libc.a(__errno_location.o)
                              tiny_x86_64.o (__errno_location)
/usr/local/popcorn/x86_64/lib/libc.a(exit.o)
                              tiny_x86_64.o (exit)
/usr/local/popcorn/x86_64/lib/libc.a(fcntl.o)
                              /usr/local/popcorn/x86_64/lib/libc.a(fdopendir.o) (fcntl)
/usr/local/popcorn/x86_64/lib/libc.a(open.o)
                              tiny_x86_64.o (open)
/usr/local/popcorn/x86_64/lib/libc.a(openat.o)
                              tiny_x86_64.o (openat)
/usr/local/popcorn/x86_64/lib/libc.a(libc.o)
                              /usr/local/popcorn/x86_64/lib/libc.a(__libc_start_main.o) (__hwcap)
/usr/local/popcorn/x86_64/lib/libc.a(syscall_ret.o)
                              /usr/local/popcorn/x86_64/lib/libc.a(fcntl.o) (__syscall_ret)
/usr/local/popcorn/x86_64/lib/libc.a(sendfile.o)
                              tiny_x86_64.o (sendfile)
/usr/local/popcorn/x86_64/lib/libc.a(calloc.o)
                              /usr/local/popcorn/x86_64/lib/libc.a(fdopendir.o) (calloc)
/usr/local/popcorn/x86_64/lib/libc.a(lite_malloc.o)
                              /usr/local/popcorn/x86_64/lib/libc.a(calloc.o) (__malloc0)
/usr/local/popcorn/x86_64/lib/libc.a(malloc.o)
                              /usr/local/popcorn/x86_64/lib/libc.a(closedir.o) (free)
/usr/local/popcorn/x86_64/lib/libc.a(popcorn_malloc.o)
                              /usr/local/popcorn/x86_64/lib/libc.a(calloc.o) (__popcorn_malloc0)
/usr/local/popcorn/x86_64/lib/libc.a(madvise.o)
                              /usr/local/popcorn/x86_64/lib/libc.a(malloc.o) (__madvise)
/usr/local/popcorn/x86_64/lib/libc.a(mmap.o)
                              /usr/local/popcorn/x86_64/lib/libc.a(malloc.o) (__mmap)
/usr/local/popcorn/x86_64/lib/libc.a(mremap.o)
                              /usr/local/popcorn/x86_64/lib/libc.a(malloc.o) (__mremap)
/usr/local/popcorn/x86_64/lib/libc.a(munmap.o)
                              /usr/local/popcorn/x86_64/lib/libc.a(malloc.o) (__munmap)
/usr/local/popcorn/x86_64/lib/libc.a(accept.o)
                              tiny_x86_64.o (accept)
/usr/local/popcorn/x86_64/lib/libc.a(bind.o)
                              tiny_x86_64.o (bind)
/usr/local/popcorn/x86_64/lib/libc.a(htonl.o)
                              tiny_x86_64.o (htonl)
/usr/local/popcorn/x86_64/lib/libc.a(htons.o)
                              tiny_x86_64.o (htons)
/usr/local/popcorn/x86_64/lib/libc.a(inet_ntoa.o)
                              tiny_x86_64.o (inet_ntoa)
/usr/local/popcorn/x86_64/lib/libc.a(listen.o)
                              tiny_x86_64.o (listen)
/usr/local/popcorn/x86_64/lib/libc.a(ntohs.o)
                              tiny_x86_64.o (ntohs)
/usr/local/popcorn/x86_64/lib/libc.a(setsockopt.o)
                              tiny_x86_64.o (setsockopt)
/usr/local/popcorn/x86_64/lib/libc.a(socket.o)
                              tiny_x86_64.o (socket)
/usr/local/popcorn/x86_64/lib/libc.a(fork.o)
                              tiny_x86_64.o (fork)
/usr/local/popcorn/x86_64/lib/libc.a(block.o)
                              /usr/local/popcorn/x86_64/lib/libc.a(fork.o) (__block_all_sigs)
/usr/local/popcorn/x86_64/lib/libc.a(signal.o)
                              tiny_x86_64.o (signal)
/usr/local/popcorn/x86_64/lib/libc.a(fstat.o)
                              tiny_x86_64.o (fstat)
/usr/local/popcorn/x86_64/lib/libc.a(perror.o)
                              tiny_x86_64.o (perror)
/usr/local/popcorn/x86_64/lib/libc.a(printf.o)
                              tiny_x86_64.o (printf)
/usr/local/popcorn/x86_64/lib/libc.a(snprintf.o)
                              /usr/local/popcorn/x86_64/lib/libc.a(inet_ntoa.o) (snprintf)
/usr/local/popcorn/x86_64/lib/libc.a(sprintf.o)
                              tiny_x86_64.o (sprintf)
/usr/local/popcorn/x86_64/lib/libc.a(sscanf.o)
                              tiny_x86_64.o (sscanf)
/usr/local/popcorn/x86_64/lib/libc.a(stderr.o)
                              /usr/local/popcorn/x86_64/lib/libc.a(perror.o) (stderr)
/usr/local/popcorn/x86_64/lib/libc.a(stdout.o)
                              /usr/local/popcorn/x86_64/lib/libc.a(printf.o) (stdout)
/usr/local/popcorn/x86_64/lib/libc.a(vfprintf.o)
                              /usr/local/popcorn/x86_64/lib/libc.a(printf.o) (vfprintf)
/usr/local/popcorn/x86_64/lib/libc.a(vsnprintf.o)
                              /usr/local/popcorn/x86_64/lib/libc.a(snprintf.o) (vsnprintf)
/usr/local/popcorn/x86_64/lib/libc.a(vsprintf.o)
                              /usr/local/popcorn/x86_64/lib/libc.a(sprintf.o) (vsprintf)
/usr/local/popcorn/x86_64/lib/libc.a(vsscanf.o)
                              /usr/local/popcorn/x86_64/lib/libc.a(sscanf.o) (vsscanf)
/usr/local/popcorn/x86_64/lib/libc.a(atoi.o)
                              tiny_x86_64.o (atoi)
/usr/local/popcorn/x86_64/lib/libc.a(strtol.o)
                              tiny_x86_64.o (strtoul)
/usr/local/popcorn/x86_64/lib/libc.a(strcmp.o)
                              tiny_x86_64.o (strcmp)
/usr/local/popcorn/x86_64/lib/libc.a(strlen.o)
                              tiny_x86_64.o (strlen)
/usr/local/popcorn/x86_64/lib/libc.a(strnlen.o)
                              /usr/local/popcorn/x86_64/lib/libc.a(vfprintf.o) (strnlen)
/usr/local/popcorn/x86_64/lib/libc.a(strrchr.o)
                              tiny_x86_64.o (strrchr)
/usr/local/popcorn/x86_64/lib/libc.a(memcpy.o)
                              tiny_x86_64.o (memcpy)
/usr/local/popcorn/x86_64/lib/libc.a(memset.o)
                              /usr/local/popcorn/x86_64/lib/libc.a(__libc_start_main.o) (memset)
/usr/local/popcorn/x86_64/lib/libc.a(__lock.o)
                              /usr/local/popcorn/x86_64/lib/libc.a(lite_malloc.o) (__lock)
/usr/local/popcorn/x86_64/lib/libc.a(__syscall_cp.o)
                              /usr/local/popcorn/x86_64/lib/libc.a(fcntl.o) (__syscall_cp)
/usr/local/popcorn/x86_64/lib/libc.a(__wait.o)
                              /usr/local/popcorn/x86_64/lib/libc.a(malloc.o) (__wait)
/usr/local/popcorn/x86_64/lib/libc.a(localtime.o)
                              tiny_x86_64.o (localtime)
/usr/local/popcorn/x86_64/lib/libc.a(localtime_r.o)
                              /usr/local/popcorn/x86_64/lib/libc.a(localtime.o) (__localtime_r)
/usr/local/popcorn/x86_64/lib/libc.a(strftime.o)
                              tiny_x86_64.o (strftime)
/usr/local/popcorn/x86_64/lib/libc.a(chdir.o)
                              tiny_x86_64.o (chdir)
/usr/local/popcorn/x86_64/lib/libc.a(close.o)
                              tiny_x86_64.o (close)
/usr/local/popcorn/x86_64/lib/libc.a(getcwd.o)
                              tiny_x86_64.o (getcwd)
/usr/local/popcorn/x86_64/lib/libc.a(getpid.o)
                              tiny_x86_64.o (getpid)
/usr/local/popcorn/x86_64/lib/libc.a(read.o)
                              tiny_x86_64.o (read)
/usr/local/popcorn/x86_64/lib/libc.a(write.o)
                              tiny_x86_64.o (write)
/usr/local/popcorn/x86_64/lib/libc.a(__environ.o)
                              /usr/local/popcorn/x86_64/lib/libc.a(__libc_start_main.o) (__environ)
/usr/local/popcorn/x86_64/lib/libc.a(__init_tls.o)
                              /usr/local/popcorn/x86_64/lib/libc.a(__libc_start_main.o) (__init_tls)
/usr/local/popcorn/x86_64/lib/libc.a(strerror.o)
                              /usr/local/popcorn/x86_64/lib/libc.a(perror.o) (strerror)
/usr/local/popcorn/x86_64/lib/libc.a(_Exit.o)
                              /usr/local/popcorn/x86_64/lib/libc.a(exit.o) (_Exit)
/usr/local/popcorn/x86_64/lib/libc.a(intscan.o)
                              /usr/local/popcorn/x86_64/lib/libc.a(strtol.o) (__intscan)
/usr/local/popcorn/x86_64/lib/libc.a(procfdname.o)
                              /usr/local/popcorn/x86_64/lib/libc.a(fstat.o) (__procfdname)
/usr/local/popcorn/x86_64/lib/libc.a(shgetc.o)
                              /usr/local/popcorn/x86_64/lib/libc.a(intscan.o) (__shgetc)
/usr/local/popcorn/x86_64/lib/libc.a(syscall.o)
                              /usr/local/popcorn/x86_64/lib/libc.a(__syscall_cp.o) (__syscall)
/usr/local/popcorn/x86_64/lib/libc.a(__lctrans.o)
                              /usr/local/popcorn/x86_64/lib/libc.a(strerror.o) (__lctrans)
/usr/local/popcorn/x86_64/lib/libc.a(langinfo.o)
                              /usr/local/popcorn/x86_64/lib/libc.a(strftime.o) (__nl_langinfo_l)
/usr/local/popcorn/x86_64/lib/libc.a(expand_heap.o)
                              /usr/local/popcorn/x86_64/lib/libc.a(lite_malloc.o) (__expand_heap)
/usr/local/popcorn/x86_64/lib/libc.a(__fpclassifyl.o)
                              /usr/local/popcorn/x86_64/lib/libc.a(vfprintf.o) (__fpclassifyl)
/usr/local/popcorn/x86_64/lib/libc.a(__signbitl.o)
                              /usr/local/popcorn/x86_64/lib/libc.a(vfprintf.o) (__signbitl)
/usr/local/popcorn/x86_64/lib/libc.a(frexpl.o)
                              /usr/local/popcorn/x86_64/lib/libc.a(vfprintf.o) (frexpl)
/usr/local/popcorn/x86_64/lib/libc.a(wctomb.o)
                              /usr/local/popcorn/x86_64/lib/libc.a(vfprintf.o) (wctomb)
/usr/local/popcorn/x86_64/lib/libc.a(sigaction.o)
                              /usr/local/popcorn/x86_64/lib/libc.a(signal.o) (__sigaction)
/usr/local/popcorn/x86_64/lib/libc.a(restore.o)
                              /usr/local/popcorn/x86_64/lib/libc.a(sigaction.o) (__restore_rt)
/usr/local/popcorn/x86_64/lib/libc.a(__lockfile.o)
                              /usr/local/popcorn/x86_64/lib/libc.a(perror.o) (__lockfile)
/usr/local/popcorn/x86_64/lib/libc.a(__stdio_close.o)
                              /usr/local/popcorn/x86_64/lib/libc.a(stderr.o) (__stdio_close)
/usr/local/popcorn/x86_64/lib/libc.a(__stdio_seek.o)
                              /usr/local/popcorn/x86_64/lib/libc.a(stderr.o) (__stdio_seek)
/usr/local/popcorn/x86_64/lib/libc.a(__stdio_write.o)
                              /usr/local/popcorn/x86_64/lib/libc.a(stderr.o) (__stdio_write)
/usr/local/popcorn/x86_64/lib/libc.a(__stdout_write.o)
                              /usr/local/popcorn/x86_64/lib/libc.a(stdout.o) (__stdout_write)
/usr/local/popcorn/x86_64/lib/libc.a(__string_read.o)
                              /usr/local/popcorn/x86_64/lib/libc.a(vsscanf.o) (__string_read)
/usr/local/popcorn/x86_64/lib/libc.a(__uflow.o)
                              /usr/local/popcorn/x86_64/lib/libc.a(shgetc.o) (__uflow)
/usr/local/popcorn/x86_64/lib/libc.a(fputc.o)
                              /usr/local/popcorn/x86_64/lib/libc.a(perror.o) (fputc)
/usr/local/popcorn/x86_64/lib/libc.a(fwrite.o)
                              /usr/local/popcorn/x86_64/lib/libc.a(vfprintf.o) (__fwritex)
/usr/local/popcorn/x86_64/lib/libc.a(vfscanf.o)
                              /usr/local/popcorn/x86_64/lib/libc.a(vsscanf.o) (vfscanf)
/usr/local/popcorn/x86_64/lib/libc.a(abs.o)
                              /usr/local/popcorn/x86_64/lib/libc.a(strftime.o) (abs)
/usr/local/popcorn/x86_64/lib/libc.a(memchr.o)
                              /usr/local/popcorn/x86_64/lib/libc.a(strnlen.o) (memchr)
/usr/local/popcorn/x86_64/lib/libc.a(memrchr.o)
                              /usr/local/popcorn/x86_64/lib/libc.a(strrchr.o) (__memrchr)
/usr/local/popcorn/x86_64/lib/libc.a(strdup.o)
                              /usr/local/popcorn/x86_64/lib/libc.a(getcwd.o) (strdup)
/usr/local/popcorn/x86_64/lib/libc.a(__set_thread_area.o)
                              /usr/local/popcorn/x86_64/lib/libc.a(__init_tls.o) (__set_thread_area)
/usr/local/popcorn/x86_64/lib/libc.a(__secs_to_tm.o)
                              /usr/local/popcorn/x86_64/lib/libc.a(localtime_r.o) (__secs_to_tm)
/usr/local/popcorn/x86_64/lib/libc.a(__tm_to_secs.o)
                              /usr/local/popcorn/x86_64/lib/libc.a(strftime.o) (__tm_to_secs)
/usr/local/popcorn/x86_64/lib/libc.a(__tz.o)
                              /usr/local/popcorn/x86_64/lib/libc.a(localtime_r.o) (__secs_to_zone)
/usr/local/popcorn/x86_64/lib/libc.a(__year_to_secs.o)
                              /usr/local/popcorn/x86_64/lib/libc.a(__tm_to_secs.o) (__year_to_secs)
/usr/local/popcorn/x86_64/lib/libc.a(getenv.o)
                              /usr/local/popcorn/x86_64/lib/libc.a(__tz.o) (getenv)
/usr/local/popcorn/x86_64/lib/libc.a(floatscan.o)
                              /usr/local/popcorn/x86_64/lib/libc.a(vfscanf.o) (__floatscan)
/usr/local/popcorn/x86_64/lib/libc.a(copysignl.o)
                              /usr/local/popcorn/x86_64/lib/libc.a(floatscan.o) (copysignl)
/usr/local/popcorn/x86_64/lib/libc.a(scalbn.o)
                              /usr/local/popcorn/x86_64/lib/libc.a(floatscan.o) (scalbn)
/usr/local/popcorn/x86_64/lib/libc.a(scalbnl.o)
                              /usr/local/popcorn/x86_64/lib/libc.a(floatscan.o) (scalbnl)
/usr/local/popcorn/x86_64/lib/libc.a(fabs.o)
                              /usr/local/popcorn/x86_64/lib/libc.a(floatscan.o) (fabs)
/usr/local/popcorn/x86_64/lib/libc.a(fmodl.o)
                              /usr/local/popcorn/x86_64/lib/libc.a(floatscan.o) (fmodl)
/usr/local/popcorn/x86_64/lib/libc.a(mbrtowc.o)
                              /usr/local/popcorn/x86_64/lib/libc.a(vfscanf.o) (mbrtowc)
/usr/local/popcorn/x86_64/lib/libc.a(mbsinit.o)
                              /usr/local/popcorn/x86_64/lib/libc.a(vfscanf.o) (mbsinit)
/usr/local/popcorn/x86_64/lib/libc.a(wcrtomb.o)
                              /usr/local/popcorn/x86_64/lib/libc.a(wctomb.o) (wcrtomb)
/usr/local/popcorn/x86_64/lib/libc.a(__overflow.o)
                              /usr/local/popcorn/x86_64/lib/libc.a(fputc.o) (__overflow)
/usr/local/popcorn/x86_64/lib/libc.a(__toread.o)
                              /usr/local/popcorn/x86_64/lib/libc.a(__uflow.o) (__toread)
/usr/local/popcorn/x86_64/lib/libc.a(__towrite.o)
                              /usr/local/popcorn/x86_64/lib/libc.a(fwrite.o) (__towrite)
/usr/local/popcorn/x86_64/lib/libc.a(memcmp.o)
                              /usr/local/popcorn/x86_64/lib/libc.a(__tz.o) (memcmp)
/usr/local/popcorn/x86_64/lib/libc.a(strchr.o)
                              /usr/local/popcorn/x86_64/lib/libc.a(__tz.o) (strchr)
/usr/local/popcorn/x86_64/lib/libc.a(strchrnul.o)
                              /usr/local/popcorn/x86_64/lib/libc.a(getenv.o) (__strchrnul)
/usr/local/popcorn/x86_64/lib/libc.a(strncmp.o)
                              /usr/local/popcorn/x86_64/lib/libc.a(getenv.o) (strncmp)
/usr/local/popcorn/x86_64/lib/libc.a(__map_file.o)
                              /usr/local/popcorn/x86_64/lib/libc.a(__tz.o) (__map_file)
/usr/local/popcorn/x86_64/lib/libc.a(__month_to_secs.o)
                              /usr/local/popcorn/x86_64/lib/libc.a(__tm_to_secs.o) (__month_to_secs)
/usr/local/popcorn/x86_64/lib/libc.a(internal.o)
                              /usr/local/popcorn/x86_64/lib/libc.a(mbrtowc.o) (__fsmu8)
/usr/local/popcorn/x86_64/lib/libc.a(__stdio_exit.o)
                              /usr/local/popcorn/x86_64/lib/libc.a(__toread.o) (__stdio_exit_needed)
/usr/local/popcorn/x86_64/lib/libc.a(ofl.o)
                              /usr/local/popcorn/x86_64/lib/libc.a(__stdio_exit.o) (__ofl_lock)
/usr/local/popcorn/x86_64/lib/libmigrate.a(migrate.o)
                              tiny_x86_64.o (check_migrate)
/usr/local/popcorn/x86_64/lib/libmigrate.a(migrate_x86_64.o)
                              /usr/local/popcorn/x86_64/lib/libmigrate.a(migrate.o) (__migrate_fixup_x86_64)
/usr/local/popcorn/x86_64/lib/libmigrate.a(migrate_powerpc64.o)
                              /usr/local/popcorn/x86_64/lib/libmigrate.a(migrate.o) (__migrate_fixup_powerpc64)
/usr/local/popcorn/x86_64/lib/libmigrate.a(migrate_aarch64.o)
                              /usr/local/popcorn/x86_64/lib/libmigrate.a(migrate.o) (__migrate_fixup_aarch64)
/usr/local/popcorn/x86_64/lib/libmigrate.a(mapping.o)
                              /usr/local/popcorn/x86_64/lib/libmigrate.a(migrate.o) (get_node_mapping)
/usr/local/popcorn/x86_64/lib/libstack-transform.a(userspace.o)
                              /usr/local/popcorn/x86_64/lib/libmigrate.a(migrate.o) (st_userspace_rewrite)
/usr/local/popcorn/x86_64/lib/libstack-transform.a(init.o)
                              /usr/local/popcorn/x86_64/lib/libstack-transform.a(userspace.o) (st_destroy)
/usr/local/popcorn/x86_64/lib/libstack-transform.a(rewrite.o)
                              /usr/local/popcorn/x86_64/lib/libstack-transform.a(userspace.o) (st_rewrite_stack)
/usr/local/popcorn/x86_64/lib/libstack-transform.a(unwind.o)
                              /usr/local/popcorn/x86_64/lib/libstack-transform.a(rewrite.o) (bootstrap_first_frame)
/usr/local/popcorn/x86_64/lib/libstack-transform.a(util.o)
                              /usr/local/popcorn/x86_64/lib/libstack-transform.a(rewrite.o) (get_function_address)
/usr/local/popcorn/x86_64/lib/libstack-transform.a(properties.o)
                              /usr/local/popcorn/x86_64/lib/libstack-transform.a(util.o) (properties_aarch64)
/usr/local/popcorn/x86_64/lib/libstack-transform.a(regs.o)
                              /usr/local/popcorn/x86_64/lib/libstack-transform.a(util.o) (regs_aarch64)
/usr/local/popcorn/x86_64/lib/libstack-transform.a(properties.o)
                              /usr/local/popcorn/x86_64/lib/libstack-transform.a(util.o) (properties_powerpc64)
/usr/local/popcorn/x86_64/lib/libstack-transform.a(regs.o)
                              /usr/local/popcorn/x86_64/lib/libstack-transform.a(util.o) (regs_powerpc64)
/usr/local/popcorn/x86_64/lib/libstack-transform.a(properties.o)
                              /usr/local/popcorn/x86_64/lib/libstack-transform.a(util.o) (properties_x86_64)
/usr/local/popcorn/x86_64/lib/libstack-transform.a(regs.o)
                              /usr/local/popcorn/x86_64/lib/libstack-transform.a(util.o) (regs_x86_64)
/usr/local/popcorn/x86_64/lib/libstack-transform.a(data.o)
                              /usr/local/popcorn/x86_64/lib/libstack-transform.a(rewrite.o) (get_savedfbp_loc)
/usr/local/popcorn/x86_64/lib/libelf.a(begin.o)
                              /usr/local/popcorn/x86_64/lib/libstack-transform.a(init.o) (elf_begin)
/usr/local/popcorn/x86_64/lib/libelf.a(end.o)
                              /usr/local/popcorn/x86_64/lib/libstack-transform.a(init.o) (elf_end)
/usr/local/popcorn/x86_64/lib/libelf.a(getdata.o)
                              /usr/local/popcorn/x86_64/lib/libstack-transform.a(util.o) (elf_getdata)
/usr/local/popcorn/x86_64/lib/libelf.a(getident.o)
                              /usr/local/popcorn/x86_64/lib/libstack-transform.a(init.o) (elf_getident)
/usr/local/popcorn/x86_64/lib/libelf.a(nextscn.o)
                              /usr/local/popcorn/x86_64/lib/libstack-transform.a(util.o) (elf_nextscn)
/usr/local/popcorn/x86_64/lib/libelf.a(strptr.o)
                              /usr/local/popcorn/x86_64/lib/libstack-transform.a(util.o) (elf_strptr)
/usr/local/popcorn/x86_64/lib/libelf.a(version.o)
                              /usr/local/popcorn/x86_64/lib/libstack-transform.a(userspace.o) (elf_version)
/usr/local/popcorn/x86_64/lib/libelf.a(32.getehdr.o)
                              /usr/local/popcorn/x86_64/lib/libstack-transform.a(init.o) (elf64_getehdr)
/usr/local/popcorn/x86_64/lib/libelf.a(32.xlatetof.o)
                              /usr/local/popcorn/x86_64/lib/libelf.a(getdata.o) (_elf32_xltsize)
/usr/local/popcorn/x86_64/lib/libelf.a(cook.o)
                              /usr/local/popcorn/x86_64/lib/libelf.a(getident.o) (_elf_cook)
/usr/local/popcorn/x86_64/lib/libelf.a(data.o)
                              /usr/local/popcorn/x86_64/lib/libelf.a(begin.o) (_elf_errno)
/usr/local/popcorn/x86_64/lib/libelf.a(input.o)
                              /usr/local/popcorn/x86_64/lib/libelf.a(begin.o) (_elf_mmap)
/usr/local/popcorn/x86_64/lib/libelf.a(x.elfext.o)
                              /usr/local/popcorn/x86_64/lib/libstack-transform.a(util.o) (elf_getshdrstrndx)
/usr/local/popcorn/x86_64/lib/libelf.a(64.xlatetof.o)
                              /usr/local/popcorn/x86_64/lib/libelf.a(getdata.o) (_elf64_xltsize)
/usr/local/popcorn/x86_64/lib/libelf.a(gelfshdr.o)
                              /usr/local/popcorn/x86_64/lib/libstack-transform.a(util.o) (gelf_getshdr)
/usr/local/popcorn/x86_64/lib/libelf.a(swap64.o)
                              /usr/local/popcorn/x86_64/lib/libelf.a(64.xlatetof.o) (_elf_load_i64L)
/usr/local/popcorn/x86_64/lib/libelf.a(verdef_32_tof.o)
                              /usr/local/popcorn/x86_64/lib/libelf.a(32.xlatetof.o) (_elf_verdef_32L11_tof)
/usr/local/popcorn/x86_64/lib/libelf.a(verdef_32_tom.o)
                              /usr/local/popcorn/x86_64/lib/libelf.a(32.xlatetof.o) (_elf_verdef_32L11_tom)
/usr/local/popcorn/x86_64/lib/libelf.a(verdef_64_tof.o)
                              /usr/local/popcorn/x86_64/lib/libelf.a(64.xlatetof.o) (_elf_verdef_64L11_tof)
/usr/local/popcorn/x86_64/lib/libelf.a(verdef_64_tom.o)
                              /usr/local/popcorn/x86_64/lib/libelf.a(64.xlatetof.o) (_elf_verdef_64L11_tom)
/usr/local/popcorn/x86_64/lib/libelf.a(getscn.o)
                              /usr/local/popcorn/x86_64/lib/libelf.a(strptr.o) (elf_getscn)
/usr/local/popcorn/x86_64/lib/libelf.a(newscn.o)
                              /usr/local/popcorn/x86_64/lib/libelf.a(x.elfext.o) (_elf_first_scn)
/usr/local/popcorn/x86_64/lib/libelf.a(32.fsize.o)
                              /usr/local/popcorn/x86_64/lib/libelf.a(cook.o) (_elf_fmsize)
/usr/local/popcorn/x86_64/lib/libc.a(arch_crash.o)
                              /usr/local/popcorn/x86_64/lib/libmigrate.a(migrate_x86_64.o) (crash_x86_64)
/usr/local/popcorn/x86_64/lib/libc.a(assert.o)
                              /usr/local/popcorn/x86_64/lib/libmigrate.a(migrate.o) (__assert_fail)
/usr/local/popcorn/x86_64/lib/libc.a(getrlimit.o)
                              /usr/local/popcorn/x86_64/lib/libstack-transform.a(userspace.o) (getrlimit)
/usr/local/popcorn/x86_64/lib/libc.a(syscall.o)
                              /usr/local/popcorn/x86_64/lib/libmigrate.a(migrate.o) (syscall)
/usr/local/popcorn/x86_64/lib/libc.a(fclose.o)
                              /usr/local/popcorn/x86_64/lib/libmigrate.a(mapping.o) (fclose)
/usr/local/popcorn/x86_64/lib/libc.a(fflush.o)
                              /usr/local/popcorn/x86_64/lib/libc.a(assert.o) (fflush)
/usr/local/popcorn/x86_64/lib/libc.a(fopen.o)
                              /usr/local/popcorn/x86_64/lib/libmigrate.a(mapping.o) (fopen)
/usr/local/popcorn/x86_64/lib/libc.a(fprintf.o)
                              /usr/local/popcorn/x86_64/lib/libstack-transform.a(rewrite.o) (fprintf)
/usr/local/popcorn/x86_64/lib/libc.a(fscanf.o)
                              /usr/local/popcorn/x86_64/lib/libmigrate.a(mapping.o) (fscanf)
/usr/local/popcorn/x86_64/lib/libc.a(fseek.o)
                              /usr/local/popcorn/x86_64/lib/libmigrate.a(mapping.o) (fseek)
/usr/local/popcorn/x86_64/lib/libc.a(getc.o)
                              /usr/local/popcorn/x86_64/lib/libmigrate.a(mapping.o) (getc)
/usr/local/popcorn/x86_64/lib/libc.a(getline.o)
                              /usr/local/popcorn/x86_64/lib/libstack-transform.a(userspace.o) (getline)
/usr/local/popcorn/x86_64/lib/libc.a(bsearch.o)
                              /usr/local/popcorn/x86_64/lib/libmigrate.a(mapping.o) (bsearch)
/usr/local/popcorn/x86_64/lib/libc.a(qsort.o)
                              /usr/local/popcorn/x86_64/lib/libmigrate.a(mapping.o) (qsort)
/usr/local/popcorn/x86_64/lib/libc.a(memmove.o)
                              /usr/local/popcorn/x86_64/lib/libelf.a(32.xlatetof.o) (memmove)
/usr/local/popcorn/x86_64/lib/libc.a(pthread_attr_get.o)
                              /usr/local/popcorn/x86_64/lib/libstack-transform.a(userspace.o) (pthread_attr_getstack)
/usr/local/popcorn/x86_64/lib/libc.a(pthread_getattr_np.o)
                              /usr/local/popcorn/x86_64/lib/libstack-transform.a(userspace.o) (pthread_getattr_np)
/usr/local/popcorn/x86_64/lib/libc.a(pthread_getspecific.o)
                              /usr/local/popcorn/x86_64/lib/libstack-transform.a(userspace.o) (pthread_getspecific)
/usr/local/popcorn/x86_64/lib/libc.a(pthread_key_create.o)
                              /usr/local/popcorn/x86_64/lib/libstack-transform.a(userspace.o) (pthread_key_create)
/usr/local/popcorn/x86_64/lib/libc.a(pthread_migrate.o)
                              /usr/local/popcorn/x86_64/lib/libmigrate.a(migrate.o) (pthread_migrate_args)
/usr/local/popcorn/x86_64/lib/libc.a(pthread_self.o)
                              /usr/local/popcorn/x86_64/lib/libstack-transform.a(userspace.o) (pthread_self)
/usr/local/popcorn/x86_64/lib/libc.a(pthread_setspecific.o)
                              /usr/local/popcorn/x86_64/lib/libstack-transform.a(userspace.o) (pthread_setspecific)
/usr/local/popcorn/x86_64/lib/libc.a(lseek.o)
                              /usr/local/popcorn/x86_64/lib/libelf.a(begin.o) (lseek)
/usr/local/popcorn/x86_64/lib/libc.a(abort.o)
                              /usr/local/popcorn/x86_64/lib/libc.a(assert.o) (abort)
/usr/local/popcorn/x86_64/lib/libc.a(raise.o)
                              /usr/local/popcorn/x86_64/lib/libc.a(abort.o) (raise)
/usr/local/popcorn/x86_64/lib/libc.a(__fdopen.o)
                              /usr/local/popcorn/x86_64/lib/libc.a(fopen.o) (__fdopen)
/usr/local/popcorn/x86_64/lib/libc.a(__fmodeflags.o)
                              /usr/local/popcorn/x86_64/lib/libc.a(fopen.o) (__fmodeflags)
/usr/local/popcorn/x86_64/lib/libc.a(__stdio_read.o)
                              /usr/local/popcorn/x86_64/lib/libc.a(__fdopen.o) (__stdio_read)
/usr/local/popcorn/x86_64/lib/libc.a(getdelim.o)
                              /usr/local/popcorn/x86_64/lib/libc.a(getline.o) (getdelim)
/usr/local/popcorn/x86_64/lib/libc.a(ofl_add.o)
                              /usr/local/popcorn/x86_64/lib/libc.a(__fdopen.o) (__ofl_add)

Allocating common symbols
Common symbol       size              file

__libc              0x70              /usr/local/popcorn/x86_64/lib/libc.a(libc.o)
status              0x10              /usr/local/popcorn/x86_64/lib/libmigrate.a(migrate.o)
__hwcap             0x8               /usr/local/popcorn/x86_64/lib/libc.a(libc.o)
__sysinfo           0x8               /usr/local/popcorn/x86_64/lib/libc.a(libc.o)

Discarded input sections

 .note.GNU-stack
                0x0000000000000000        0x0 0x1 tiny_x86_64.o
 .note.GNU-stack
                0x0000000000000000        0x0 0x1 /usr/local/popcorn/x86_64/lib/crt1.o
 .note.GNU-stack
                0x0000000000000000        0x0 0x1 /usr/local/popcorn/x86_64/lib/libc.a(closedir.o)
 .note.GNU-stack
                0x0000000000000000        0x0 0x1 /usr/local/popcorn/x86_64/lib/libc.a(fdopendir.o)
 .note.GNU-stack
                0x0000000000000000        0x0 0x1 /usr/local/popcorn/x86_64/lib/libc.a(readdir.o)
 .note.GNU-stack
                0x0000000000000000        0x0 0x1 /usr/local/popcorn/x86_64/lib/libc.a(__libc_start_main.o)
 .note.GNU-stack
                0x0000000000000000        0x0 0x1 /usr/local/popcorn/x86_64/lib/libc.a(__errno_location.o)
 .note.GNU-stack
                0x0000000000000000        0x0 0x1 /usr/local/popcorn/x86_64/lib/libc.a(exit.o)
 .note.GNU-stack
                0x0000000000000000        0x0 0x1 /usr/local/popcorn/x86_64/lib/libc.a(fcntl.o)
 .note.GNU-stack
                0x0000000000000000        0x0 0x1 /usr/local/popcorn/x86_64/lib/libc.a(open.o)
 .note.GNU-stack
                0x0000000000000000        0x0 0x1 /usr/local/popcorn/x86_64/lib/libc.a(openat.o)
 .note.GNU-stack
                0x0000000000000000        0x0 0x1 /usr/local/popcorn/x86_64/lib/libc.a(libc.o)
 .note.GNU-stack
                0x0000000000000000        0x0 0x1 /usr/local/popcorn/x86_64/lib/libc.a(syscall_ret.o)
 .note.GNU-stack
                0x0000000000000000        0x0 0x1 /usr/local/popcorn/x86_64/lib/libc.a(sendfile.o)
 .note.GNU-stack
                0x0000000000000000        0x0 0x1 /usr/local/popcorn/x86_64/lib/libc.a(calloc.o)
 .note.GNU-stack
                0x0000000000000000        0x0 0x1 /usr/local/popcorn/x86_64/lib/libc.a(lite_malloc.o)
 .note.GNU-stack
                0x0000000000000000        0x0 0x1 /usr/local/popcorn/x86_64/lib/libc.a(malloc.o)
 .note.GNU-stack
                0x0000000000000000        0x0 0x1 /usr/local/popcorn/x86_64/lib/libc.a(popcorn_malloc.o)
 .note.GNU-stack
                0x0000000000000000        0x0 0x1 /usr/local/popcorn/x86_64/lib/libc.a(madvise.o)
 .note.GNU-stack
                0x0000000000000000        0x0 0x1 /usr/local/popcorn/x86_64/lib/libc.a(mmap.o)
 .note.GNU-stack
                0x0000000000000000        0x0 0x1 /usr/local/popcorn/x86_64/lib/libc.a(mremap.o)
 .note.GNU-stack
                0x0000000000000000        0x0 0x1 /usr/local/popcorn/x86_64/lib/libc.a(munmap.o)
 .note.GNU-stack
                0x0000000000000000        0x0 0x1 /usr/local/popcorn/x86_64/lib/libc.a(accept.o)
 .note.GNU-stack
                0x0000000000000000        0x0 0x1 /usr/local/popcorn/x86_64/lib/libc.a(bind.o)
 .note.GNU-stack
                0x0000000000000000        0x0 0x1 /usr/local/popcorn/x86_64/lib/libc.a(htonl.o)
 .note.GNU-stack
                0x0000000000000000        0x0 0x1 /usr/local/popcorn/x86_64/lib/libc.a(htons.o)
 .note.GNU-stack
                0x0000000000000000        0x0 0x1 /usr/local/popcorn/x86_64/lib/libc.a(inet_ntoa.o)
 .note.GNU-stack
                0x0000000000000000        0x0 0x1 /usr/local/popcorn/x86_64/lib/libc.a(listen.o)
 .note.GNU-stack
                0x0000000000000000        0x0 0x1 /usr/local/popcorn/x86_64/lib/libc.a(ntohs.o)
 .note.GNU-stack
                0x0000000000000000        0x0 0x1 /usr/local/popcorn/x86_64/lib/libc.a(setsockopt.o)
 .note.GNU-stack
                0x0000000000000000        0x0 0x1 /usr/local/popcorn/x86_64/lib/libc.a(socket.o)
 .note.GNU-stack
                0x0000000000000000        0x0 0x1 /usr/local/popcorn/x86_64/lib/libc.a(fork.o)
 .note.GNU-stack
                0x0000000000000000        0x0 0x1 /usr/local/popcorn/x86_64/lib/libc.a(block.o)
 .note.GNU-stack
                0x0000000000000000        0x0 0x1 /usr/local/popcorn/x86_64/lib/libc.a(signal.o)
 .note.GNU-stack
                0x0000000000000000        0x0 0x1 /usr/local/popcorn/x86_64/lib/libc.a(fstat.o)
 .note.GNU-stack
                0x0000000000000000        0x0 0x1 /usr/local/popcorn/x86_64/lib/libc.a(perror.o)
 .note.GNU-stack
                0x0000000000000000        0x0 0x1 /usr/local/popcorn/x86_64/lib/libc.a(printf.o)
 .note.GNU-stack
                0x0000000000000000        0x0 0x1 /usr/local/popcorn/x86_64/lib/libc.a(snprintf.o)
 .note.GNU-stack
                0x0000000000000000        0x0 0x1 /usr/local/popcorn/x86_64/lib/libc.a(sprintf.o)
 .note.GNU-stack
                0x0000000000000000        0x0 0x1 /usr/local/popcorn/x86_64/lib/libc.a(sscanf.o)
 .note.GNU-stack
                0x0000000000000000        0x0 0x1 /usr/local/popcorn/x86_64/lib/libc.a(stderr.o)
 .note.GNU-stack
                0x0000000000000000        0x0 0x1 /usr/local/popcorn/x86_64/lib/libc.a(stdout.o)
 .note.GNU-stack
                0x0000000000000000        0x0 0x1 /usr/local/popcorn/x86_64/lib/libc.a(vfprintf.o)
 .note.GNU-stack
                0x0000000000000000        0x0 0x1 /usr/local/popcorn/x86_64/lib/libc.a(vsnprintf.o)
 .note.GNU-stack
                0x0000000000000000        0x0 0x1 /usr/local/popcorn/x86_64/lib/libc.a(vsprintf.o)
 .note.GNU-stack
                0x0000000000000000        0x0 0x1 /usr/local/popcorn/x86_64/lib/libc.a(vsscanf.o)
 .note.GNU-stack
                0x0000000000000000        0x0 0x1 /usr/local/popcorn/x86_64/lib/libc.a(atoi.o)
 .note.GNU-stack
                0x0000000000000000        0x0 0x1 /usr/local/popcorn/x86_64/lib/libc.a(strtol.o)
 .note.GNU-stack
                0x0000000000000000        0x0 0x1 /usr/local/popcorn/x86_64/lib/libc.a(strcmp.o)
 .note.GNU-stack
                0x0000000000000000        0x0 0x1 /usr/local/popcorn/x86_64/lib/libc.a(strlen.o)
 .note.GNU-stack
                0x0000000000000000        0x0 0x1 /usr/local/popcorn/x86_64/lib/libc.a(strnlen.o)
 .note.GNU-stack
                0x0000000000000000        0x0 0x1 /usr/local/popcorn/x86_64/lib/libc.a(strrchr.o)
 .note.GNU-stack
                0x0000000000000000        0x0 0x1 /usr/local/popcorn/x86_64/lib/libc.a(memcpy.o)
 .note.GNU-stack
                0x0000000000000000        0x0 0x1 /usr/local/popcorn/x86_64/lib/libc.a(memset.o)
 .note.GNU-stack
                0x0000000000000000        0x0 0x1 /usr/local/popcorn/x86_64/lib/libc.a(__lock.o)
 .note.GNU-stack
                0x0000000000000000        0x0 0x1 /usr/local/popcorn/x86_64/lib/libc.a(__syscall_cp.o)
 .note.GNU-stack
                0x0000000000000000        0x0 0x1 /usr/local/popcorn/x86_64/lib/libc.a(__wait.o)
 .note.GNU-stack
                0x0000000000000000        0x0 0x1 /usr/local/popcorn/x86_64/lib/libc.a(localtime.o)
 .note.GNU-stack
                0x0000000000000000        0x0 0x1 /usr/local/popcorn/x86_64/lib/libc.a(localtime_r.o)
 .note.GNU-stack
                0x0000000000000000        0x0 0x1 /usr/local/popcorn/x86_64/lib/libc.a(strftime.o)
 .note.GNU-stack
                0x0000000000000000        0x0 0x1 /usr/local/popcorn/x86_64/lib/libc.a(chdir.o)
 .note.GNU-stack
                0x0000000000000000        0x0 0x1 /usr/local/popcorn/x86_64/lib/libc.a(close.o)
 .note.GNU-stack
                0x0000000000000000        0x0 0x1 /usr/local/popcorn/x86_64/lib/libc.a(getcwd.o)
 .note.GNU-stack
                0x0000000000000000        0x0 0x1 /usr/local/popcorn/x86_64/lib/libc.a(getpid.o)
 .note.GNU-stack
                0x0000000000000000        0x0 0x1 /usr/local/popcorn/x86_64/lib/libc.a(read.o)
 .note.GNU-stack
                0x0000000000000000        0x0 0x1 /usr/local/popcorn/x86_64/lib/libc.a(write.o)
 .note.GNU-stack
                0x0000000000000000        0x0 0x1 /usr/local/popcorn/x86_64/lib/libc.a(__environ.o)
 .note.GNU-stack
                0x0000000000000000        0x0 0x1 /usr/local/popcorn/x86_64/lib/libc.a(__init_tls.o)
 .note.GNU-stack
                0x0000000000000000        0x0 0x1 /usr/local/popcorn/x86_64/lib/libc.a(strerror.o)
 .note.GNU-stack
                0x0000000000000000        0x0 0x1 /usr/local/popcorn/x86_64/lib/libc.a(_Exit.o)
 .note.GNU-stack
                0x0000000000000000        0x0 0x1 /usr/local/popcorn/x86_64/lib/libc.a(intscan.o)
 .note.GNU-stack
                0x0000000000000000        0x0 0x1 /usr/local/popcorn/x86_64/lib/libc.a(procfdname.o)
 .note.GNU-stack
                0x0000000000000000        0x0 0x1 /usr/local/popcorn/x86_64/lib/libc.a(shgetc.o)
 .note.GNU-stack
                0x0000000000000000        0x0 0x1 /usr/local/popcorn/x86_64/lib/libc.a(syscall.o)
 .note.GNU-stack
                0x0000000000000000        0x0 0x1 /usr/local/popcorn/x86_64/lib/libc.a(__lctrans.o)
 .note.GNU-stack
                0x0000000000000000        0x0 0x1 /usr/local/popcorn/x86_64/lib/libc.a(langinfo.o)
 .note.GNU-stack
                0x0000000000000000        0x0 0x1 /usr/local/popcorn/x86_64/lib/libc.a(expand_heap.o)
 .note.GNU-stack
                0x0000000000000000        0x0 0x1 /usr/local/popcorn/x86_64/lib/libc.a(__fpclassifyl.o)
 .note.GNU-stack
                0x0000000000000000        0x0 0x1 /usr/local/popcorn/x86_64/lib/libc.a(__signbitl.o)
 .note.GNU-stack
                0x0000000000000000        0x0 0x1 /usr/local/popcorn/x86_64/lib/libc.a(frexpl.o)
 .note.GNU-stack
                0x0000000000000000        0x0 0x1 /usr/local/popcorn/x86_64/lib/libc.a(wctomb.o)
 .note.GNU-stack
                0x0000000000000000        0x0 0x1 /usr/local/popcorn/x86_64/lib/libc.a(sigaction.o)
 .note.GNU-stack
                0x0000000000000000        0x0 0x1 /usr/local/popcorn/x86_64/lib/libc.a(restore.o)
 .note.GNU-stack
                0x0000000000000000        0x0 0x1 /usr/local/popcorn/x86_64/lib/libc.a(__lockfile.o)
 .note.GNU-stack
                0x0000000000000000        0x0 0x1 /usr/local/popcorn/x86_64/lib/libc.a(__stdio_close.o)
 .note.GNU-stack
                0x0000000000000000        0x0 0x1 /usr/local/popcorn/x86_64/lib/libc.a(__stdio_seek.o)
 .note.GNU-stack
                0x0000000000000000        0x0 0x1 /usr/local/popcorn/x86_64/lib/libc.a(__stdio_write.o)
 .note.GNU-stack
                0x0000000000000000        0x0 0x1 /usr/local/popcorn/x86_64/lib/libc.a(__stdout_write.o)
 .note.GNU-stack
                0x0000000000000000        0x0 0x1 /usr/local/popcorn/x86_64/lib/libc.a(__string_read.o)
 .note.GNU-stack
                0x0000000000000000        0x0 0x1 /usr/local/popcorn/x86_64/lib/libc.a(__uflow.o)
 .note.GNU-stack
                0x0000000000000000        0x0 0x1 /usr/local/popcorn/x86_64/lib/libc.a(fputc.o)
 .note.GNU-stack
                0x0000000000000000        0x0 0x1 /usr/local/popcorn/x86_64/lib/libc.a(fwrite.o)
 .note.GNU-stack
                0x0000000000000000        0x0 0x1 /usr/local/popcorn/x86_64/lib/libc.a(vfscanf.o)
 .note.GNU-stack
                0x0000000000000000        0x0 0x1 /usr/local/popcorn/x86_64/lib/libc.a(abs.o)
 .note.GNU-stack
                0x0000000000000000        0x0 0x1 /usr/local/popcorn/x86_64/lib/libc.a(memchr.o)
 .note.GNU-stack
                0x0000000000000000        0x0 0x1 /usr/local/popcorn/x86_64/lib/libc.a(memrchr.o)
 .note.GNU-stack
                0x0000000000000000        0x0 0x1 /usr/local/popcorn/x86_64/lib/libc.a(strdup.o)
 .note.GNU-stack
                0x0000000000000000        0x0 0x1 /usr/local/popcorn/x86_64/lib/libc.a(__set_thread_area.o)
 .note.GNU-stack
                0x0000000000000000        0x0 0x1 /usr/local/popcorn/x86_64/lib/libc.a(__secs_to_tm.o)
 .note.GNU-stack
                0x0000000000000000        0x0 0x1 /usr/local/popcorn/x86_64/lib/libc.a(__tm_to_secs.o)
 .note.GNU-stack
                0x0000000000000000        0x0 0x1 /usr/local/popcorn/x86_64/lib/libc.a(__tz.o)
 .note.GNU-stack
                0x0000000000000000        0x0 0x1 /usr/local/popcorn/x86_64/lib/libc.a(__year_to_secs.o)
 .note.GNU-stack
                0x0000000000000000        0x0 0x1 /usr/local/popcorn/x86_64/lib/libc.a(getenv.o)
 .note.GNU-stack
                0x0000000000000000        0x0 0x1 /usr/local/popcorn/x86_64/lib/libc.a(floatscan.o)
 .note.GNU-stack
                0x0000000000000000        0x0 0x1 /usr/local/popcorn/x86_64/lib/libc.a(copysignl.o)
 .note.GNU-stack
                0x0000000000000000        0x0 0x1 /usr/local/popcorn/x86_64/lib/libc.a(scalbn.o)
 .note.GNU-stack
                0x0000000000000000        0x0 0x1 /usr/local/popcorn/x86_64/lib/libc.a(scalbnl.o)
 .note.GNU-stack
                0x0000000000000000        0x0 0x1 /usr/local/popcorn/x86_64/lib/libc.a(fabs.o)
 .note.GNU-stack
                0x0000000000000000        0x0 0x1 /usr/local/popcorn/x86_64/lib/libc.a(fmodl.o)
 .note.GNU-stack
                0x0000000000000000        0x0 0x1 /usr/local/popcorn/x86_64/lib/libc.a(mbrtowc.o)
 .note.GNU-stack
                0x0000000000000000        0x0 0x1 /usr/local/popcorn/x86_64/lib/libc.a(mbsinit.o)
 .note.GNU-stack
                0x0000000000000000        0x0 0x1 /usr/local/popcorn/x86_64/lib/libc.a(wcrtomb.o)
 .note.GNU-stack
                0x0000000000000000        0x0 0x1 /usr/local/popcorn/x86_64/lib/libc.a(__overflow.o)
 .note.GNU-stack
                0x0000000000000000        0x0 0x1 /usr/local/popcorn/x86_64/lib/libc.a(__toread.o)
 .note.GNU-stack
                0x0000000000000000        0x0 0x1 /usr/local/popcorn/x86_64/lib/libc.a(__towrite.o)
 .note.GNU-stack
                0x0000000000000000        0x0 0x1 /usr/local/popcorn/x86_64/lib/libc.a(memcmp.o)
 .note.GNU-stack
                0x0000000000000000        0x0 0x1 /usr/local/popcorn/x86_64/lib/libc.a(strchr.o)
 .note.GNU-stack
                0x0000000000000000        0x0 0x1 /usr/local/popcorn/x86_64/lib/libc.a(strchrnul.o)
 .note.GNU-stack
                0x0000000000000000        0x0 0x1 /usr/local/popcorn/x86_64/lib/libc.a(strncmp.o)
 .note.GNU-stack
                0x0000000000000000        0x0 0x1 /usr/local/popcorn/x86_64/lib/libc.a(__map_file.o)
 .note.GNU-stack
                0x0000000000000000        0x0 0x1 /usr/local/popcorn/x86_64/lib/libc.a(__month_to_secs.o)
 .note.GNU-stack
                0x0000000000000000        0x0 0x1 /usr/local/popcorn/x86_64/lib/libc.a(internal.o)
 .note.GNU-stack
                0x0000000000000000        0x0 0x1 /usr/local/popcorn/x86_64/lib/libc.a(__stdio_exit.o)
 .note.GNU-stack
                0x0000000000000000        0x0 0x1 /usr/local/popcorn/x86_64/lib/libc.a(ofl.o)
 .note.GNU-stack
                0x0000000000000000        0x0 0x1 /usr/local/popcorn/x86_64/lib/libmigrate.a(migrate.o)
 .note.GNU-stack
                0x0000000000000000        0x0 0x1 /usr/local/popcorn/x86_64/lib/libmigrate.a(mapping.o)
 .note.GNU-stack
                0x0000000000000000        0x0 0x1 /usr/local/popcorn/x86_64/lib/libstack-transform.a(userspace.o)
 .note.GNU-stack
                0x0000000000000000        0x0 0x1 /usr/local/popcorn/x86_64/lib/libstack-transform.a(init.o)
 .note.GNU-stack
                0x0000000000000000        0x0 0x1 /usr/local/popcorn/x86_64/lib/libstack-transform.a(rewrite.o)
 .note.GNU-stack
                0x0000000000000000        0x0 0x1 /usr/local/popcorn/x86_64/lib/libstack-transform.a(unwind.o)
 .note.GNU-stack
                0x0000000000000000        0x0 0x1 /usr/local/popcorn/x86_64/lib/libstack-transform.a(util.o)
 .note.GNU-stack
                0x0000000000000000        0x0 0x1 /usr/local/popcorn/x86_64/lib/libstack-transform.a(properties.o)
 .note.GNU-stack
                0x0000000000000000        0x0 0x1 /usr/local/popcorn/x86_64/lib/libstack-transform.a(regs.o)
 .note.GNU-stack
                0x0000000000000000        0x0 0x1 /usr/local/popcorn/x86_64/lib/libstack-transform.a(properties.o)
 .note.GNU-stack
                0x0000000000000000        0x0 0x1 /usr/local/popcorn/x86_64/lib/libstack-transform.a(regs.o)
 .note.GNU-stack
                0x0000000000000000        0x0 0x1 /usr/local/popcorn/x86_64/lib/libstack-transform.a(properties.o)
 .note.GNU-stack
                0x0000000000000000        0x0 0x1 /usr/local/popcorn/x86_64/lib/libstack-transform.a(regs.o)
 .note.GNU-stack
                0x0000000000000000        0x0 0x1 /usr/local/popcorn/x86_64/lib/libstack-transform.a(data.o)
 .note.GNU-stack
                0x0000000000000000        0x0 0x1 /usr/local/popcorn/x86_64/lib/libelf.a(begin.o)
 .note.GNU-stack
                0x0000000000000000        0x0 0x1 /usr/local/popcorn/x86_64/lib/libelf.a(end.o)
 .note.GNU-stack
                0x0000000000000000        0x0 0x1 /usr/local/popcorn/x86_64/lib/libelf.a(getdata.o)
 .note.GNU-stack
                0x0000000000000000        0x0 0x1 /usr/local/popcorn/x86_64/lib/libelf.a(getident.o)
 .note.GNU-stack
                0x0000000000000000        0x0 0x1 /usr/local/popcorn/x86_64/lib/libelf.a(nextscn.o)
 .note.GNU-stack
                0x0000000000000000        0x0 0x1 /usr/local/popcorn/x86_64/lib/libelf.a(strptr.o)
 .note.GNU-stack
                0x0000000000000000        0x0 0x1 /usr/local/popcorn/x86_64/lib/libelf.a(version.o)
 .note.GNU-stack
                0x0000000000000000        0x0 0x1 /usr/local/popcorn/x86_64/lib/libelf.a(32.getehdr.o)
 .note.GNU-stack
                0x0000000000000000        0x0 0x1 /usr/local/popcorn/x86_64/lib/libelf.a(32.xlatetof.o)
 .note.GNU-stack
                0x0000000000000000        0x0 0x1 /usr/local/popcorn/x86_64/lib/libelf.a(cook.o)
 .note.GNU-stack
                0x0000000000000000        0x0 0x1 /usr/local/popcorn/x86_64/lib/libelf.a(data.o)
 .note.GNU-stack
                0x0000000000000000        0x0 0x1 /usr/local/popcorn/x86_64/lib/libelf.a(input.o)
 .note.GNU-stack
                0x0000000000000000        0x0 0x1 /usr/local/popcorn/x86_64/lib/libelf.a(x.elfext.o)
 .note.GNU-stack
                0x0000000000000000        0x0 0x1 /usr/local/popcorn/x86_64/lib/libelf.a(64.xlatetof.o)
 .note.GNU-stack
                0x0000000000000000        0x0 0x1 /usr/local/popcorn/x86_64/lib/libelf.a(gelfshdr.o)
 .note.GNU-stack
                0x0000000000000000        0x0 0x1 /usr/local/popcorn/x86_64/lib/libelf.a(swap64.o)
 .note.GNU-stack
                0x0000000000000000        0x0 0x1 /usr/local/popcorn/x86_64/lib/libelf.a(verdef_32_tof.o)
 .note.GNU-stack
                0x0000000000000000        0x0 0x1 /usr/local/popcorn/x86_64/lib/libelf.a(verdef_32_tom.o)
 .note.GNU-stack
                0x0000000000000000        0x0 0x1 /usr/local/popcorn/x86_64/lib/libelf.a(verdef_64_tof.o)
 .note.GNU-stack
                0x0000000000000000        0x0 0x1 /usr/local/popcorn/x86_64/lib/libelf.a(verdef_64_tom.o)
 .note.GNU-stack
                0x0000000000000000        0x0 0x1 /usr/local/popcorn/x86_64/lib/libelf.a(getscn.o)
 .note.GNU-stack
                0x0000000000000000        0x0 0x1 /usr/local/popcorn/x86_64/lib/libelf.a(newscn.o)
 .note.GNU-stack
                0x0000000000000000        0x0 0x1 /usr/local/popcorn/x86_64/lib/libelf.a(32.fsize.o)
 .note.GNU-stack
                0x0000000000000000        0x0 0x1 /usr/local/popcorn/x86_64/lib/libc.a(arch_crash.o)
 .note.GNU-stack
                0x0000000000000000        0x0 0x1 /usr/local/popcorn/x86_64/lib/libc.a(assert.o)
 .note.GNU-stack
                0x0000000000000000        0x0 0x1 /usr/local/popcorn/x86_64/lib/libc.a(getrlimit.o)
 .note.GNU-stack
                0x0000000000000000        0x0 0x1 /usr/local/popcorn/x86_64/lib/libc.a(syscall.o)
 .note.GNU-stack
                0x0000000000000000        0x0 0x1 /usr/local/popcorn/x86_64/lib/libc.a(fclose.o)
 .note.GNU-stack
                0x0000000000000000        0x0 0x1 /usr/local/popcorn/x86_64/lib/libc.a(fflush.o)
 .note.GNU-stack
                0x0000000000000000        0x0 0x1 /usr/local/popcorn/x86_64/lib/libc.a(fopen.o)
 .note.GNU-stack
                0x0000000000000000        0x0 0x1 /usr/local/popcorn/x86_64/lib/libc.a(fprintf.o)
 .note.GNU-stack
                0x0000000000000000        0x0 0x1 /usr/local/popcorn/x86_64/lib/libc.a(fscanf.o)
 .note.GNU-stack
                0x0000000000000000        0x0 0x1 /usr/local/popcorn/x86_64/lib/libc.a(fseek.o)
 .note.GNU-stack
                0x0000000000000000        0x0 0x1 /usr/local/popcorn/x86_64/lib/libc.a(getc.o)
 .note.GNU-stack
                0x0000000000000000        0x0 0x1 /usr/local/popcorn/x86_64/lib/libc.a(getline.o)
 .note.GNU-stack
                0x0000000000000000        0x0 0x1 /usr/local/popcorn/x86_64/lib/libc.a(bsearch.o)
 .note.GNU-stack
                0x0000000000000000        0x0 0x1 /usr/local/popcorn/x86_64/lib/libc.a(qsort.o)
 .note.GNU-stack
                0x0000000000000000        0x0 0x1 /usr/local/popcorn/x86_64/lib/libc.a(memmove.o)
 .note.GNU-stack
                0x0000000000000000        0x0 0x1 /usr/local/popcorn/x86_64/lib/libc.a(pthread_attr_get.o)
 .note.GNU-stack
                0x0000000000000000        0x0 0x1 /usr/local/popcorn/x86_64/lib/libc.a(pthread_getattr_np.o)
 .note.GNU-stack
                0x0000000000000000        0x0 0x1 /usr/local/popcorn/x86_64/lib/libc.a(pthread_getspecific.o)
 .note.GNU-stack
                0x0000000000000000        0x0 0x1 /usr/local/popcorn/x86_64/lib/libc.a(pthread_key_create.o)
 .note.GNU-stack
                0x0000000000000000        0x0 0x1 /usr/local/popcorn/x86_64/lib/libc.a(pthread_migrate.o)
 .note.GNU-stack
                0x0000000000000000        0x0 0x1 /usr/local/popcorn/x86_64/lib/libc.a(pthread_self.o)
 .note.GNU-stack
                0x0000000000000000        0x0 0x1 /usr/local/popcorn/x86_64/lib/libc.a(pthread_setspecific.o)
 .note.GNU-stack
                0x0000000000000000        0x0 0x1 /usr/local/popcorn/x86_64/lib/libc.a(lseek.o)
 .note.GNU-stack
                0x0000000000000000        0x0 0x1 /usr/local/popcorn/x86_64/lib/libc.a(abort.o)
 .note.GNU-stack
                0x0000000000000000        0x0 0x1 /usr/local/popcorn/x86_64/lib/libc.a(raise.o)
 .note.GNU-stack
                0x0000000000000000        0x0 0x1 /usr/local/popcorn/x86_64/lib/libc.a(__fdopen.o)
 .note.GNU-stack
                0x0000000000000000        0x0 0x1 /usr/local/popcorn/x86_64/lib/libc.a(__fmodeflags.o)
 .note.GNU-stack
                0x0000000000000000        0x0 0x1 /usr/local/popcorn/x86_64/lib/libc.a(__stdio_read.o)
 .note.GNU-stack
                0x0000000000000000        0x0 0x1 /usr/local/popcorn/x86_64/lib/libc.a(getdelim.o)
 .note.GNU-stack
                0x0000000000000000        0x0 0x1 /usr/local/popcorn/x86_64/lib/libc.a(ofl_add.o)

Memory map

 ** file header
                0x00000000004ff000       0x40
 ** segment headers
                0x00000000004ff040      0x230

.text           0x0000000000500000    0x23be0
 ** zero fill   0x0000000000500000        0x1
 ** zero fill   0x0000000000500001      0xfff
 .text.exit     0x0000000000501000       0x1d 0x1 /usr/local/popcorn/x86_64/lib/libc.a(exit.o)
                0x0000000000501000                exit
 ** zero fill   0x000000000050101d        0x7
 ** zero fill   0x0000000000501024        0xc
 .text.rio_readinitb
                0x0000000000501030       0x52 0x10 tiny_x86_64.o
                0x0000000000501030                rio_readinitb
 ** zero fill   0x0000000000501082       0x12
 ** zero fill   0x0000000000501094        0xc
 .text.writen   0x00000000005010a0       0xf9 0x10 tiny_x86_64.o
                0x00000000005010a0                writen
 ** zero fill   0x0000000000501199        0xb
 ** zero fill   0x00000000005011a4        0xc
 .text.rio_readlineb
                0x00000000005011b0      0x12b 0x10 tiny_x86_64.o
                0x00000000005011b0                rio_readlineb
 ** zero fill   0x00000000005012db        0x9
 ** zero fill   0x00000000005012e4        0xc
 .text.rio_read
                0x00000000005012f0      0x16e 0x10 tiny_x86_64.o
 ** zero fill   0x000000000050145e        0x6
 ** zero fill   0x0000000000501464        0xc
 .text.format_size
                0x0000000000501470      0x17a 0x10 tiny_x86_64.o
                0x0000000000501470                format_size
 ** zero fill   0x00000000005015ea        0xe
 ** zero fill   0x00000000005015f8        0x8
 .text.handle_directory_request
                0x0000000000501600      0x2c7 0x10 tiny_x86_64.o
                0x0000000000501600                handle_directory_request
 ** zero fill   0x00000000005018c7        0x9
 .text.open_listenfd
                0x00000000005018d0      0x153 0x10 tiny_x86_64.o
                0x00000000005018d0                open_listenfd
 ** zero fill   0x0000000000501a23        0x9
 ** zero fill   0x0000000000501a2c        0x4
 .text.url_decode
                0x0000000000501a30      0x110 0x10 tiny_x86_64.o
                0x0000000000501a30                url_decode
 ** zero fill   0x0000000000501b40       0x18
 ** zero fill   0x0000000000501b58        0x8
 .text.parse_request
                0x0000000000501b60      0x298 0x10 tiny_x86_64.o
                0x0000000000501b60                parse_request
 ** zero fill   0x0000000000501df8        0x8
 .text.log_access
                0x0000000000501e00       0x85 0x10 tiny_x86_64.o
                0x0000000000501e00                log_access
 ** zero fill   0x0000000000501e85       0x1f
 ** zero fill   0x0000000000501ea4        0xc
 .text.client_error
                0x0000000000501eb0       0xea 0x10 tiny_x86_64.o
                0x0000000000501eb0                client_error
 ** zero fill   0x0000000000501f9a       0x1e
 ** zero fill   0x0000000000501fb8        0x8
 .text.serve_static
                0x0000000000501fc0      0x232 0x10 tiny_x86_64.o
                0x0000000000501fc0                serve_static
 ** zero fill   0x00000000005021f2        0xe
 .text.get_mime_type
                0x0000000000502200       0xcf 0x10 tiny_x86_64.o
 ** zero fill   0x00000000005022cf        0x5
 ** zero fill   0x00000000005022d4        0xc
 .text.print_stat
                0x00000000005022e0       0x9a 0x10 tiny_x86_64.o
                0x00000000005022e0                print_stat
 ** zero fill   0x000000000050237a       0x1a
 ** zero fill   0x0000000000502394        0xc
 .text.print_http_request
                0x00000000005023a0       0x4d 0x10 tiny_x86_64.o
                0x00000000005023a0                print_http_request
 ** zero fill   0x00000000005023ed        0xf
 ** zero fill   0x00000000005023fc        0x4
 .text.process  0x0000000000502400      0x2bf 0x10 tiny_x86_64.o
                0x0000000000502400                process
 ** zero fill   0x00000000005026bf        0x1
 .text.main     0x00000000005026c0      0x2d4 0x10 tiny_x86_64.o
                0x00000000005026c0                main
 .text._start_c
                0x0000000000502994       0x1f 0x1 /usr/local/popcorn/x86_64/lib/crt1.o
                0x0000000000502994                _start_c
 ** zero fill   0x00000000005029b3       0x15
 .text.closedir
                0x00000000005029c8       0x20 0x1 /usr/local/popcorn/x86_64/lib/libc.a(closedir.o)
                0x00000000005029c8                closedir
 ** zero fill   0x00000000005029e8       0x14
 .text.fdopendir
                0x00000000005029fc       0x7a 0x1 /usr/local/popcorn/x86_64/lib/libc.a(fdopendir.o)
                0x00000000005029fc                fdopendir
 ** zero fill   0x0000000000502a76        0xe
 .text.readdir  0x0000000000502a84       0x73 0x1 /usr/local/popcorn/x86_64/lib/libc.a(readdir.o)
                0x0000000000502a84                readdir
                0x0000000000502a84                readdir64
 ** zero fill   0x0000000000502af7       0x2d
 .text.dummy    0x0000000000502b24        0x1 0x1 /usr/local/popcorn/x86_64/lib/libc.a(__libc_start_main.o)
                0x0000000000502b24                _init
 ** zero fill   0x0000000000502b25        0x3
 .text.dummy1   0x0000000000502b28        0x1 0x1 /usr/local/popcorn/x86_64/lib/libc.a(__libc_start_main.o)
                0x0000000000502b28                __init_ssp
 ** zero fill   0x0000000000502b29        0x3
 .text.__init_libc
                0x0000000000502b2c      0x1a3 0x1 /usr/local/popcorn/x86_64/lib/libc.a(__libc_start_main.o)
                0x0000000000502b2c                __init_libc
 ** zero fill   0x0000000000502ccf       0x35
 .text.libc_start_init
                0x0000000000502d04       0x31 0x1 /usr/local/popcorn/x86_64/lib/libc.a(__libc_start_main.o)
                0x0000000000502d04                __libc_start_init
 ** zero fill   0x0000000000502d35        0xf
 .text.__libc_start_main
                0x0000000000502d44       0x43 0x1 /usr/local/popcorn/x86_64/lib/libc.a(__libc_start_main.o)
                0x0000000000502d44                __libc_start_main
 ** zero fill   0x0000000000502d87        0xd
 .text.__errno_location
                0x0000000000502d94        0xe 0x1 /usr/local/popcorn/x86_64/lib/libc.a(__errno_location.o)
                0x0000000000502d94                __errno_location
 ** zero fill   0x0000000000502da2        0x2
 .text.libc_exit_fini
                0x0000000000502da4       0x35 0x1 /usr/local/popcorn/x86_64/lib/libc.a(exit.o)
                0x0000000000502da4                __libc_exit_fini
 ** zero fill   0x0000000000502dd9        0x7
 .text.dummy    0x0000000000502de0        0x1 0x1 /usr/local/popcorn/x86_64/lib/libc.a(exit.o)
                0x0000000000502de0                __funcs_on_exit
                0x0000000000502de0                _fini
 ** zero fill   0x0000000000502de1        0x3
 .text.fcntl    0x0000000000502de4      0x218 0x1 /usr/local/popcorn/x86_64/lib/libc.a(fcntl.o)
                0x0000000000502de4                fcntl
 ** zero fill   0x0000000000502ffc       0x18
 .text.open     0x0000000000503014      0x126 0x1 /usr/local/popcorn/x86_64/lib/libc.a(open.o)
                0x0000000000503014                open
                0x0000000000503014                open64
 ** zero fill   0x000000000050313a        0x2
 .text.openat   0x000000000050313c      0x105 0x1 /usr/local/popcorn/x86_64/lib/libc.a(openat.o)
                0x000000000050313c                openat
                0x000000000050313c                openat64
 ** zero fill   0x0000000000503241        0xf
 .text.__syscall_ret
                0x0000000000503250       0x22 0x10 /usr/local/popcorn/x86_64/lib/libc.a(syscall_ret.o)
                0x0000000000503250                __syscall_ret
 ** zero fill   0x0000000000503272        0xe
 .text.sendfile
                0x0000000000503280       0x18 0x1 /usr/local/popcorn/x86_64/lib/libc.a(sendfile.o)
                0x0000000000503280                sendfile
                0x0000000000503280                sendfile64
 ** zero fill   0x0000000000503298        0x8
 .text.calloc   0x00000000005032a0       0x34 0x10 /usr/local/popcorn/x86_64/lib/libc.a(calloc.o)
                0x00000000005032a0                calloc
 ** zero fill   0x00000000005032d4       0x14
 ** zero fill   0x00000000005032e8        0x8
 .text.popcorn_calloc
                0x00000000005032f0       0x38 0x10 /usr/local/popcorn/x86_64/lib/libc.a(calloc.o)
                0x00000000005032f0                popcorn_calloc
 ** zero fill   0x0000000000503328       0x14
 ** zero fill   0x000000000050333c        0x4
 .text.__simple_malloc
                0x0000000000503340       0xea 0x10 /usr/local/popcorn/x86_64/lib/libc.a(lite_malloc.o)
 ** zero fill   0x000000000050342a       0x1a
 ** zero fill   0x0000000000503444        0xc
 .text.malloc   0x0000000000503450      0x788 0x10 /usr/local/popcorn/x86_64/lib/libc.a(malloc.o)
                0x0000000000503450                malloc
 ** zero fill   0x0000000000503bd8       0xa0
 ** zero fill   0x0000000000503c78        0x8
 .text.lock_bin
                0x0000000000503c80       0x78 0x10 /usr/local/popcorn/x86_64/lib/libc.a(malloc.o)
 ** zero fill   0x0000000000503cf8       0x34
 ** zero fill   0x0000000000503d2c        0x4
 .text.unbin    0x0000000000503d30       0x53 0x10 /usr/local/popcorn/x86_64/lib/libc.a(malloc.o)
 ** zero fill   0x0000000000503d83       0x51
 ** zero fill   0x0000000000503dd4        0xc
 .text.unlock_bin
                0x0000000000503de0       0x55 0x10 /usr/local/popcorn/x86_64/lib/libc.a(malloc.o)
 ** zero fill   0x0000000000503e35       0x17
 ** zero fill   0x0000000000503e4c        0x4
 .text.__malloc0
                0x0000000000503e50       0xaf 0x10 /usr/local/popcorn/x86_64/lib/libc.a(malloc.o)
                0x0000000000503e50                __malloc0
 ** zero fill   0x0000000000503eff       0x15
 ** zero fill   0x0000000000503f14        0xc
 .text.realloc  0x0000000000503f20      0x247 0x10 /usr/local/popcorn/x86_64/lib/libc.a(malloc.o)
                0x0000000000503f20                realloc
 ** zero fill   0x0000000000504167       0x25
 ** zero fill   0x000000000050418c        0x4
 .text.free     0x0000000000504190      0x672 0x10 /usr/local/popcorn/x86_64/lib/libc.a(malloc.o)
                0x0000000000504190                free
 ** zero fill   0x0000000000504802       0x3e
 .text.alloc_fwd
                0x0000000000504840       0xc2 0x10 /usr/local/popcorn/x86_64/lib/libc.a(malloc.o)
 ** zero fill   0x0000000000504902        0x6
 ** zero fill   0x0000000000504908        0x8
 .text.popcorn_malloc
                0x0000000000504910      0x7c5 0x10 /usr/local/popcorn/x86_64/lib/libc.a(popcorn_malloc.o)
                0x0000000000504910                popcorn_malloc
 ** zero fill   0x00000000005050d5      0x103
 ** zero fill   0x00000000005051d8        0x8
 .text.__popcorn_malloc0
                0x00000000005051e0       0xaf 0x10 /usr/local/popcorn/x86_64/lib/libc.a(popcorn_malloc.o)
                0x00000000005051e0                __popcorn_malloc0
 ** zero fill   0x000000000050528f       0x15
 ** zero fill   0x00000000005052a4        0xc
 .text.popcorn_realloc
                0x00000000005052b0      0x4cb 0x10 /usr/local/popcorn/x86_64/lib/libc.a(popcorn_malloc.o)
                0x00000000005052b0                popcorn_realloc
 ** zero fill   0x000000000050577b       0x65
 .text.popcorn_free
                0x00000000005057e0      0x91b 0x10 /usr/local/popcorn/x86_64/lib/libc.a(popcorn_malloc.o)
                0x00000000005057e0                popcorn_free
 ** zero fill   0x00000000005060fb       0xd5
 .text.__madvise
                0x00000000005061d0       0x12 0x1 /usr/local/popcorn/x86_64/lib/libc.a(madvise.o)
                0x00000000005061d0                __madvise
                0x00000000005061d0                madvise
 ** zero fill   0x00000000005061e2        0xe
 .text.dummy    0x00000000005061f0        0x1 0x1 /usr/local/popcorn/x86_64/lib/libc.a(mmap.o)
                0x00000000005061f0                __vm_wait
 ** zero fill   0x00000000005061f1        0x3
 .text.__mmap   0x00000000005061f4       0xb5 0x1 /usr/local/popcorn/x86_64/lib/libc.a(mmap.o)
                0x00000000005061f4                __mmap
                0x00000000005061f4                mmap
                0x00000000005061f4                mmap64
 ** zero fill   0x00000000005062a9        0xb
 .text.dummy    0x00000000005062b4        0x1 0x1 /usr/local/popcorn/x86_64/lib/libc.a(mremap.o)
 ** zero fill   0x00000000005062b5        0x3
 .text.__mremap
                0x00000000005062b8      0x11e 0x1 /usr/local/popcorn/x86_64/lib/libc.a(mremap.o)
                0x00000000005062b8                __mremap
                0x00000000005062b8                mremap
 ** zero fill   0x00000000005063d6        0x2
 .text.dummy    0x00000000005063d8        0x1 0x1 /usr/local/popcorn/x86_64/lib/libc.a(munmap.o)
 ** zero fill   0x00000000005063d9        0x3
 .text.__munmap
                0x00000000005063dc       0x2b 0x1 /usr/local/popcorn/x86_64/lib/libc.a(munmap.o)
                0x00000000005063dc                __munmap
                0x00000000005063dc                munmap
 ** zero fill   0x0000000000506407        0xd
 .text.accept   0x0000000000506414       0x31 0x1 /usr/local/popcorn/x86_64/lib/libc.a(accept.o)
                0x0000000000506414                accept
 ** zero fill   0x0000000000506445        0xb
 .text.bind     0x0000000000506450       0x1d 0x1 /usr/local/popcorn/x86_64/lib/libc.a(bind.o)
                0x0000000000506450                bind
 ** zero fill   0x000000000050646d       0x13
 .text.htonl    0x0000000000506480        0x5 0x1 /usr/local/popcorn/x86_64/lib/libc.a(htonl.o)
                0x0000000000506480                htonl
 ** zero fill   0x0000000000506485        0x3
 .text.htons    0x0000000000506488        0x8 0x1 /usr/local/popcorn/x86_64/lib/libc.a(htons.o)
                0x0000000000506488                htons
 ** zero fill   0x0000000000506490        0x8
 .text.inet_ntoa
                0x0000000000506498       0x40 0x1 /usr/local/popcorn/x86_64/lib/libc.a(inet_ntoa.o)
                0x0000000000506498                inet_ntoa
 ** zero fill   0x00000000005064d8        0x8
 .text.listen   0x00000000005064e0       0x20 0x1 /usr/local/popcorn/x86_64/lib/libc.a(listen.o)
                0x00000000005064e0                listen
 ** zero fill   0x0000000000506500       0x14
 .text.ntohs    0x0000000000506514        0x8 0x1 /usr/local/popcorn/x86_64/lib/libc.a(ntohs.o)
                0x0000000000506514                ntohs
 ** zero fill   0x000000000050651c        0x8
 .text.setsockopt
                0x0000000000506524       0x21 0x1 /usr/local/popcorn/x86_64/lib/libc.a(setsockopt.o)
                0x0000000000506524                setsockopt
 ** zero fill   0x0000000000506545        0xf
 .text.socket   0x0000000000506554       0xe1 0x1 /usr/local/popcorn/x86_64/lib/libc.a(socket.o)
                0x0000000000506554                socket
 ** zero fill   0x0000000000506635       0x27
 .text.dummy    0x000000000050665c        0x1 0x1 /usr/local/popcorn/x86_64/lib/libc.a(fork.o)
                0x000000000050665c                __fork_handler
 ** zero fill   0x000000000050665d        0x3
 .text.fork     0x0000000000506660       0x90 0x1 /usr/local/popcorn/x86_64/lib/libc.a(fork.o)
                0x0000000000506660                fork
 .text.__block_all_sigs
                0x00000000005066f0       0x1b 0x1 /usr/local/popcorn/x86_64/lib/libc.a(block.o)
                0x00000000005066f0                __block_all_sigs
 ** zero fill   0x000000000050670b        0x9
 .text.__block_app_sigs
                0x0000000000506714       0x1b 0x1 /usr/local/popcorn/x86_64/lib/libc.a(block.o)
                0x0000000000506714                __block_app_sigs
 ** zero fill   0x000000000050672f        0x9
 .text.__restore_sigs
                0x0000000000506738       0x1b 0x1 /usr/local/popcorn/x86_64/lib/libc.a(block.o)
                0x0000000000506738                __restore_sigs
 ** zero fill   0x0000000000506753        0x5
 .text.signal   0x0000000000506758       0x62 0x1 /usr/local/popcorn/x86_64/lib/libc.a(signal.o)
                0x0000000000506758                __sysv_signal
                0x0000000000506758                bsd_signal
                0x0000000000506758                signal
 ** zero fill   0x00000000005067ba        0xa
 .text.fstat    0x00000000005067c4       0x5f 0x1 /usr/local/popcorn/x86_64/lib/libc.a(fstat.o)
                0x00000000005067c4                fstat
                0x00000000005067c4                fstat64
 ** zero fill   0x0000000000506823       0x29
 .text.perror   0x000000000050684c       0xb8 0x1 /usr/local/popcorn/x86_64/lib/libc.a(perror.o)
                0x000000000050684c                perror
 ** zero fill   0x0000000000506904       0x14
 .text.printf   0x0000000000506918       0xa9 0x1 /usr/local/popcorn/x86_64/lib/libc.a(printf.o)
                0x0000000000506918                printf
 ** zero fill   0x00000000005069c1        0x3
 .text.snprintf
                0x00000000005069c4       0x92 0x1 /usr/local/popcorn/x86_64/lib/libc.a(snprintf.o)
                0x00000000005069c4                snprintf
 ** zero fill   0x0000000000506a56        0x2
 .text.sprintf  0x0000000000506a58       0x97 0x1 /usr/local/popcorn/x86_64/lib/libc.a(sprintf.o)
                0x0000000000506a58                sprintf
 ** zero fill   0x0000000000506aef        0x1
 .text.sscanf   0x0000000000506af0       0x97 0x1 /usr/local/popcorn/x86_64/lib/libc.a(sscanf.o)
                0x0000000000506af0                __isoc99_sscanf
                0x0000000000506af0                sscanf
 ** zero fill   0x0000000000506b87        0x1
 .text.vfprintf
                0x0000000000506b88      0x1ba 0x1 /usr/local/popcorn/x86_64/lib/libc.a(vfprintf.o)
                0x0000000000506b88                vfprintf
 ** zero fill   0x0000000000506d42        0x2
 .text.printf_core
                0x0000000000506d44     0x1e06 0x1 /usr/local/popcorn/x86_64/lib/libc.a(vfprintf.o)
 ** zero fill   0x0000000000508b4a        0x2
 .text.getint   0x0000000000508b4c       0x54 0x1 /usr/local/popcorn/x86_64/lib/libc.a(vfprintf.o)
 ** zero fill   0x0000000000508ba0       0x20
 .text.pop_arg  0x0000000000508bc0      0x1a6 0x1 /usr/local/popcorn/x86_64/lib/libc.a(vfprintf.o)
 ** zero fill   0x0000000000508d66       0xd6
 .text.pad      0x0000000000508e3c       0xbd 0x1 /usr/local/popcorn/x86_64/lib/libc.a(vfprintf.o)
 ** zero fill   0x0000000000508ef9        0x7
 .text.vsnprintf
                0x0000000000508f00       0xcb 0x1 /usr/local/popcorn/x86_64/lib/libc.a(vsnprintf.o)
                0x0000000000508f00                vsnprintf
 ** zero fill   0x0000000000508fcb        0x9
 .text.sn_write
                0x0000000000508fd4       0xb7 0x1 /usr/local/popcorn/x86_64/lib/libc.a(vsnprintf.o)
 ** zero fill   0x000000000050908b       0x21
 .text.vsprintf
                0x00000000005090ac       0x16 0x1 /usr/local/popcorn/x86_64/lib/libc.a(vsprintf.o)
                0x00000000005090ac                vsprintf
 ** zero fill   0x00000000005090c2       0x26
 .text.vsscanf  0x00000000005090e8       0x68 0x1 /usr/local/popcorn/x86_64/lib/libc.a(vsscanf.o)
                0x00000000005090e8                __isoc99_vsscanf
                0x00000000005090e8                vsscanf
 ** zero fill   0x0000000000509150       0x18
 .text.do_read  0x0000000000509168        0x5 0x1 /usr/local/popcorn/x86_64/lib/libc.a(vsscanf.o)
 ** zero fill   0x000000000050916d        0x3
 .text.atoi     0x0000000000509170       0x5a 0x1 /usr/local/popcorn/x86_64/lib/libc.a(atoi.o)
                0x0000000000509170                atoi
 ** zero fill   0x00000000005091ca       0x1a
 .text.strtoull
                0x00000000005091e4        0xc 0x1 /usr/local/popcorn/x86_64/lib/libc.a(strtol.o)
                0x00000000005091e4                __strtoull_internal
                0x00000000005091e4                strtoull
 .text.strtox   0x00000000005091f0       0xac 0x1 /usr/local/popcorn/x86_64/lib/libc.a(strtol.o)
 ** zero fill   0x000000000050929c        0x8
 .text.strtoll  0x00000000005092a4        0xf 0x1 /usr/local/popcorn/x86_64/lib/libc.a(strtol.o)
                0x00000000005092a4                __strtoll_internal
                0x00000000005092a4                strtoll
 ** zero fill   0x00000000005092b3        0x1
 .text.strtoul  0x00000000005092b4        0xc 0x1 /usr/local/popcorn/x86_64/lib/libc.a(strtol.o)
                0x00000000005092b4                __strtoul_internal
                0x00000000005092b4                strtoul
 .text.strtol   0x00000000005092c0        0xf 0x1 /usr/local/popcorn/x86_64/lib/libc.a(strtol.o)
                0x00000000005092c0                __strtol_internal
                0x00000000005092c0                strtol
 ** zero fill   0x00000000005092cf        0x1
 .text.strtoimax
                0x00000000005092d0        0xf 0x1 /usr/local/popcorn/x86_64/lib/libc.a(strtol.o)
                0x00000000005092d0                __strtoimax_internal
                0x00000000005092d0                strtoimax
 ** zero fill   0x00000000005092df        0x1
 .text.strtoumax
                0x00000000005092e0        0xc 0x1 /usr/local/popcorn/x86_64/lib/libc.a(strtol.o)
                0x00000000005092e0                __strtoumax_internal
                0x00000000005092e0                strtoumax
 ** zero fill   0x00000000005092ec        0x4
 .text.strcmp   0x00000000005092f0       0x46 0x10 /usr/local/popcorn/x86_64/lib/libc.a(strcmp.o)
                0x00000000005092f0                strcmp
 ** zero fill   0x0000000000509336        0xa
 .text.strlen   0x0000000000509340       0x61 0x10 /usr/local/popcorn/x86_64/lib/libc.a(strlen.o)
                0x0000000000509340                strlen
 ** zero fill   0x00000000005093a1        0xf
 .text.strnlen  0x00000000005093b0       0x2c 0x10 /usr/local/popcorn/x86_64/lib/libc.a(strnlen.o)
                0x00000000005093b0                strnlen
 ** zero fill   0x00000000005093dc        0xc
 ** zero fill   0x00000000005093e8        0x8
 .text.strrchr  0x00000000005093f0       0x21 0x10 /usr/local/popcorn/x86_64/lib/libc.a(strrchr.o)
                0x00000000005093f0                strrchr
 ** zero fill   0x0000000000509411        0xf
 .text.memcpy   0x0000000000509420       0x32 0x1 /usr/local/popcorn/x86_64/lib/libc.a(memcpy.o)
                0x0000000000509420                __memcpy_fwd
                0x0000000000509420                memcpy
 ** zero fill   0x0000000000509452      0x3ae
 .text.memset   0x0000000000509800       0xc4 0x1 /usr/local/popcorn/x86_64/lib/libc.a(memset.o)
                0x0000000000509800                memset
 ** zero fill   0x00000000005098c4       0x94
 .text.__lock   0x0000000000509958       0x47 0x1 /usr/local/popcorn/x86_64/lib/libc.a(__lock.o)
                0x0000000000509958                __lock
 ** zero fill   0x000000000050999f       0x1d
 .text.__unlock
                0x00000000005099bc       0x3d 0x1 /usr/local/popcorn/x86_64/lib/libc.a(__lock.o)
                0x00000000005099bc                __unlock
 ** zero fill   0x00000000005099f9       0x17
 .text.sccp     0x0000000000509a10       0x13 0x1 /usr/local/popcorn/x86_64/lib/libc.a(__syscall_cp.o)
                0x0000000000509a10                __syscall_cp_c
 ** zero fill   0x0000000000509a23        0x1
 .text.__syscall_cp
                0x0000000000509a24        0x5 0x1 /usr/local/popcorn/x86_64/lib/libc.a(__syscall_cp.o)
                0x0000000000509a24                __syscall_cp
 ** zero fill   0x0000000000509a29        0x3
 .text.__wait   0x0000000000509a2c       0x76 0x1 /usr/local/popcorn/x86_64/lib/libc.a(__wait.o)
                0x0000000000509a2c                __wait
 ** zero fill   0x0000000000509aa2       0x4e
 .text.localtime
                0x0000000000509af0        0xa 0x1 /usr/local/popcorn/x86_64/lib/libc.a(localtime.o)
                0x0000000000509af0                localtime
 ** zero fill   0x0000000000509afa        0x2
 .text.__localtime_r
                0x0000000000509afc       0x6c 0x1 /usr/local/popcorn/x86_64/lib/libc.a(localtime_r.o)
                0x0000000000509afc                __localtime_r
                0x0000000000509afc                localtime_r
 ** zero fill   0x0000000000509b68       0x1c
 .text.__strftime_fmt_1
                0x0000000000509b84      0x4a5 0x1 /usr/local/popcorn/x86_64/lib/libc.a(strftime.o)
                0x0000000000509b84                __strftime_fmt_1
 ** zero fill   0x000000000050a029       0x4f
 .text.week_num
                0x000000000050a078      0x1c6 0x1 /usr/local/popcorn/x86_64/lib/libc.a(strftime.o)
 ** zero fill   0x000000000050a23e       0x4a
 .text.__strftime_l
                0x000000000050a288      0x22f 0x1 /usr/local/popcorn/x86_64/lib/libc.a(strftime.o)
                0x000000000050a288                __strftime_l
                0x000000000050a288                strftime_l
 ** zero fill   0x000000000050a4b7       0x19
 .text.strftime
                0x000000000050a4d0       0x15 0x1 /usr/local/popcorn/x86_64/lib/libc.a(strftime.o)
                0x000000000050a4d0                strftime
 ** zero fill   0x000000000050a4e5        0x3
 .text.chdir    0x000000000050a4e8        0xf 0x1 /usr/local/popcorn/x86_64/lib/libc.a(chdir.o)
                0x000000000050a4e8                chdir
 ** zero fill   0x000000000050a4f7        0xd
 .text.dummy    0x000000000050a504        0x3 0x1 /usr/local/popcorn/x86_64/lib/libc.a(close.o)
                0x000000000050a504                __aio_close
 ** zero fill   0x000000000050a507        0x1
 .text.close    0x000000000050a508       0x3f 0x1 /usr/local/popcorn/x86_64/lib/libc.a(close.o)
                0x000000000050a508                close
 ** zero fill   0x000000000050a547        0x5
 .text.getcwd   0x000000000050a54c       0x6f 0x1 /usr/local/popcorn/x86_64/lib/libc.a(getcwd.o)
                0x000000000050a54c                getcwd
 ** zero fill   0x000000000050a5bb       0x21
 .text.getpid   0x000000000050a5dc        0x8 0x1 /usr/local/popcorn/x86_64/lib/libc.a(getpid.o)
                0x000000000050a5dc                getpid
 ** zero fill   0x000000000050a5e4        0x4
 .text.read     0x000000000050a5e8       0x2e 0x1 /usr/local/popcorn/x86_64/lib/libc.a(read.o)
                0x000000000050a5e8                read
 ** zero fill   0x000000000050a616        0xa
 .text.write    0x000000000050a620       0x31 0x1 /usr/local/popcorn/x86_64/lib/libc.a(write.o)
                0x000000000050a620                write
 ** zero fill   0x000000000050a651        0x7
 .text.__init_tp
                0x000000000050a658       0x4e 0x1 /usr/local/popcorn/x86_64/lib/libc.a(__init_tls.o)
                0x000000000050a658                __init_tp
 ** zero fill   0x000000000050a6a6       0x22
 .text.__copy_tls
                0x000000000050a6c8       0x80 0x1 /usr/local/popcorn/x86_64/lib/libc.a(__init_tls.o)
                0x000000000050a6c8                __copy_tls
 ** zero fill   0x000000000050a748        0xc
 .text.static_init_tls
                0x000000000050a754      0x14b 0x1 /usr/local/popcorn/x86_64/lib/libc.a(__init_tls.o)
                0x000000000050a754                __init_tls
 ** zero fill   0x000000000050a89f       0x11
 .text.__strerror_l
                0x000000000050a8b0       0x44 0x1 /usr/local/popcorn/x86_64/lib/libc.a(strerror.o)
                0x000000000050a8b0                __strerror_l
                0x000000000050a8b0                strerror_l
 ** zero fill   0x000000000050a8f4       0x1c
 .text.strerror
                0x000000000050a910       0x15 0x1 /usr/local/popcorn/x86_64/lib/libc.a(strerror.o)
                0x000000000050a910                strerror
 ** zero fill   0x000000000050a925        0x3
 .text._Exit    0x000000000050a928       0x13 0x1 /usr/local/popcorn/x86_64/lib/libc.a(_Exit.o)
                0x000000000050a928                _Exit
 ** zero fill   0x000000000050a93b        0xd
 ** zero fill   0x000000000050a948        0x8
 .text.__intscan
                0x000000000050a950      0x5ce 0x10 /usr/local/popcorn/x86_64/lib/libc.a(intscan.o)
                0x000000000050a950                __intscan
 ** zero fill   0x000000000050af1e        0x2
 .text.__procfdname
                0x000000000050af20       0x82 0x10 /usr/local/popcorn/x86_64/lib/libc.a(procfdname.o)
                0x000000000050af20                __procfdname
 ** zero fill   0x000000000050afa2       0x2a
 ** zero fill   0x000000000050afcc        0x4
 .text.__shlim  0x000000000050afd0       0x39 0x10 /usr/local/popcorn/x86_64/lib/libc.a(shgetc.o)
                0x000000000050afd0                __shlim
 ** zero fill   0x000000000050b009        0x7
 .text.__shgetc
                0x000000000050b010       0xa3 0x10 /usr/local/popcorn/x86_64/lib/libc.a(shgetc.o)
                0x000000000050b010                __shgetc
 ** zero fill   0x000000000050b0b3       0x19
 ** zero fill   0x000000000050b0cc        0x4
 .text.__syscall
                0x000000000050b0d0       0x1a 0x1 /usr/local/popcorn/x86_64/lib/libc.a(syscall.o)
                0x000000000050b0d0                __syscall
 ** zero fill   0x000000000050b0ea        0xe
 .text.dummy    0x000000000050b0f8        0x4 0x1 /usr/local/popcorn/x86_64/lib/libc.a(__lctrans.o)
                0x000000000050b0f8                __lctrans_impl
 .text.__lctrans
                0x000000000050b0fc        0x5 0x1 /usr/local/popcorn/x86_64/lib/libc.a(__lctrans.o)
                0x000000000050b0fc                __lctrans
 ** zero fill   0x000000000050b101        0x3
 .text.__lctrans_cur
                0x000000000050b104       0x19 0x1 /usr/local/popcorn/x86_64/lib/libc.a(__lctrans.o)
                0x000000000050b104                __lctrans_cur
 ** zero fill   0x000000000050b11d        0x3
 .text.__nl_langinfo_l
                0x000000000050b120       0xe1 0x1 /usr/local/popcorn/x86_64/lib/libc.a(langinfo.o)
                0x000000000050b120                __nl_langinfo_l
                0x000000000050b120                nl_langinfo_l
 ** zero fill   0x000000000050b201       0x43
 .text.__nl_langinfo
                0x000000000050b244       0x15 0x1 /usr/local/popcorn/x86_64/lib/libc.a(langinfo.o)
                0x000000000050b244                __nl_langinfo
                0x000000000050b244                nl_langinfo
 ** zero fill   0x000000000050b259        0x7
 .text.__expand_heap
                0x000000000050b260      0x14a 0x10 /usr/local/popcorn/x86_64/lib/libc.a(expand_heap.o)
                0x000000000050b260                __expand_heap
 ** zero fill   0x000000000050b3aa       0x2e
 ** zero fill   0x000000000050b3d8        0x8
 .text.__expand_heap_node
                0x000000000050b3e0      0x1e9 0x10 /usr/local/popcorn/x86_64/lib/libc.a(expand_heap.o)
                0x000000000050b3e0                __expand_heap_node
 ** zero fill   0x000000000050b5c9       0x4f
 ** zero fill   0x000000000050b618        0x8
 .text.popcorn_get_arena
                0x000000000050b620       0xf5 0x10 /usr/local/popcorn/x86_64/lib/libc.a(expand_heap.o)
                0x000000000050b620                popcorn_get_arena
 ** zero fill   0x000000000050b715       0x33
 .text.__fpclassifyl
                0x000000000050b748       0x55 0x1 /usr/local/popcorn/x86_64/lib/libc.a(__fpclassifyl.o)
                0x000000000050b748                __fpclassifyl
 ** zero fill   0x000000000050b79d        0x3
 .text.__signbitl
                0x000000000050b7a0        0xa 0x1 /usr/local/popcorn/x86_64/lib/libc.a(__signbitl.o)
                0x000000000050b7a0                __signbitl
 ** zero fill   0x000000000050b7aa        0xe
 .text.frexpl   0x000000000050b7b8       0x80 0x1 /usr/local/popcorn/x86_64/lib/libc.a(frexpl.o)
                0x000000000050b7b8                frexpl
 ** zero fill   0x000000000050b838       0x34
 .text.wctomb   0x000000000050b86c       0x11 0x1 /usr/local/popcorn/x86_64/lib/libc.a(wctomb.o)
                0x000000000050b86c                wctomb
 ** zero fill   0x000000000050b87d       0x13
 .text.__get_handler_set
                0x000000000050b890        0xf 0x1 /usr/local/popcorn/x86_64/lib/libc.a(sigaction.o)
                0x000000000050b890                __get_handler_set
 ** zero fill   0x000000000050b89f        0x1
 .text.__libc_sigaction
                0x000000000050b8a0      0x139 0x1 /usr/local/popcorn/x86_64/lib/libc.a(sigaction.o)
                0x000000000050b8a0                __libc_sigaction
 ** zero fill   0x000000000050b9d9       0x5b
 .text.__sigaction
                0x000000000050ba34       0x2a 0x1 /usr/local/popcorn/x86_64/lib/libc.a(sigaction.o)
                0x000000000050ba34                __sigaction
                0x000000000050ba34                sigaction
 ** zero fill   0x000000000050ba5e       0x16
 ** zero fill   0x000000000050ba74        0xc
 .text.__restore_rt
                0x000000000050ba80        0x9 0x1 /usr/local/popcorn/x86_64/lib/libc.a(restore.o)
                0x000000000050ba80                __restore_rt
 ** zero fill   0x000000000050ba89        0x3
 .text.__lockfile
                0x000000000050ba8c       0x72 0x1 /usr/local/popcorn/x86_64/lib/libc.a(__lockfile.o)
                0x000000000050ba8c                __lockfile
 ** zero fill   0x000000000050bafe        0x2
 .text.__unlockfile
                0x000000000050bb00       0x46 0x1 /usr/local/popcorn/x86_64/lib/libc.a(__lockfile.o)
                0x000000000050bb00                __unlockfile
 ** zero fill   0x000000000050bb46        0x6
 .text.dummy    0x000000000050bb4c        0x3 0x1 /usr/local/popcorn/x86_64/lib/libc.a(__stdio_close.o)
 ** zero fill   0x000000000050bb4f        0x1
 .text.__stdio_close
                0x000000000050bb50       0x1c 0x1 /usr/local/popcorn/x86_64/lib/libc.a(__stdio_close.o)
                0x000000000050bb50                __stdio_close
 ** zero fill   0x000000000050bb6c        0xc
 .text.__stdio_seek
                0x000000000050bb78       0x16 0x1 /usr/local/popcorn/x86_64/lib/libc.a(__stdio_seek.o)
                0x000000000050bb78                __stdio_seek
 ** zero fill   0x000000000050bb8e        0x2
 .text.__stdio_write
                0x000000000050bb90      0x116 0x1 /usr/local/popcorn/x86_64/lib/libc.a(__stdio_write.o)
                0x000000000050bb90                __stdio_write
 ** zero fill   0x000000000050bca6       0x22
 .text.__stdout_write
                0x000000000050bcc8       0x49 0x1 /usr/local/popcorn/x86_64/lib/libc.a(__stdout_write.o)
                0x000000000050bcc8                __stdout_write
 ** zero fill   0x000000000050bd11       0x1f
 .text.__string_read
                0x000000000050bd30       0x79 0x1 /usr/local/popcorn/x86_64/lib/libc.a(__string_read.o)
                0x000000000050bd30                __string_read
 ** zero fill   0x000000000050bda9        0xb
 .text.__uflow  0x000000000050bdb4       0x38 0x1 /usr/local/popcorn/x86_64/lib/libc.a(__uflow.o)
                0x000000000050bdb4                __uflow
 ** zero fill   0x000000000050bdec       0x1c
 .text.fputc    0x000000000050be08       0x9c 0x1 /usr/local/popcorn/x86_64/lib/libc.a(fputc.o)
                0x000000000050be08                fputc
 ** zero fill   0x000000000050bea4       0x38
 .text.__fwritex
                0x000000000050bedc       0xc1 0x1 /usr/local/popcorn/x86_64/lib/libc.a(fwrite.o)
                0x000000000050bedc                __fwritex
 ** zero fill   0x000000000050bf9d       0x33
 .text.fwrite   0x000000000050bfd0       0x8c 0x1 /usr/local/popcorn/x86_64/lib/libc.a(fwrite.o)
                0x000000000050bfd0                fwrite
                0x000000000050bfd0                fwrite_unlocked
 ** zero fill   0x000000000050c05c       0x10
 .text.vfscanf  0x000000000050c06c      0xccc 0x1 /usr/local/popcorn/x86_64/lib/libc.a(vfscanf.o)
                0x000000000050c06c                __isoc99_vfscanf
                0x000000000050c06c                vfscanf
 ** zero fill   0x000000000050cd38       0xcc
 .text.abs      0x000000000050ce04        0x8 0x1 /usr/local/popcorn/x86_64/lib/libc.a(abs.o)
                0x000000000050ce04                abs
 ** zero fill   0x000000000050ce0c        0x4
 .text.memchr   0x000000000050ce10       0xe0 0x10 /usr/local/popcorn/x86_64/lib/libc.a(memchr.o)
                0x000000000050ce10                memchr
 .text.__memrchr
                0x000000000050cef0       0x27 0x10 /usr/local/popcorn/x86_64/lib/libc.a(memrchr.o)
                0x000000000050cef0                __memrchr
                0x000000000050cef0                memrchr
 ** zero fill   0x000000000050cf17        0x5
 ** zero fill   0x000000000050cf1c        0x4
 .text.__strdup
                0x000000000050cf20       0x3a 0x10 /usr/local/popcorn/x86_64/lib/libc.a(strdup.o)
                0x000000000050cf20                __strdup
                0x000000000050cf20                strdup
 ** zero fill   0x000000000050cf5a        0xa
 ** zero fill   0x000000000050cf64        0xc
 .text.__set_thread_area
                0x000000000050cf70       0x10 0x1 /usr/local/popcorn/x86_64/lib/libc.a(__set_thread_area.o)
                0x000000000050cf70                __set_thread_area
 .text.__secs_to_tm
                0x000000000050cf80      0x2ac 0x1 /usr/local/popcorn/x86_64/lib/libc.a(__secs_to_tm.o)
                0x000000000050cf80                __secs_to_tm
 ** zero fill   0x000000000050d22c       0x4c
 .text.__tm_to_secs
                0x000000000050d278       0xac 0x1 /usr/local/popcorn/x86_64/lib/libc.a(__tm_to_secs.o)
                0x000000000050d278                __tm_to_secs
 ** zero fill   0x000000000050d324       0x18
 .text.__secs_to_zone
                0x000000000050d33c      0x52f 0x1 /usr/local/popcorn/x86_64/lib/libc.a(__tz.o)
                0x000000000050d33c                __secs_to_zone
 ** zero fill   0x000000000050d86b        0x1
 .text.rule_to_secs
                0x000000000050d86c      0x131 0x1 /usr/local/popcorn/x86_64/lib/libc.a(__tz.o)
 ** zero fill   0x000000000050d99d       0x3b
 .text.__tzset  0x000000000050d9d8       0x1b 0x1 /usr/local/popcorn/x86_64/lib/libc.a(__tz.o)
                0x000000000050d9d8                __tzset
                0x000000000050d9d8                tzset
 ** zero fill   0x000000000050d9f3       0x15
 .text.__tm_to_tzname
                0x000000000050da08       0x6a 0x1 /usr/local/popcorn/x86_64/lib/libc.a(__tz.o)
                0x000000000050da08                __tm_to_tzname
 ** zero fill   0x000000000050da72       0x36
 .text.do_tzset
                0x000000000050daa8      0x643 0x1 /usr/local/popcorn/x86_64/lib/libc.a(__tz.o)
 ** zero fill   0x000000000050e0eb       0x31
 .text.getname  0x000000000050e11c       0x96 0x1 /usr/local/popcorn/x86_64/lib/libc.a(__tz.o)
 ** zero fill   0x000000000050e1b2        0x2
 .text.getoff   0x000000000050e1b4       0xf9 0x1 /usr/local/popcorn/x86_64/lib/libc.a(__tz.o)
 ** zero fill   0x000000000050e2ad       0x2f
 .text.getrule  0x000000000050e2dc      0x132 0x1 /usr/local/popcorn/x86_64/lib/libc.a(__tz.o)
 ** zero fill   0x000000000050e40e       0x5e
 .text.__year_to_secs
                0x000000000050e46c      0x145 0x1 /usr/local/popcorn/x86_64/lib/libc.a(__year_to_secs.o)
                0x000000000050e46c                __year_to_secs
 ** zero fill   0x000000000050e5b1       0x23
 .text.getenv   0x000000000050e5d4       0x85 0x1 /usr/local/popcorn/x86_64/lib/libc.a(getenv.o)
                0x000000000050e5d4                getenv
 ** zero fill   0x000000000050e659        0x7
 .text.__floatscan
                0x000000000050e660     0x171c 0x10 /usr/local/popcorn/x86_64/lib/libc.a(floatscan.o)
                0x000000000050e660                __floatscan
 ** zero fill   0x000000000050fd7c        0x4
 .text.scanexp  0x000000000050fd80      0x1c6 0x10 /usr/local/popcorn/x86_64/lib/libc.a(floatscan.o)
 ** zero fill   0x000000000050ff46       0x56
 .text.copysignl
                0x000000000050ff9c       0x2c 0x1 /usr/local/popcorn/x86_64/lib/libc.a(copysignl.o)
                0x000000000050ff9c                copysignl
 .text.scalbn   0x000000000050ffc8       0x8e 0x1 /usr/local/popcorn/x86_64/lib/libc.a(scalbn.o)
                0x000000000050ffc8                scalbn
 ** zero fill   0x0000000000510056        0x2
 .text.scalbnl  0x0000000000510058       0x93 0x1 /usr/local/popcorn/x86_64/lib/libc.a(scalbnl.o)
                0x0000000000510058                scalbnl
 ** zero fill   0x00000000005100eb       0x41
 .text.fabs     0x000000000051012c       0x12 0x1 /usr/local/popcorn/x86_64/lib/libc.a(fabs.o)
                0x000000000051012c                fabs
 ** zero fill   0x000000000051013e        0x2
 .text.fmodl    0x0000000000510140       0x14 0x1 /usr/local/popcorn/x86_64/lib/libc.a(fmodl.o)
                0x0000000000510140                fmodl
 ** zero fill   0x0000000000510154      0x240
 .text.mbrtowc  0x0000000000510394      0x134 0x1 /usr/local/popcorn/x86_64/lib/libc.a(mbrtowc.o)
                0x0000000000510394                mbrtowc
 ** zero fill   0x00000000005104c8       0x10
 .text.mbsinit  0x00000000005104d8       0x11 0x1 /usr/local/popcorn/x86_64/lib/libc.a(mbsinit.o)
                0x00000000005104d8                mbsinit
 ** zero fill   0x00000000005104e9        0xb
 .text.wcrtomb  0x00000000005104f4      0x118 0x1 /usr/local/popcorn/x86_64/lib/libc.a(wcrtomb.o)
                0x00000000005104f4                wcrtomb
 .text.__overflow
                0x000000000051060c       0x82 0x1 /usr/local/popcorn/x86_64/lib/libc.a(__overflow.o)
                0x000000000051060c                __overflow
 ** zero fill   0x000000000051068e       0x26
 .text.__toread
                0x00000000005106b4       0x6f 0x1 /usr/local/popcorn/x86_64/lib/libc.a(__toread.o)
                0x00000000005106b4                __toread
 ** zero fill   0x0000000000510723       0x19
 .text.__toread_needs_stdio_exit
                0x000000000051073c        0x5 0x1 /usr/local/popcorn/x86_64/lib/libc.a(__toread.o)
                0x000000000051073c                __toread_needs_stdio_exit
 ** zero fill   0x0000000000510741        0x3
 .text.__towrite
                0x0000000000510744       0x41 0x1 /usr/local/popcorn/x86_64/lib/libc.a(__towrite.o)
                0x0000000000510744                __towrite
 ** zero fill   0x0000000000510785        0xf
 .text.__towrite_needs_stdio_exit
                0x0000000000510794        0x5 0x1 /usr/local/popcorn/x86_64/lib/libc.a(__towrite.o)
                0x0000000000510794                __towrite_needs_stdio_exit
 ** zero fill   0x0000000000510799        0x7
 .text.memcmp   0x00000000005107a0       0x32 0x10 /usr/local/popcorn/x86_64/lib/libc.a(memcmp.o)
                0x00000000005107a0                memcmp
 ** zero fill   0x00000000005107d2        0xe
 .text.strchr   0x00000000005107e0       0x18 0x10 /usr/local/popcorn/x86_64/lib/libc.a(strchr.o)
                0x00000000005107e0                strchr
 ** zero fill   0x00000000005107f8       0x14
 ** zero fill   0x000000000051080c        0x4
 .text.__strchrnul
                0x0000000000510810       0xe8 0x10 /usr/local/popcorn/x86_64/lib/libc.a(strchrnul.o)
                0x0000000000510810                __strchrnul
                0x0000000000510810                strchrnul
 ** zero fill   0x00000000005108f8        0x8
 .text.strncmp  0x0000000000510900       0x42 0x10 /usr/local/popcorn/x86_64/lib/libc.a(strncmp.o)
                0x0000000000510900                strncmp
 ** zero fill   0x0000000000510942        0xe
 .text.__map_file
                0x0000000000510950       0x89 0x1 /usr/local/popcorn/x86_64/lib/libc.a(__map_file.o)
                0x0000000000510950                __map_file
 ** zero fill   0x00000000005109d9       0x23
 .text.__month_to_secs
                0x00000000005109fc       0x1c 0x1 /usr/local/popcorn/x86_64/lib/libc.a(__month_to_secs.o)
                0x00000000005109fc                __month_to_secs
 ** zero fill   0x0000000000510a18       0x10
 .text.__stdio_exit
                0x0000000000510a28       0x35 0x1 /usr/local/popcorn/x86_64/lib/libc.a(__stdio_exit.o)
                0x0000000000510a28                __stdio_exit
                0x0000000000510a28                __stdio_exit_needed
 ** zero fill   0x0000000000510a5d       0x13
 .text.close_file
                0x0000000000510a70       0x45 0x1 /usr/local/popcorn/x86_64/lib/libc.a(__stdio_exit.o)
 ** zero fill   0x0000000000510ab5       0x2b
 .text.__ofl_lock
                0x0000000000510ae0       0x12 0x1 /usr/local/popcorn/x86_64/lib/libc.a(ofl.o)
                0x0000000000510ae0                __ofl_lock
 ** zero fill   0x0000000000510af2       0x12
 .text.__ofl_unlock
                0x0000000000510b04        0xa 0x1 /usr/local/popcorn/x86_64/lib/libc.a(ofl.o)
                0x0000000000510b04                __ofl_unlock
 ** zero fill   0x0000000000510b0e        0x2
 .text.node_available
                0x0000000000510b10       0x27 0x10 /usr/local/popcorn/x86_64/lib/libmigrate.a(migrate.o)
                0x0000000000510b10                node_available
 ** zero fill   0x0000000000510b37        0x9
 .text.current_arch
                0x0000000000510b40       0x56 0x10 /usr/local/popcorn/x86_64/lib/libmigrate.a(migrate.o)
                0x0000000000510b40                current_arch
 ** zero fill   0x0000000000510b96        0xa
 .text.current_nid
                0x0000000000510ba0       0x2d 0x10 /usr/local/popcorn/x86_64/lib/libmigrate.a(migrate.o)
                0x0000000000510ba0                current_nid
 ** zero fill   0x0000000000510bcd        0x7
 ** zero fill   0x0000000000510bd4        0xc
 .text.__init_nodes_info
                0x0000000000510be0       0xe7 0x10 /usr/local/popcorn/x86_64/lib/libmigrate.a(migrate.o)
                0x0000000000510be0                __init_nodes_info
 ** zero fill   0x0000000000510cc7        0x9
 .text.__migrate_shim_internal
                0x0000000000510cd0      0x57d 0x10 /usr/local/popcorn/x86_64/lib/libmigrate.a(migrate.o)
                0x0000000000510cd0                __migrate_shim_internal
 ** zero fill   0x000000000051124d        0x3
 .text.check_migrate
                0x0000000000511250       0x76 0x10 /usr/local/popcorn/x86_64/lib/libmigrate.a(migrate.o)
                0x0000000000511250                check_migrate
 ** zero fill   0x00000000005112c6        0xe
 ** zero fill   0x00000000005112d4        0xc
 .text.migrate  0x00000000005112e0       0x52 0x10 /usr/local/popcorn/x86_64/lib/libmigrate.a(migrate.o)
                0x00000000005112e0                migrate
 ** zero fill   0x0000000000511332       0x16
 ** zero fill   0x0000000000511348        0x8
 .text.migrate_schedule
                0x0000000000511350       0x57 0x10 /usr/local/popcorn/x86_64/lib/libmigrate.a(migrate.o)
                0x0000000000511350                migrate_schedule
 ** zero fill   0x00000000005113a7       0x15
 ** zero fill   0x00000000005113bc        0x4
 .text.get_call_site
                0x00000000005113c0        0xa 0x10 /usr/local/popcorn/x86_64/lib/libmigrate.a(migrate.o)
 .text.__migrate_fixup_x86_64
                0x00000000005113ca       0x74 0x1 /usr/local/popcorn/x86_64/lib/libmigrate.a(migrate_x86_64.o)
                0x00000000005113ca                __migrate_fixup_x86_64
 ** zero fill   0x000000000051143e        0x2
 .text.__migrate_fixup_powerpc64
                0x0000000000511440        0x0 0x4 /usr/local/popcorn/x86_64/lib/libmigrate.a(migrate_powerpc64.o)
                0x0000000000511440                __migrate_fixup_powerpc64
 .text.__migrate_fixup_aarch64
                0x0000000000511440        0x0 0x4 /usr/local/popcorn/x86_64/lib/libmigrate.a(migrate_aarch64.o)
                0x0000000000511440                __migrate_fixup_aarch64
 ** zero fill   0x0000000000511440       0x84
 ** zero fill   0x00000000005114c4        0xc
 .text.set_default_node
                0x00000000005114d0        0xd 0x10 /usr/local/popcorn/x86_64/lib/libmigrate.a(mapping.o)
                0x00000000005114d0                set_default_node
 ** zero fill   0x00000000005114dd        0x3
 .text.cleanup  0x00000000005114e0       0x9c 0x10 /usr/local/popcorn/x86_64/lib/libmigrate.a(mapping.o)
 ** zero fill   0x000000000051157c       0x10
 ** zero fill   0x000000000051158c        0x4
 .text.region_compare
                0x0000000000511590       0x27 0x10 /usr/local/popcorn/x86_64/lib/libmigrate.a(mapping.o)
                0x0000000000511590                region_compare
 ** zero fill   0x00000000005115b7        0x1
 ** zero fill   0x00000000005115b8        0x8
 .text.read_mapping_schedule
                0x00000000005115c0      0x343 0x10 /usr/local/popcorn/x86_64/lib/libmigrate.a(mapping.o)
 ** zero fill   0x0000000000511903       0x1d
 .text.region_find
                0x0000000000511920       0x27 0x10 /usr/local/popcorn/x86_64/lib/libmigrate.a(mapping.o)
                0x0000000000511920                region_find
 ** zero fill   0x0000000000511947        0x1
 ** zero fill   0x0000000000511948        0x8
 .text.get_node_mapping
                0x0000000000511950       0x86 0x10 /usr/local/popcorn/x86_64/lib/libmigrate.a(mapping.o)
                0x0000000000511950                get_node_mapping
 ** zero fill   0x00000000005119d6       0x12
 ** zero fill   0x00000000005119e8        0x8
 .text.__st_userspace_ctor
                0x00000000005119f0      0x3e3 0x10 /usr/local/popcorn/x86_64/lib/libstack-transform.a(userspace.o)
                0x00000000005119f0                __st_userspace_ctor
 ** zero fill   0x0000000000511dd3        0xd
 .text.__st_userspace_dtor
                0x0000000000511de0       0x8e 0x10 /usr/local/popcorn/x86_64/lib/libstack-transform.a(userspace.o)
                0x0000000000511de0                __st_userspace_dtor
 ** zero fill   0x0000000000511e6e        0xa
 ** zero fill   0x0000000000511e78        0x8
 .text.get_stack_bounds
                0x0000000000511e80       0xd8 0x10 /usr/local/popcorn/x86_64/lib/libstack-transform.a(userspace.o)
                0x0000000000511e80                get_stack_bounds
 ** zero fill   0x0000000000511f58        0x4
 ** zero fill   0x0000000000511f5c        0x4
 .text.st_userspace_rewrite
                0x0000000000511f60      0x17f 0x10 /usr/local/popcorn/x86_64/lib/libstack-transform.a(userspace.o)
                0x0000000000511f60                st_userspace_rewrite
 ** zero fill   0x00000000005120df        0x1
 .text.__st_ctor
                0x00000000005120e0        0x5 0x10 /usr/local/popcorn/x86_64/lib/libstack-transform.a(init.o)
 ** zero fill   0x00000000005120e5        0xb
 .text.__st_dtor
                0x00000000005120f0        0x5 0x10 /usr/local/popcorn/x86_64/lib/libstack-transform.a(init.o)
                0x00000000005120f0                __st_dtor
 ** zero fill   0x00000000005120f5        0xb
 .text.st_init  0x0000000000512100      0x212 0x10 /usr/local/popcorn/x86_64/lib/libstack-transform.a(init.o)
                0x0000000000512100                st_init
 ** zero fill   0x0000000000512312        0xe
 .text.st_destroy
                0x0000000000512320       0x24 0x10 /usr/local/popcorn/x86_64/lib/libstack-transform.a(init.o)
                0x0000000000512320                st_destroy
 ** zero fill   0x0000000000512344       0x1c
 .text.st_rewrite_stack
                0x0000000000512360      0x80c 0x10 /usr/local/popcorn/x86_64/lib/libstack-transform.a(rewrite.o)
                0x0000000000512360                st_rewrite_stack
 ** zero fill   0x0000000000512b6c        0x4
 .text.rewrite_frame
                0x0000000000512b70      0x442 0x10 /usr/local/popcorn/x86_64/lib/libstack-transform.a(rewrite.o)
 ** zero fill   0x0000000000512fb2        0xe
 .text.st_rewrite_ondemand
                0x0000000000512fc0       0x26 0x10 /usr/local/popcorn/x86_64/lib/libstack-transform.a(rewrite.o)
                0x0000000000512fc0                st_rewrite_ondemand
 ** zero fill   0x0000000000512fe6        0x6
 ** zero fill   0x0000000000512fec        0x4
 .text.rewrite_val
                0x0000000000512ff0      0x272 0x10 /usr/local/popcorn/x86_64/lib/libstack-transform.a(rewrite.o)
 ** zero fill   0x0000000000513262       0x26
 ** zero fill   0x0000000000513288        0x8
 .text.first_frame
                0x0000000000513290        0x8 0x10 /usr/local/popcorn/x86_64/lib/libstack-transform.a(unwind.o)
                0x0000000000513290                first_frame
 ** zero fill   0x0000000000513298        0x4
 ** zero fill   0x000000000051329c        0x4
 .text.calculate_cfa
                0x00000000005132a0       0x2d 0x10 /usr/local/popcorn/x86_64/lib/libstack-transform.a(unwind.o)
                0x00000000005132a0                calculate_cfa
 ** zero fill   0x00000000005132cd       0x13
 .text.bootstrap_first_frame
                0x00000000005132e0       0x2d 0x10 /usr/local/popcorn/x86_64/lib/libstack-transform.a(unwind.o)
                0x00000000005132e0                bootstrap_first_frame
 ** zero fill   0x000000000051330d        0x7
 ** zero fill   0x0000000000513314        0xc
 .text.bootstrap_first_frame_funcentry
                0x0000000000513320       0x4b 0x10 /usr/local/popcorn/x86_64/lib/libstack-transform.a(unwind.o)
                0x0000000000513320                bootstrap_first_frame_funcentry
 ** zero fill   0x000000000051336b       0x19
 ** zero fill   0x0000000000513384        0xc
 .text.pop_frame
                0x0000000000513390      0x1ee 0x10 /usr/local/popcorn/x86_64/lib/libstack-transform.a(unwind.o)
                0x0000000000513390                pop_frame
 ** zero fill   0x000000000051357e       0x6a
 ** zero fill   0x00000000005135e8        0x8
 .text.pop_frame_funcentry
                0x00000000005135f0      0x13e 0x10 /usr/local/popcorn/x86_64/lib/libstack-transform.a(unwind.o)
                0x00000000005135f0                pop_frame_funcentry
 ** zero fill   0x000000000051372e       0x5a
 ** zero fill   0x0000000000513788        0x8
 .text.get_register_save_loc
                0x0000000000513790       0x61 0x10 /usr/local/popcorn/x86_64/lib/libstack-transform.a(unwind.o)
                0x0000000000513790                get_register_save_loc
 ** zero fill   0x00000000005137f1       0x23
 ** zero fill   0x0000000000513814        0xc
 .text.clear_activation
                0x0000000000513820       0x48 0x10 /usr/local/popcorn/x86_64/lib/libstack-transform.a(unwind.o)
                0x0000000000513820                clear_activation
 ** zero fill   0x0000000000513868        0x4
 ** zero fill   0x000000000051386c        0x4
 .text.arch_name
                0x0000000000513870       0x29 0x10 /usr/local/popcorn/x86_64/lib/libstack-transform.a(util.o)
                0x0000000000513870                arch_name
 ** zero fill   0x0000000000513899       0x23
 ** zero fill   0x00000000005138bc        0x4
 .text.get_regops
                0x00000000005138c0       0x26 0x10 /usr/local/popcorn/x86_64/lib/libstack-transform.a(util.o)
                0x00000000005138c0                get_regops
 ** zero fill   0x00000000005138e6       0x22
 ** zero fill   0x0000000000513908        0x8
 .text.get_properties
                0x0000000000513910       0x26 0x10 /usr/local/popcorn/x86_64/lib/libstack-transform.a(util.o)
                0x0000000000513910                get_properties
 ** zero fill   0x0000000000513936       0x22
 ** zero fill   0x0000000000513958        0x8
 .text.get_section
                0x0000000000513960       0xae 0x10 /usr/local/popcorn/x86_64/lib/libstack-transform.a(util.o)
                0x0000000000513960                get_section
 ** zero fill   0x0000000000513a0e       0x12
 .text.get_num_entries
                0x0000000000513a20       0x4f 0x10 /usr/local/popcorn/x86_64/lib/libstack-transform.a(util.o)
                0x0000000000513a20                get_num_entries
 ** zero fill   0x0000000000513a6f       0x15
 ** zero fill   0x0000000000513a84        0xc
 .text.get_section_data
                0x0000000000513a90       0x26 0x10 /usr/local/popcorn/x86_64/lib/libstack-transform.a(util.o)
                0x0000000000513a90                get_section_data
 ** zero fill   0x0000000000513ab6       0x16
 ** zero fill   0x0000000000513acc        0x4
 .text.get_site_by_addr
                0x0000000000513ad0       0x7a 0x10 /usr/local/popcorn/x86_64/lib/libstack-transform.a(util.o)
                0x0000000000513ad0                get_site_by_addr
 ** zero fill   0x0000000000513b4a       0x2a
 ** zero fill   0x0000000000513b74        0xc
 .text.get_site_by_id
                0x0000000000513b80       0x70 0x10 /usr/local/popcorn/x86_64/lib/libstack-transform.a(util.o)
                0x0000000000513b80                get_site_by_id
 ** zero fill   0x0000000000513bf0       0x20
 .text.get_unwind_offset_by_addr
                0x0000000000513c10       0x8c 0x10 /usr/local/popcorn/x86_64/lib/libstack-transform.a(util.o)
                0x0000000000513c10                get_unwind_offset_by_addr
 ** zero fill   0x0000000000513c9c       0x28
 ** zero fill   0x0000000000513cc4        0xc
 .text.get_function_address
                0x0000000000513cd0       0x80 0x10 /usr/local/popcorn/x86_64/lib/libstack-transform.a(util.o)
                0x0000000000513cd0                get_function_address
 ** zero fill   0x0000000000513d50        0x8
 ** zero fill   0x0000000000513d58        0x8
 .text.align_sp_aarch64
                0x0000000000513d60        0xc 0x10 /usr/local/popcorn/x86_64/lib/libstack-transform.a(properties.o)
 ** zero fill   0x0000000000513d6c        0x4
 .text.is_callee_saved_aarch64
                0x0000000000513d70       0x1f 0x10 /usr/local/popcorn/x86_64/lib/libstack-transform.a(properties.o)
 ** zero fill   0x0000000000513d8f       0x11
 .text.callee_reg_size_aarch64
                0x0000000000513da0       0x41 0x10 /usr/local/popcorn/x86_64/lib/libstack-transform.a(properties.o)
 ** zero fill   0x0000000000513de1       0x17
 ** zero fill   0x0000000000513df8        0x8
 .text.regset_default_aarch64
                0x0000000000513e00       0x15 0x10 /usr/local/popcorn/x86_64/lib/libstack-transform.a(regs.o)
 ** zero fill   0x0000000000513e15       0x17
 ** zero fill   0x0000000000513e2c        0x4
 .text.regset_init_aarch64
                0x0000000000513e30       0x33 0x10 /usr/local/popcorn/x86_64/lib/libstack-transform.a(regs.o)
 ** zero fill   0x0000000000513e63        0xd
 .text.regset_free_aarch64
                0x0000000000513e70        0x5 0x10 /usr/local/popcorn/x86_64/lib/libstack-transform.a(regs.o)
 ** zero fill   0x0000000000513e75        0xb
 .text.regset_clone_aarch64
                0x0000000000513e80       0x13 0x10 /usr/local/popcorn/x86_64/lib/libstack-transform.a(regs.o)
 ** zero fill   0x0000000000513e93        0x1
 ** zero fill   0x0000000000513e94        0xc
 .text.regset_copyin_aarch64
                0x0000000000513ea0       0x11 0x10 /usr/local/popcorn/x86_64/lib/libstack-transform.a(regs.o)
 ** zero fill   0x0000000000513eb1        0xf
 .text.regset_copyout_aarch64
                0x0000000000513ec0       0x14 0x10 /usr/local/popcorn/x86_64/lib/libstack-transform.a(regs.o)
 ** zero fill   0x0000000000513ed4        0xc
 .text.pc_aarch64
                0x0000000000513ee0        0x5 0x10 /usr/local/popcorn/x86_64/lib/libstack-transform.a(regs.o)
 ** zero fill   0x0000000000513ee5        0x3
 ** zero fill   0x0000000000513ee8        0x8
 .text.sp_aarch64
                0x0000000000513ef0        0x5 0x10 /usr/local/popcorn/x86_64/lib/libstack-transform.a(regs.o)
 ** zero fill   0x0000000000513ef5        0x3
 ** zero fill   0x0000000000513ef8        0x8
 .text.fbp_aarch64
                0x0000000000513f00        0x8 0x10 /usr/local/popcorn/x86_64/lib/libstack-transform.a(regs.o)
 ** zero fill   0x0000000000513f08        0x8
 .text.ra_reg_aarch64
                0x0000000000513f10        0x8 0x10 /usr/local/popcorn/x86_64/lib/libstack-transform.a(regs.o)
 ** zero fill   0x0000000000513f18        0x8
 .text.set_pc_aarch64
                0x0000000000513f20        0x5 0x10 /usr/local/popcorn/x86_64/lib/libstack-transform.a(regs.o)
 ** zero fill   0x0000000000513f25        0x3
 ** zero fill   0x0000000000513f28        0x8
 .text.set_sp_aarch64
                0x0000000000513f30        0x5 0x10 /usr/local/popcorn/x86_64/lib/libstack-transform.a(regs.o)
 ** zero fill   0x0000000000513f35        0x3
 ** zero fill   0x0000000000513f38        0x8
 .text.set_fbp_aarch64
                0x0000000000513f40        0x8 0x10 /usr/local/popcorn/x86_64/lib/libstack-transform.a(regs.o)
 ** zero fill   0x0000000000513f48        0x8
 .text.set_ra_reg_aarch64
                0x0000000000513f50        0x8 0x10 /usr/local/popcorn/x86_64/lib/libstack-transform.a(regs.o)
 ** zero fill   0x0000000000513f58        0x8
 .text.setup_fbp_aarch64
                0x0000000000513f60        0xc 0x10 /usr/local/popcorn/x86_64/lib/libstack-transform.a(regs.o)
 ** zero fill   0x0000000000513f6c        0x4
 .text.reg_size_aarch64
                0x0000000000513f70       0x3c 0x10 /usr/local/popcorn/x86_64/lib/libstack-transform.a(regs.o)
 ** zero fill   0x0000000000513fac       0x18
 ** zero fill   0x0000000000513fc4        0xc
 .text.reg_aarch64
                0x0000000000513fd0      0x2da 0x10 /usr/local/popcorn/x86_64/lib/libstack-transform.a(regs.o)
 ** zero fill   0x00000000005142aa       0x6a
 ** zero fill   0x0000000000514314        0xc
 .text.align_sp_powerpc64
                0x0000000000514320       0x14 0x10 /usr/local/popcorn/x86_64/lib/libstack-transform.a(properties.o)
 ** zero fill   0x0000000000514334        0xc
 .text.is_callee_saved_powerpc64
                0x0000000000514340       0x13 0x10 /usr/local/popcorn/x86_64/lib/libstack-transform.a(properties.o)
 ** zero fill   0x0000000000514353       0x19
 ** zero fill   0x000000000051436c        0x4
 .text.callee_reg_size_powerpc64
                0x0000000000514370       0x38 0x10 /usr/local/popcorn/x86_64/lib/libstack-transform.a(properties.o)
 ** zero fill   0x00000000005143a8       0x18
 .text.regset_default_powerpc64
                0x00000000005143c0       0x15 0x10 /usr/local/popcorn/x86_64/lib/libstack-transform.a(regs.o)
 ** zero fill   0x00000000005143d5       0x17
 ** zero fill   0x00000000005143ec        0x4
 .text.regset_init_powerpc64
                0x00000000005143f0       0x33 0x10 /usr/local/popcorn/x86_64/lib/libstack-transform.a(regs.o)
 ** zero fill   0x0000000000514423        0xd
 .text.regset_free_powerpc64
                0x0000000000514430        0x5 0x10 /usr/local/popcorn/x86_64/lib/libstack-transform.a(regs.o)
 ** zero fill   0x0000000000514435        0xb
 .text.regset_clone_powerpc64
                0x0000000000514440       0x13 0x10 /usr/local/popcorn/x86_64/lib/libstack-transform.a(regs.o)
 ** zero fill   0x0000000000514453        0x1
 ** zero fill   0x0000000000514454        0xc
 .text.regset_copyin_powerpc64
                0x0000000000514460       0x11 0x10 /usr/local/popcorn/x86_64/lib/libstack-transform.a(regs.o)
 ** zero fill   0x0000000000514471        0xf
 .text.regset_copyout_powerpc64
                0x0000000000514480       0x14 0x10 /usr/local/popcorn/x86_64/lib/libstack-transform.a(regs.o)
 ** zero fill   0x0000000000514494        0xc
 .text.pc_powerpc64
                0x00000000005144a0        0x5 0x10 /usr/local/popcorn/x86_64/lib/libstack-transform.a(regs.o)
 ** zero fill   0x00000000005144a5        0x3
 ** zero fill   0x00000000005144a8        0x8
 .text.sp_powerpc64
                0x00000000005144b0        0x5 0x10 /usr/local/popcorn/x86_64/lib/libstack-transform.a(regs.o)
 ** zero fill   0x00000000005144b5        0x3
 ** zero fill   0x00000000005144b8        0x8
 .text.fbp_powerpc64
                0x00000000005144c0        0x8 0x10 /usr/local/popcorn/x86_64/lib/libstack-transform.a(regs.o)
 ** zero fill   0x00000000005144c8        0x8
 .text.ra_reg_powerpc64
                0x00000000005144d0        0x5 0x10 /usr/local/popcorn/x86_64/lib/libstack-transform.a(regs.o)
 ** zero fill   0x00000000005144d5        0x3
 ** zero fill   0x00000000005144d8        0x8
 .text.set_pc_powerpc64
                0x00000000005144e0        0x5 0x10 /usr/local/popcorn/x86_64/lib/libstack-transform.a(regs.o)
 ** zero fill   0x00000000005144e5        0x3
 ** zero fill   0x00000000005144e8        0x8
 .text.set_sp_powerpc64
                0x00000000005144f0        0x5 0x10 /usr/local/popcorn/x86_64/lib/libstack-transform.a(regs.o)
 ** zero fill   0x00000000005144f5        0x3
 ** zero fill   0x00000000005144f8        0x8
 .text.set_fbp_powerpc64
                0x0000000000514500        0x8 0x10 /usr/local/popcorn/x86_64/lib/libstack-transform.a(regs.o)
 ** zero fill   0x0000000000514508        0x8
 .text.set_ra_reg_powerpc64
                0x0000000000514510        0x5 0x10 /usr/local/popcorn/x86_64/lib/libstack-transform.a(regs.o)
 ** zero fill   0x0000000000514515        0x3
 ** zero fill   0x0000000000514518        0x8
 .text.setup_fbp_powerpc64
                0x0000000000514520        0xc 0x10 /usr/local/popcorn/x86_64/lib/libstack-transform.a(regs.o)
 ** zero fill   0x000000000051452c        0x4
 .text.reg_size_powerpc64
                0x0000000000514530       0x44 0x10 /usr/local/popcorn/x86_64/lib/libstack-transform.a(regs.o)
 ** zero fill   0x0000000000514574       0x10
 ** zero fill   0x0000000000514584        0xc
 .text.reg_powerpc64
                0x0000000000514590      0x2ec 0x10 /usr/local/popcorn/x86_64/lib/libstack-transform.a(regs.o)
 ** zero fill   0x000000000051487c       0x70
 ** zero fill   0x00000000005148ec        0x4
 .text.align_sp_x86_64
                0x00000000005148f0        0xd 0x10 /usr/local/popcorn/x86_64/lib/libstack-transform.a(properties.o)
 ** zero fill   0x00000000005148fd        0x3
 .text.is_callee_saved_x86_64
                0x0000000000514900       0x19 0x10 /usr/local/popcorn/x86_64/lib/libstack-transform.a(properties.o)
 ** zero fill   0x0000000000514919       0x13
 ** zero fill   0x000000000051492c        0x4
 .text.callee_reg_size_x86_64
                0x0000000000514930       0x38 0x10 /usr/local/popcorn/x86_64/lib/libstack-transform.a(properties.o)
 ** zero fill   0x0000000000514968       0x1c
 ** zero fill   0x0000000000514984        0xc
 .text.regset_default_x86_64
                0x0000000000514990       0x15 0x10 /usr/local/popcorn/x86_64/lib/libstack-transform.a(regs.o)
 ** zero fill   0x00000000005149a5       0x17
 ** zero fill   0x00000000005149bc        0x4
 .text.regset_init_x86_64
                0x00000000005149c0       0x33 0x10 /usr/local/popcorn/x86_64/lib/libstack-transform.a(regs.o)
 ** zero fill   0x00000000005149f3        0xd
 .text.regset_free_x86_64
                0x0000000000514a00        0x5 0x10 /usr/local/popcorn/x86_64/lib/libstack-transform.a(regs.o)
 ** zero fill   0x0000000000514a05        0xb
 .text.regset_clone_x86_64
                0x0000000000514a10       0x13 0x10 /usr/local/popcorn/x86_64/lib/libstack-transform.a(regs.o)
 ** zero fill   0x0000000000514a23        0x1
 ** zero fill   0x0000000000514a24        0xc
 .text.regset_copyin_x86_64
                0x0000000000514a30       0x11 0x10 /usr/local/popcorn/x86_64/lib/libstack-transform.a(regs.o)
 ** zero fill   0x0000000000514a41        0xf
 .text.regset_copyout_x86_64
                0x0000000000514a50       0x14 0x10 /usr/local/popcorn/x86_64/lib/libstack-transform.a(regs.o)
 ** zero fill   0x0000000000514a64        0xc
 .text.pc_x86_64
                0x0000000000514a70        0x5 0x10 /usr/local/popcorn/x86_64/lib/libstack-transform.a(regs.o)
 ** zero fill   0x0000000000514a75        0x3
 ** zero fill   0x0000000000514a78        0x8
 .text.sp_x86_64
                0x0000000000514a80        0x5 0x10 /usr/local/popcorn/x86_64/lib/libstack-transform.a(regs.o)
 ** zero fill   0x0000000000514a85        0x3
 ** zero fill   0x0000000000514a88        0x8
 .text.fbp_x86_64
                0x0000000000514a90        0x5 0x10 /usr/local/popcorn/x86_64/lib/libstack-transform.a(regs.o)
 ** zero fill   0x0000000000514a95        0x3
 ** zero fill   0x0000000000514a98        0x8
 .text.ra_reg_x86_64
                0x0000000000514aa0       0x26 0x10 /usr/local/popcorn/x86_64/lib/libstack-transform.a(regs.o)
 ** zero fill   0x0000000000514ac6        0x6
 ** zero fill   0x0000000000514acc        0x4
 .text.set_pc_x86_64
                0x0000000000514ad0        0x5 0x10 /usr/local/popcorn/x86_64/lib/libstack-transform.a(regs.o)
 ** zero fill   0x0000000000514ad5        0x3
 ** zero fill   0x0000000000514ad8        0x8
 .text.set_sp_x86_64
                0x0000000000514ae0        0x5 0x10 /usr/local/popcorn/x86_64/lib/libstack-transform.a(regs.o)
 ** zero fill   0x0000000000514ae5        0x3
 ** zero fill   0x0000000000514ae8        0x8
 .text.set_fbp_x86_64
                0x0000000000514af0        0x5 0x10 /usr/local/popcorn/x86_64/lib/libstack-transform.a(regs.o)
 ** zero fill   0x0000000000514af5        0x3
 ** zero fill   0x0000000000514af8        0x8
 .text.set_ra_reg_x86_64
                0x0000000000514b00       0x26 0x10 /usr/local/popcorn/x86_64/lib/libstack-transform.a(regs.o)
 ** zero fill   0x0000000000514b26        0x6
 ** zero fill   0x0000000000514b2c        0x4
 .text.setup_fbp_x86_64
                0x0000000000514b30        0x9 0x10 /usr/local/popcorn/x86_64/lib/libstack-transform.a(regs.o)
 ** zero fill   0x0000000000514b39        0x3
 ** zero fill   0x0000000000514b3c        0x4
 .text.reg_size_x86_64
                0x0000000000514b40       0x33 0x10 /usr/local/popcorn/x86_64/lib/libstack-transform.a(regs.o)
 ** zero fill   0x0000000000514b73       0x1d
 .text.reg_x86_64
                0x0000000000514b90      0x163 0x10 /usr/local/popcorn/x86_64/lib/libstack-transform.a(regs.o)
 ** zero fill   0x0000000000514cf3       0x6d
 .text.put_val  0x0000000000514d60      0x20d 0x10 /usr/local/popcorn/x86_64/lib/libstack-transform.a(data.o)
                0x0000000000514d60                put_val
 ** zero fill   0x0000000000514f6d       0x47
 ** zero fill   0x0000000000514fb4        0xc
 .text.get_dest_loc
                0x0000000000514fc0       0xab 0x10 /usr/local/popcorn/x86_64/lib/libstack-transform.a(data.o)
 ** zero fill   0x000000000051506b       0x31
 ** zero fill   0x000000000051509c        0x4
 .text.put_val_arch
                0x00000000005150a0      0x384 0x10 /usr/local/popcorn/x86_64/lib/libstack-transform.a(data.o)
                0x00000000005150a0                put_val_arch
 ** zero fill   0x0000000000515424       0x84
 ** zero fill   0x00000000005154a8        0x8
 .text.put_val_data
                0x00000000005154b0       0xeb 0x10 /usr/local/popcorn/x86_64/lib/libstack-transform.a(data.o)
                0x00000000005154b0                put_val_data
 ** zero fill   0x000000000051559b       0x29
 ** zero fill   0x00000000005155c4        0xc
 .text.points_to_stack
                0x00000000005155d0       0xde 0x10 /usr/local/popcorn/x86_64/lib/libstack-transform.a(data.o)
                0x00000000005155d0                points_to_stack
 ** zero fill   0x00000000005156ae       0x3a
 ** zero fill   0x00000000005156e8        0x8
 .text.points_to_data
                0x00000000005156f0      0x146 0x10 /usr/local/popcorn/x86_64/lib/libstack-transform.a(data.o)
                0x00000000005156f0                points_to_data
 ** zero fill   0x0000000000515836       0x4a
 .text.set_return_address
                0x0000000000515880       0x1d 0x10 /usr/local/popcorn/x86_64/lib/libstack-transform.a(data.o)
                0x0000000000515880                set_return_address
 ** zero fill   0x000000000051589d        0x7
 ** zero fill   0x00000000005158a4        0xc
 .text.set_return_address_funcentry
                0x00000000005158b0       0x39 0x10 /usr/local/popcorn/x86_64/lib/libstack-transform.a(data.o)
                0x00000000005158b0                set_return_address_funcentry
 ** zero fill   0x00000000005158e9        0xb
 ** zero fill   0x00000000005158f4        0xc
 .text.get_savedfbp_loc
                0x0000000000515900       0x6b 0x10 /usr/local/popcorn/x86_64/lib/libstack-transform.a(data.o)
                0x0000000000515900                get_savedfbp_loc
 ** zero fill   0x000000000051596b       0x25
 .text.elf_begin
                0x0000000000515990      0xa21 0x10 /usr/local/popcorn/x86_64/lib/libelf.a(begin.o)
                0x0000000000515990                elf_begin
 ** zero fill   0x00000000005163b1       0xaf
 .text._elf_check_type
                0x0000000000516460      0x26e 0x10 /usr/local/popcorn/x86_64/lib/libelf.a(begin.o)
 ** zero fill   0x00000000005166ce        0x2
 .text.elf_memory
                0x00000000005166d0       0x8a 0x10 /usr/local/popcorn/x86_64/lib/libelf.a(begin.o)
                0x00000000005166d0                elf_memory
 ** zero fill   0x000000000051675a       0x1e
 ** zero fill   0x0000000000516778        0x8
 .text.gelf_getclass
                0x0000000000516780       0x1c 0x10 /usr/local/popcorn/x86_64/lib/libelf.a(begin.o)
                0x0000000000516780                gelf_getclass
 ** zero fill   0x000000000051679c        0xc
 ** zero fill   0x00000000005167a8        0x8
 .text.elf_end  0x00000000005167b0      0x1bc 0x10 /usr/local/popcorn/x86_64/lib/libelf.a(end.o)
                0x00000000005167b0                elf_end
 ** zero fill   0x000000000051696c        0x4
 .text.elf_getdata
                0x0000000000516970      0x25e 0x10 /usr/local/popcorn/x86_64/lib/libelf.a(getdata.o)
                0x0000000000516970                elf_getdata
 ** zero fill   0x0000000000516bce       0x22
 .text.elf_getident
                0x0000000000516bf0       0x63 0x10 /usr/local/popcorn/x86_64/lib/libelf.a(getident.o)
                0x0000000000516bf0                elf_getident
 ** zero fill   0x0000000000516c53       0x19
 ** zero fill   0x0000000000516c6c        0x4
 .text.elf_nextscn
                0x0000000000516c70       0x80 0x10 /usr/local/popcorn/x86_64/lib/libelf.a(nextscn.o)
                0x0000000000516c70                elf_nextscn
 ** zero fill   0x0000000000516cf0       0x34
 ** zero fill   0x0000000000516d24        0xc
 .text.elf_strptr
                0x0000000000516d30      0x17a 0x10 /usr/local/popcorn/x86_64/lib/libelf.a(strptr.o)
                0x0000000000516d30                elf_strptr
 ** zero fill   0x0000000000516eaa       0x36
 .text.elf_version
                0x0000000000516ee0       0x5c 0x10 /usr/local/popcorn/x86_64/lib/libelf.a(version.o)
                0x0000000000516ee0                elf_version
 ** zero fill   0x0000000000516f3c       0x24
 .text._elf_getehdr
                0x0000000000516f60       0x5a 0x10 /usr/local/popcorn/x86_64/lib/libelf.a(32.getehdr.o)
                0x0000000000516f60                _elf_getehdr
 ** zero fill   0x0000000000516fba       0x2e
 ** zero fill   0x0000000000516fe8        0x8
 .text.elf32_getehdr
                0x0000000000516ff0       0x5b 0x10 /usr/local/popcorn/x86_64/lib/libelf.a(32.getehdr.o)
                0x0000000000516ff0                elf32_getehdr
 ** zero fill   0x000000000051704b       0x2d
 ** zero fill   0x0000000000517078        0x8
 .text.elf64_getehdr
                0x0000000000517080       0x5b 0x10 /usr/local/popcorn/x86_64/lib/libelf.a(32.getehdr.o)
                0x0000000000517080                elf64_getehdr
 ** zero fill   0x00000000005170db       0x2d
 ** zero fill   0x0000000000517108        0x8
 .text._elf32_xltsize
                0x0000000000517110       0x88 0x10 /usr/local/popcorn/x86_64/lib/libelf.a(32.xlatetof.o)
                0x0000000000517110                _elf32_xltsize
 ** zero fill   0x0000000000517198       0x10
 ** zero fill   0x00000000005171a8        0x8
 .text.elf32_xlatetom
                0x00000000005171b0      0x104 0x10 /usr/local/popcorn/x86_64/lib/libelf.a(32.xlatetof.o)
                0x00000000005171b0                elf32_xlatetom
 ** zero fill   0x00000000005172b4       0x54
 ** zero fill   0x0000000000517308        0x8
 .text.elf32_xlatetof
                0x0000000000517310      0x104 0x10 /usr/local/popcorn/x86_64/lib/libelf.a(32.xlatetof.o)
                0x0000000000517310                elf32_xlatetof
 ** zero fill   0x0000000000517414       0x54
 ** zero fill   0x0000000000517468        0x8
 .text.byte_copy
                0x0000000000517470       0x20 0x10 /usr/local/popcorn/x86_64/lib/libelf.a(32.xlatetof.o)
 ** zero fill   0x0000000000517490      0x164
 ** zero fill   0x00000000005175f4        0xc
 .text.addr_32L__tom
                0x0000000000517600      0x1a3 0x10 /usr/local/popcorn/x86_64/lib/libelf.a(32.xlatetof.o)
 ** zero fill   0x00000000005177a3        0xd
 .text.addr_32L__tof
                0x00000000005177b0       0xa1 0x10 /usr/local/popcorn/x86_64/lib/libelf.a(32.xlatetof.o)
 ** zero fill   0x0000000000517851        0xf
 .text.dyn_32L11_tom
                0x0000000000517860       0x77 0x10 /usr/local/popcorn/x86_64/lib/libelf.a(32.xlatetof.o)
 ** zero fill   0x00000000005178d7        0x9
 .text.dyn_32L11_tof
                0x00000000005178e0       0x63 0x10 /usr/local/popcorn/x86_64/lib/libelf.a(32.xlatetof.o)
 ** zero fill   0x0000000000517943       0x11
 ** zero fill   0x0000000000517954        0xc
 .text.ehdr_32L11_tom
                0x0000000000517960      0x18b 0x10 /usr/local/popcorn/x86_64/lib/libelf.a(32.xlatetof.o)
 ** zero fill   0x0000000000517aeb       0x21
 ** zero fill   0x0000000000517b0c        0x4
 .text.ehdr_32L11_tof
                0x0000000000517b10      0x131 0x10 /usr/local/popcorn/x86_64/lib/libelf.a(32.xlatetof.o)
 ** zero fill   0x0000000000517c41       0x7b
 ** zero fill   0x0000000000517cbc        0x4
 .text.half_32L__tom
                0x0000000000517cc0      0x1b4 0x10 /usr/local/popcorn/x86_64/lib/libelf.a(32.xlatetof.o)
 ** zero fill   0x0000000000517e74        0xc
 .text.half_32L__tof
                0x0000000000517e80      0x1b9 0x10 /usr/local/popcorn/x86_64/lib/libelf.a(32.xlatetof.o)
 ** zero fill   0x0000000000518039        0x7
 .text.off_32L__tom
                0x0000000000518040      0x1a3 0x10 /usr/local/popcorn/x86_64/lib/libelf.a(32.xlatetof.o)
 ** zero fill   0x00000000005181e3        0xd
 .text.off_32L__tof
                0x00000000005181f0       0xa1 0x10 /usr/local/popcorn/x86_64/lib/libelf.a(32.xlatetof.o)
 ** zero fill   0x0000000000518291        0xf
 .text.phdr_32L11_tom
                0x00000000005182a0      0x147 0x10 /usr/local/popcorn/x86_64/lib/libelf.a(32.xlatetof.o)
 ** zero fill   0x00000000005183e7        0x5
 ** zero fill   0x00000000005183ec        0x4
 .text.phdr_32L11_tof
                0x00000000005183f0       0xf7 0x10 /usr/local/popcorn/x86_64/lib/libelf.a(32.xlatetof.o)
 ** zero fill   0x00000000005184e7       0x55
 ** zero fill   0x000000000051853c        0x4
 .text.rela_32L11_tom
                0x0000000000518540       0xbd 0x10 /usr/local/popcorn/x86_64/lib/libelf.a(32.xlatetof.o)
 ** zero fill   0x00000000005185fd        0x3
 .text.rela_32L11_tof
                0x0000000000518600       0x8f 0x10 /usr/local/popcorn/x86_64/lib/libelf.a(32.xlatetof.o)
 ** zero fill   0x000000000051868f       0x21
 .text.rel_32L11_tom
                0x00000000005186b0       0x77 0x10 /usr/local/popcorn/x86_64/lib/libelf.a(32.xlatetof.o)
 ** zero fill   0x0000000000518727        0x9
 .text.rel_32L11_tof
                0x0000000000518730       0x63 0x10 /usr/local/popcorn/x86_64/lib/libelf.a(32.xlatetof.o)
 ** zero fill   0x0000000000518793       0x11
 ** zero fill   0x00000000005187a4        0xc
 .text.shdr_32L11_tom
                0x00000000005187b0      0x1af 0x10 /usr/local/popcorn/x86_64/lib/libelf.a(32.xlatetof.o)
 ** zero fill   0x000000000051895f        0x1
 .text.shdr_32L11_tof
                0x0000000000518960      0x13b 0x10 /usr/local/popcorn/x86_64/lib/libelf.a(32.xlatetof.o)
 ** zero fill   0x0000000000518a9b       0x71
 ** zero fill   0x0000000000518b0c        0x4
 .text.sword_32L__tom
                0x0000000000518b10      0x1a3 0x10 /usr/local/popcorn/x86_64/lib/libelf.a(32.xlatetof.o)
 ** zero fill   0x0000000000518cb3        0xd
 .text.sword_32L__tof
                0x0000000000518cc0       0xa1 0x10 /usr/local/popcorn/x86_64/lib/libelf.a(32.xlatetof.o)
 ** zero fill   0x0000000000518d61        0xf
 .text.sym_32L11_tom
                0x0000000000518d70       0xba 0x10 /usr/local/popcorn/x86_64/lib/libelf.a(32.xlatetof.o)
 ** zero fill   0x0000000000518e2a        0x6
 .text.sym_32L11_tof
                0x0000000000518e30       0x93 0x10 /usr/local/popcorn/x86_64/lib/libelf.a(32.xlatetof.o)
 ** zero fill   0x0000000000518ec3       0x25
 ** zero fill   0x0000000000518ee8        0x8
 .text.word_32L__tom
                0x0000000000518ef0      0x1a3 0x10 /usr/local/popcorn/x86_64/lib/libelf.a(32.xlatetof.o)
 ** zero fill   0x0000000000519093        0xd
 .text.word_32L__tof
                0x00000000005190a0       0xa1 0x10 /usr/local/popcorn/x86_64/lib/libelf.a(32.xlatetof.o)
 ** zero fill   0x0000000000519141        0xf
 .text.addr_32M__tom
                0x0000000000519150      0x193 0x10 /usr/local/popcorn/x86_64/lib/libelf.a(32.xlatetof.o)
 ** zero fill   0x00000000005192e3        0xd
 .text.addr_32M__tof
                0x00000000005192f0       0x91 0x10 /usr/local/popcorn/x86_64/lib/libelf.a(32.xlatetof.o)
 ** zero fill   0x0000000000519381        0xf
 .text.dyn_32M11_tom
                0x0000000000519390       0x77 0x10 /usr/local/popcorn/x86_64/lib/libelf.a(32.xlatetof.o)
 ** zero fill   0x0000000000519407        0x9
 .text.dyn_32M11_tof
                0x0000000000519410       0x63 0x10 /usr/local/popcorn/x86_64/lib/libelf.a(32.xlatetof.o)
 ** zero fill   0x0000000000519473        0xd
 .text.ehdr_32M11_tom
                0x0000000000519480      0x18b 0x10 /usr/local/popcorn/x86_64/lib/libelf.a(32.xlatetof.o)
 ** zero fill   0x000000000051960b       0x21
 ** zero fill   0x000000000051962c        0x4
 .text.ehdr_32M11_tof
                0x0000000000519630      0x131 0x10 /usr/local/popcorn/x86_64/lib/libelf.a(32.xlatetof.o)
 ** zero fill   0x0000000000519761       0x7b
 ** zero fill   0x00000000005197dc        0x4
 .text.half_32M__tom
                0x00000000005197e0      0x1b4 0x10 /usr/local/popcorn/x86_64/lib/libelf.a(32.xlatetof.o)
 ** zero fill   0x0000000000519994        0xc
 .text.half_32M__tof
                0x00000000005199a0      0x1b9 0x10 /usr/local/popcorn/x86_64/lib/libelf.a(32.xlatetof.o)
 ** zero fill   0x0000000000519b59        0x7
 .text.off_32M__tom
                0x0000000000519b60      0x193 0x10 /usr/local/popcorn/x86_64/lib/libelf.a(32.xlatetof.o)
 ** zero fill   0x0000000000519cf3        0xd
 .text.off_32M__tof
                0x0000000000519d00       0x91 0x10 /usr/local/popcorn/x86_64/lib/libelf.a(32.xlatetof.o)
 ** zero fill   0x0000000000519d91        0xf
 .text.phdr_32M11_tom
                0x0000000000519da0      0x147 0x10 /usr/local/popcorn/x86_64/lib/libelf.a(32.xlatetof.o)
 ** zero fill   0x0000000000519ee7        0x1
 ** zero fill   0x0000000000519ee8        0x8
 .text.phdr_32M11_tof
                0x0000000000519ef0       0xf7 0x10 /usr/local/popcorn/x86_64/lib/libelf.a(32.xlatetof.o)
 ** zero fill   0x0000000000519fe7       0x51
 ** zero fill   0x000000000051a038        0x8
 .text.rela_32M11_tom
                0x000000000051a040       0xad 0x10 /usr/local/popcorn/x86_64/lib/libelf.a(32.xlatetof.o)
 ** zero fill   0x000000000051a0ed        0x3
 .text.rela_32M11_tof
                0x000000000051a0f0       0x8f 0x10 /usr/local/popcorn/x86_64/lib/libelf.a(32.xlatetof.o)
 ** zero fill   0x000000000051a17f       0x1d
 ** zero fill   0x000000000051a19c        0x4
 .text.rel_32M11_tom
                0x000000000051a1a0       0x77 0x10 /usr/local/popcorn/x86_64/lib/libelf.a(32.xlatetof.o)
 ** zero fill   0x000000000051a217        0x9
 .text.rel_32M11_tof
                0x000000000051a220       0x63 0x10 /usr/local/popcorn/x86_64/lib/libelf.a(32.xlatetof.o)
 ** zero fill   0x000000000051a283        0xd
 .text.shdr_32M11_tom
                0x000000000051a290      0x19f 0x10 /usr/local/popcorn/x86_64/lib/libelf.a(32.xlatetof.o)
 ** zero fill   0x000000000051a42f        0x9
 ** zero fill   0x000000000051a438        0x8
 .text.shdr_32M11_tof
                0x000000000051a440      0x13b 0x10 /usr/local/popcorn/x86_64/lib/libelf.a(32.xlatetof.o)
 ** zero fill   0x000000000051a57b       0x6d
 ** zero fill   0x000000000051a5e8        0x8
 .text.sword_32M__tom
                0x000000000051a5f0      0x193 0x10 /usr/local/popcorn/x86_64/lib/libelf.a(32.xlatetof.o)
 ** zero fill   0x000000000051a783        0xd
 .text.sword_32M__tof
                0x000000000051a790       0x91 0x10 /usr/local/popcorn/x86_64/lib/libelf.a(32.xlatetof.o)
 ** zero fill   0x000000000051a821        0xf
 .text.sym_32M11_tom
                0x000000000051a830       0xba 0x10 /usr/local/popcorn/x86_64/lib/libelf.a(32.xlatetof.o)
 ** zero fill   0x000000000051a8ea        0x6
 .text.sym_32M11_tof
                0x000000000051a8f0       0x93 0x10 /usr/local/popcorn/x86_64/lib/libelf.a(32.xlatetof.o)
 ** zero fill   0x000000000051a983       0x21
 ** zero fill   0x000000000051a9a4        0xc
 .text.word_32M__tom
                0x000000000051a9b0      0x193 0x10 /usr/local/popcorn/x86_64/lib/libelf.a(32.xlatetof.o)
 ** zero fill   0x000000000051ab43        0xd
 .text.word_32M__tof
                0x000000000051ab50       0x91 0x10 /usr/local/popcorn/x86_64/lib/libelf.a(32.xlatetof.o)
 ** zero fill   0x000000000051abe1        0xf
 .text._elf_scn_type
                0x000000000051abf0       0x6d 0x10 /usr/local/popcorn/x86_64/lib/libelf.a(cook.o)
                0x000000000051abf0                _elf_scn_type
 ** zero fill   0x000000000051ac5d       0x3f
 ** zero fill   0x000000000051ac9c        0x4
 .text._elf_xlatetom
                0x000000000051aca0       0x43 0x10 /usr/local/popcorn/x86_64/lib/libelf.a(cook.o)
                0x000000000051aca0                _elf_xlatetom
 ** zero fill   0x000000000051ace3        0xd
 .text._elf_cook
                0x000000000051acf0      0x851 0x10 /usr/local/popcorn/x86_64/lib/libelf.a(cook.o)
                0x000000000051acf0                _elf_cook
 ** zero fill   0x000000000051b541        0xf
 .text._elf_item
                0x000000000051b550      0x181 0x10 /usr/local/popcorn/x86_64/lib/libelf.a(cook.o)
 ** zero fill   0x000000000051b6d1       0x1f
 .text._elf_read
                0x000000000051b6f0      0x10c 0x10 /usr/local/popcorn/x86_64/lib/libelf.a(input.o)
                0x000000000051b6f0                _elf_read
 ** zero fill   0x000000000051b7fc       0x34
 .text._elf_mmap
                0x000000000051b830       0x44 0x10 /usr/local/popcorn/x86_64/lib/libelf.a(input.o)
                0x000000000051b830                _elf_mmap
 ** zero fill   0x000000000051b874        0xc
 .text.elf_getphdrnum
                0x000000000051b880       0x54 0x10 /usr/local/popcorn/x86_64/lib/libelf.a(x.elfext.o)
                0x000000000051b880                elf_getphdrnum
 ** zero fill   0x000000000051b8d4       0x2c
 .text.elf_getshdrnum
                0x000000000051b900       0x6a 0x10 /usr/local/popcorn/x86_64/lib/libelf.a(x.elfext.o)
                0x000000000051b900                elf_getshdrnum
 ** zero fill   0x000000000051b96a       0x2a
 ** zero fill   0x000000000051b994        0xc
 .text.elf_getshdrstrndx
                0x000000000051b9a0       0xd3 0x10 /usr/local/popcorn/x86_64/lib/libelf.a(x.elfext.o)
                0x000000000051b9a0                elf_getshdrstrndx
 ** zero fill   0x000000000051ba73       0x25
 ** zero fill   0x000000000051ba98        0x8
 .text.elf_getphnum
                0x000000000051baa0       0x54 0x10 /usr/local/popcorn/x86_64/lib/libelf.a(x.elfext.o)
                0x000000000051baa0                elf_getphnum
 ** zero fill   0x000000000051baf4       0x24
 ** zero fill   0x000000000051bb18        0x8
 .text.elf_getshnum
                0x000000000051bb20       0x62 0x10 /usr/local/popcorn/x86_64/lib/libelf.a(x.elfext.o)
                0x000000000051bb20                elf_getshnum
 ** zero fill   0x000000000051bb82       0x2a
 ** zero fill   0x000000000051bbac        0x4
 .text.elf_getshstrndx
                0x000000000051bbb0       0xd3 0x10 /usr/local/popcorn/x86_64/lib/libelf.a(x.elfext.o)
                0x000000000051bbb0                elf_getshstrndx
 ** zero fill   0x000000000051bc83       0x31
 ** zero fill   0x000000000051bcb4        0xc
 .text.elfx_update_shstrndx
                0x000000000051bcc0       0xc4 0x10 /usr/local/popcorn/x86_64/lib/libelf.a(x.elfext.o)
                0x000000000051bcc0                elfx_update_shstrndx
 ** zero fill   0x000000000051bd84       0x30
 ** zero fill   0x000000000051bdb4        0xc
 .text._elf64_xltsize
                0x000000000051bdc0       0x88 0x10 /usr/local/popcorn/x86_64/lib/libelf.a(64.xlatetof.o)
                0x000000000051bdc0                _elf64_xltsize
 ** zero fill   0x000000000051be48       0x10
 ** zero fill   0x000000000051be58        0x8
 .text.elf64_xlatetom
                0x000000000051be60      0x104 0x10 /usr/local/popcorn/x86_64/lib/libelf.a(64.xlatetof.o)
                0x000000000051be60                elf64_xlatetom
 ** zero fill   0x000000000051bf64       0x54
 ** zero fill   0x000000000051bfb8        0x8
 .text.elf64_xlatetof
                0x000000000051bfc0      0x104 0x10 /usr/local/popcorn/x86_64/lib/libelf.a(64.xlatetof.o)
                0x000000000051bfc0                elf64_xlatetof
 ** zero fill   0x000000000051c0c4       0x54
 ** zero fill   0x000000000051c118        0x8
 .text.gelf_xlatetom
                0x000000000051c120      0x178 0x10 /usr/local/popcorn/x86_64/lib/libelf.a(64.xlatetof.o)
                0x000000000051c120                gelf_xlatetom
 ** zero fill   0x000000000051c298       0x3c
 ** zero fill   0x000000000051c2d4        0xc
 .text.gelf_xlatetof
                0x000000000051c2e0      0x178 0x10 /usr/local/popcorn/x86_64/lib/libelf.a(64.xlatetof.o)
                0x000000000051c2e0                gelf_xlatetof
 ** zero fill   0x000000000051c458       0x3c
 ** zero fill   0x000000000051c494        0xc
 .text.byte_copy
                0x000000000051c4a0       0x20 0x10 /usr/local/popcorn/x86_64/lib/libelf.a(64.xlatetof.o)
 ** zero fill   0x000000000051c4c0      0x164
 ** zero fill   0x000000000051c624        0xc
 .text.addr_64L__tom
                0x000000000051c630       0x5c 0x10 /usr/local/popcorn/x86_64/lib/libelf.a(64.xlatetof.o)
 ** zero fill   0x000000000051c68c        0x4
 .text.addr_64L__tof
                0x000000000051c690       0x5b 0x10 /usr/local/popcorn/x86_64/lib/libelf.a(64.xlatetof.o)
 ** zero fill   0x000000000051c6eb        0x5
 .text.dyn_64L11_tom
                0x000000000051c6f0       0x68 0x10 /usr/local/popcorn/x86_64/lib/libelf.a(64.xlatetof.o)
 ** zero fill   0x000000000051c758        0x8
 .text.dyn_64L11_tof
                0x000000000051c760       0x68 0x10 /usr/local/popcorn/x86_64/lib/libelf.a(64.xlatetof.o)
 ** zero fill   0x000000000051c7c8        0x8
 .text.ehdr_64L11_tom
                0x000000000051c7d0      0x1a2 0x10 /usr/local/popcorn/x86_64/lib/libelf.a(64.xlatetof.o)
 ** zero fill   0x000000000051c972        0xe
 .text.ehdr_64L11_tof
                0x000000000051c980      0x182 0x10 /usr/local/popcorn/x86_64/lib/libelf.a(64.xlatetof.o)
 ** zero fill   0x000000000051cb02        0xe
 .text.half_64L__tom
                0x000000000051cb10      0x1b4 0x10 /usr/local/popcorn/x86_64/lib/libelf.a(64.xlatetof.o)
 ** zero fill   0x000000000051ccc4        0xc
 .text.half_64L__tof
                0x000000000051ccd0      0x1b9 0x10 /usr/local/popcorn/x86_64/lib/libelf.a(64.xlatetof.o)
 ** zero fill   0x000000000051ce89        0x7
 .text.off_64L__tom
                0x000000000051ce90       0x5c 0x10 /usr/local/popcorn/x86_64/lib/libelf.a(64.xlatetof.o)
 ** zero fill   0x000000000051ceec        0x4
 .text.off_64L__tof
                0x000000000051cef0       0x5b 0x10 /usr/local/popcorn/x86_64/lib/libelf.a(64.xlatetof.o)
 ** zero fill   0x000000000051cf4b        0x5
 .text.phdr_64L11_tom
                0x000000000051cf50      0x11e 0x10 /usr/local/popcorn/x86_64/lib/libelf.a(64.xlatetof.o)
 ** zero fill   0x000000000051d06e        0x2
 .text.phdr_64L11_tof
                0x000000000051d070      0x116 0x10 /usr/local/popcorn/x86_64/lib/libelf.a(64.xlatetof.o)
 ** zero fill   0x000000000051d186        0xa
 .text.rela_64L11_tom
                0x000000000051d190       0x89 0x10 /usr/local/popcorn/x86_64/lib/libelf.a(64.xlatetof.o)
 ** zero fill   0x000000000051d219        0x7
 .text.rela_64L11_tof
                0x000000000051d220       0x89 0x10 /usr/local/popcorn/x86_64/lib/libelf.a(64.xlatetof.o)
 ** zero fill   0x000000000051d2a9        0x7
 .text.rel_64L11_tom
                0x000000000051d2b0       0x68 0x10 /usr/local/popcorn/x86_64/lib/libelf.a(64.xlatetof.o)
 ** zero fill   0x000000000051d318        0x8
 .text.rel_64L11_tof
                0x000000000051d320       0x68 0x10 /usr/local/popcorn/x86_64/lib/libelf.a(64.xlatetof.o)
 ** zero fill   0x000000000051d388        0x8
 .text.shdr_64L11_tom
                0x000000000051d390      0x156 0x10 /usr/local/popcorn/x86_64/lib/libelf.a(64.xlatetof.o)
 ** zero fill   0x000000000051d4e6        0xa
 .text.shdr_64L11_tof
                0x000000000051d4f0      0x146 0x10 /usr/local/popcorn/x86_64/lib/libelf.a(64.xlatetof.o)
 ** zero fill   0x000000000051d636        0xa
 .text.sword_64L__tom
                0x000000000051d640      0x1a3 0x10 /usr/local/popcorn/x86_64/lib/libelf.a(64.xlatetof.o)
 ** zero fill   0x000000000051d7e3        0xd
 .text.sword_64L__tof
                0x000000000051d7f0       0xa1 0x10 /usr/local/popcorn/x86_64/lib/libelf.a(64.xlatetof.o)
 ** zero fill   0x000000000051d891        0xf
 .text.sym_64L11_tom
                0x000000000051d8a0       0xbf 0x10 /usr/local/popcorn/x86_64/lib/libelf.a(64.xlatetof.o)
 ** zero fill   0x000000000051d95f        0x1
 .text.sym_64L11_tof
                0x000000000051d960       0xb4 0x10 /usr/local/popcorn/x86_64/lib/libelf.a(64.xlatetof.o)
 ** zero fill   0x000000000051da14        0xc
 .text.word_64L__tom
                0x000000000051da20      0x1a3 0x10 /usr/local/popcorn/x86_64/lib/libelf.a(64.xlatetof.o)
 ** zero fill   0x000000000051dbc3        0xd
 .text.word_64L__tof
                0x000000000051dbd0       0xa1 0x10 /usr/local/popcorn/x86_64/lib/libelf.a(64.xlatetof.o)
 ** zero fill   0x000000000051dc71        0xf
 .text.sxword_64L__tom
                0x000000000051dc80       0x5c 0x10 /usr/local/popcorn/x86_64/lib/libelf.a(64.xlatetof.o)
 ** zero fill   0x000000000051dcdc        0x4
 .text.sxword_64L__tof
                0x000000000051dce0       0x5b 0x10 /usr/local/popcorn/x86_64/lib/libelf.a(64.xlatetof.o)
 ** zero fill   0x000000000051dd3b        0x5
 .text.xword_64L__tom
                0x000000000051dd40       0x5c 0x10 /usr/local/popcorn/x86_64/lib/libelf.a(64.xlatetof.o)
 ** zero fill   0x000000000051dd9c        0x4
 .text.xword_64L__tof
                0x000000000051dda0       0x5b 0x10 /usr/local/popcorn/x86_64/lib/libelf.a(64.xlatetof.o)
 ** zero fill   0x000000000051ddfb        0x5
 .text.addr_64M__tom
                0x000000000051de00       0x5c 0x10 /usr/local/popcorn/x86_64/lib/libelf.a(64.xlatetof.o)
 ** zero fill   0x000000000051de5c        0x4
 .text.addr_64M__tof
                0x000000000051de60       0x5b 0x10 /usr/local/popcorn/x86_64/lib/libelf.a(64.xlatetof.o)
 ** zero fill   0x000000000051debb        0x5
 .text.dyn_64M11_tom
                0x000000000051dec0       0x68 0x10 /usr/local/popcorn/x86_64/lib/libelf.a(64.xlatetof.o)
 ** zero fill   0x000000000051df28        0x8
 .text.dyn_64M11_tof
                0x000000000051df30       0x68 0x10 /usr/local/popcorn/x86_64/lib/libelf.a(64.xlatetof.o)
 ** zero fill   0x000000000051df98        0x8
 .text.ehdr_64M11_tom
                0x000000000051dfa0      0x1a2 0x10 /usr/local/popcorn/x86_64/lib/libelf.a(64.xlatetof.o)
 ** zero fill   0x000000000051e142        0xe
 .text.ehdr_64M11_tof
                0x000000000051e150      0x182 0x10 /usr/local/popcorn/x86_64/lib/libelf.a(64.xlatetof.o)
 ** zero fill   0x000000000051e2d2        0xe
 .text.half_64M__tom
                0x000000000051e2e0      0x1b4 0x10 /usr/local/popcorn/x86_64/lib/libelf.a(64.xlatetof.o)
 ** zero fill   0x000000000051e494        0xc
 .text.half_64M__tof
                0x000000000051e4a0      0x1b9 0x10 /usr/local/popcorn/x86_64/lib/libelf.a(64.xlatetof.o)
 ** zero fill   0x000000000051e659        0x7
 .text.off_64M__tom
                0x000000000051e660       0x5c 0x10 /usr/local/popcorn/x86_64/lib/libelf.a(64.xlatetof.o)
 ** zero fill   0x000000000051e6bc        0x4
 .text.off_64M__tof
                0x000000000051e6c0       0x5b 0x10 /usr/local/popcorn/x86_64/lib/libelf.a(64.xlatetof.o)
 ** zero fill   0x000000000051e71b        0x5
 .text.phdr_64M11_tom
                0x000000000051e720       0xf6 0x10 /usr/local/popcorn/x86_64/lib/libelf.a(64.xlatetof.o)
 ** zero fill   0x000000000051e816        0x6
 ** zero fill   0x000000000051e81c        0x4
 .text.phdr_64M11_tof
                0x000000000051e820       0xe8 0x10 /usr/local/popcorn/x86_64/lib/libelf.a(64.xlatetof.o)
 ** zero fill   0x000000000051e908       0x14
 ** zero fill   0x000000000051e91c        0x4
 .text.rela_64M11_tom
                0x000000000051e920       0x89 0x10 /usr/local/popcorn/x86_64/lib/libelf.a(64.xlatetof.o)
 ** zero fill   0x000000000051e9a9        0x7
 .text.rela_64M11_tof
                0x000000000051e9b0       0x89 0x10 /usr/local/popcorn/x86_64/lib/libelf.a(64.xlatetof.o)
 ** zero fill   0x000000000051ea39        0x7
 .text.rel_64M11_tom
                0x000000000051ea40       0x68 0x10 /usr/local/popcorn/x86_64/lib/libelf.a(64.xlatetof.o)
 ** zero fill   0x000000000051eaa8        0x8
 .text.rel_64M11_tof
                0x000000000051eab0       0x68 0x10 /usr/local/popcorn/x86_64/lib/libelf.a(64.xlatetof.o)
 ** zero fill   0x000000000051eb18        0x8
 .text.shdr_64M11_tom
                0x000000000051eb20      0x12c 0x10 /usr/local/popcorn/x86_64/lib/libelf.a(64.xlatetof.o)
 ** zero fill   0x000000000051ec4c        0x4
 .text.shdr_64M11_tof
                0x000000000051ec50      0x110 0x10 /usr/local/popcorn/x86_64/lib/libelf.a(64.xlatetof.o)
 ** zero fill   0x000000000051ed60       0x14
 ** zero fill   0x000000000051ed74        0xc
 .text.sword_64M__tom
                0x000000000051ed80      0x193 0x10 /usr/local/popcorn/x86_64/lib/libelf.a(64.xlatetof.o)
 ** zero fill   0x000000000051ef13        0xd
 .text.sword_64M__tof
                0x000000000051ef20       0x91 0x10 /usr/local/popcorn/x86_64/lib/libelf.a(64.xlatetof.o)
 ** zero fill   0x000000000051efb1        0xf
 .text.sym_64M11_tom
                0x000000000051efc0       0xbf 0x10 /usr/local/popcorn/x86_64/lib/libelf.a(64.xlatetof.o)
 ** zero fill   0x000000000051f07f        0x1
 .text.sym_64M11_tof
                0x000000000051f080       0xb4 0x10 /usr/local/popcorn/x86_64/lib/libelf.a(64.xlatetof.o)
 ** zero fill   0x000000000051f134        0xc
 .text.word_64M__tom
                0x000000000051f140      0x193 0x10 /usr/local/popcorn/x86_64/lib/libelf.a(64.xlatetof.o)
 ** zero fill   0x000000000051f2d3        0xd
 .text.word_64M__tof
                0x000000000051f2e0       0x91 0x10 /usr/local/popcorn/x86_64/lib/libelf.a(64.xlatetof.o)
 ** zero fill   0x000000000051f371        0xf
 .text.sxword_64M__tom
                0x000000000051f380       0x5c 0x10 /usr/local/popcorn/x86_64/lib/libelf.a(64.xlatetof.o)
 ** zero fill   0x000000000051f3dc        0x4
 .text.sxword_64M__tof
                0x000000000051f3e0       0x5b 0x10 /usr/local/popcorn/x86_64/lib/libelf.a(64.xlatetof.o)
 ** zero fill   0x000000000051f43b        0x5
 .text.xword_64M__tom
                0x000000000051f440       0x5c 0x10 /usr/local/popcorn/x86_64/lib/libelf.a(64.xlatetof.o)
 ** zero fill   0x000000000051f49c        0x4
 .text.xword_64M__tof
                0x000000000051f4a0       0x5b 0x10 /usr/local/popcorn/x86_64/lib/libelf.a(64.xlatetof.o)
 ** zero fill   0x000000000051f4fb        0x5
 .text.gelf_getshdr
                0x000000000051f500      0x101 0x10 /usr/local/popcorn/x86_64/lib/libelf.a(gelfshdr.o)
                0x000000000051f500                gelf_getshdr
 ** zero fill   0x000000000051f601       0x17
 ** zero fill   0x000000000051f618        0x8
 .text.gelf_update_shdr
                0x000000000051f620      0x139 0x10 /usr/local/popcorn/x86_64/lib/libelf.a(gelfshdr.o)
                0x000000000051f620                gelf_update_shdr
 ** zero fill   0x000000000051f759        0x7
 .text._elf_load_u64L
                0x000000000051f760       0x4e 0x10 /usr/local/popcorn/x86_64/lib/libelf.a(swap64.o)
                0x000000000051f760                _elf_load_u64L
 ** zero fill   0x000000000051f7ae        0x2
 .text._elf_load_u64M
                0x000000000051f7b0       0x4e 0x10 /usr/local/popcorn/x86_64/lib/libelf.a(swap64.o)
                0x000000000051f7b0                _elf_load_u64M
 ** zero fill   0x000000000051f7fe        0x2
 .text._elf_load_i64L
                0x000000000051f800       0x4e 0x10 /usr/local/popcorn/x86_64/lib/libelf.a(swap64.o)
                0x000000000051f800                _elf_load_i64L
 ** zero fill   0x000000000051f84e        0x2
 .text._elf_load_i64M
                0x000000000051f850       0x4e 0x10 /usr/local/popcorn/x86_64/lib/libelf.a(swap64.o)
                0x000000000051f850                _elf_load_i64M
 ** zero fill   0x000000000051f89e        0x2
 .text._elf_store_u64L
                0x000000000051f8a0       0x3e 0x10 /usr/local/popcorn/x86_64/lib/libelf.a(swap64.o)
                0x000000000051f8a0                _elf_store_u64L
 ** zero fill   0x000000000051f8de        0x2
 .text._elf_store_u64M
                0x000000000051f8e0       0x3e 0x10 /usr/local/popcorn/x86_64/lib/libelf.a(swap64.o)
                0x000000000051f8e0                _elf_store_u64M
 ** zero fill   0x000000000051f91e        0x2
 .text._elf_store_i64L
                0x000000000051f920       0x3e 0x10 /usr/local/popcorn/x86_64/lib/libelf.a(swap64.o)
                0x000000000051f920                _elf_store_i64L
 ** zero fill   0x000000000051f95e        0x2
 .text._elf_store_i64M
                0x000000000051f960       0x3e 0x10 /usr/local/popcorn/x86_64/lib/libelf.a(swap64.o)
                0x000000000051f960                _elf_store_i64M
 ** zero fill   0x000000000051f99e        0x2
 .text._elf_verdef_32L11_tof
                0x000000000051f9a0        0xa 0x10 /usr/local/popcorn/x86_64/lib/libelf.a(verdef_32_tof.o)
                0x000000000051f9a0                _elf_verdef_32L11_tof
 ** zero fill   0x000000000051f9aa        0x6
 .text.xlt_verdef
                0x000000000051f9b0      0x2fd 0x10 /usr/local/popcorn/x86_64/lib/libelf.a(verdef_32_tof.o)
 ** zero fill   0x000000000051fcad        0x3
 .text._elf_verdef_32M11_tof
                0x000000000051fcb0        0xa 0x10 /usr/local/popcorn/x86_64/lib/libelf.a(verdef_32_tof.o)
                0x000000000051fcb0                _elf_verdef_32M11_tof
 ** zero fill   0x000000000051fcba        0x6
 .text._elf_verneed_32L11_tof
                0x000000000051fcc0        0xa 0x10 /usr/local/popcorn/x86_64/lib/libelf.a(verdef_32_tof.o)
                0x000000000051fcc0                _elf_verneed_32L11_tof
 ** zero fill   0x000000000051fcca        0x6
 .text.xlt_verneed
                0x000000000051fcd0      0x351 0x10 /usr/local/popcorn/x86_64/lib/libelf.a(verdef_32_tof.o)
 ** zero fill   0x0000000000520021        0xf
 .text._elf_verneed_32M11_tof
                0x0000000000520030        0xa 0x10 /usr/local/popcorn/x86_64/lib/libelf.a(verdef_32_tof.o)
                0x0000000000520030                _elf_verneed_32M11_tof
 ** zero fill   0x000000000052003a        0x6
 .text._elf_verdef_32L11_tom
                0x0000000000520040        0xa 0x10 /usr/local/popcorn/x86_64/lib/libelf.a(verdef_32_tom.o)
                0x0000000000520040                _elf_verdef_32L11_tom
 ** zero fill   0x000000000052004a        0x6
 .text.xlt_verdef
                0x0000000000520050      0x41f 0x10 /usr/local/popcorn/x86_64/lib/libelf.a(verdef_32_tom.o)
 ** zero fill   0x000000000052046f        0x1
 .text._elf_verdef_32M11_tom
                0x0000000000520470        0xa 0x10 /usr/local/popcorn/x86_64/lib/libelf.a(verdef_32_tom.o)
                0x0000000000520470                _elf_verdef_32M11_tom
 ** zero fill   0x000000000052047a        0x6
 .text._elf_verneed_32L11_tom
                0x0000000000520480        0xa 0x10 /usr/local/popcorn/x86_64/lib/libelf.a(verdef_32_tom.o)
                0x0000000000520480                _elf_verneed_32L11_tom
 ** zero fill   0x000000000052048a        0x6
 .text.xlt_verneed
                0x0000000000520490      0x3a1 0x10 /usr/local/popcorn/x86_64/lib/libelf.a(verdef_32_tom.o)
 ** zero fill   0x0000000000520831        0xf
 .text._elf_verneed_32M11_tom
                0x0000000000520840        0xa 0x10 /usr/local/popcorn/x86_64/lib/libelf.a(verdef_32_tom.o)
                0x0000000000520840                _elf_verneed_32M11_tom
 ** zero fill   0x000000000052084a        0x6
 .text._elf_verdef_64L11_tof
                0x0000000000520850        0xa 0x10 /usr/local/popcorn/x86_64/lib/libelf.a(verdef_64_tof.o)
                0x0000000000520850                _elf_verdef_64L11_tof
 ** zero fill   0x000000000052085a        0x6
 .text.xlt_verdef
                0x0000000000520860      0x2fd 0x10 /usr/local/popcorn/x86_64/lib/libelf.a(verdef_64_tof.o)
 ** zero fill   0x0000000000520b5d        0x3
 .text._elf_verdef_64M11_tof
                0x0000000000520b60        0xa 0x10 /usr/local/popcorn/x86_64/lib/libelf.a(verdef_64_tof.o)
                0x0000000000520b60                _elf_verdef_64M11_tof
 ** zero fill   0x0000000000520b6a        0x6
 .text._elf_verneed_64L11_tof
                0x0000000000520b70        0xa 0x10 /usr/local/popcorn/x86_64/lib/libelf.a(verdef_64_tof.o)
                0x0000000000520b70                _elf_verneed_64L11_tof
 ** zero fill   0x0000000000520b7a        0x6
 .text.xlt_verneed
                0x0000000000520b80      0x351 0x10 /usr/local/popcorn/x86_64/lib/libelf.a(verdef_64_tof.o)
 ** zero fill   0x0000000000520ed1        0xf
 .text._elf_verneed_64M11_tof
                0x0000000000520ee0        0xa 0x10 /usr/local/popcorn/x86_64/lib/libelf.a(verdef_64_tof.o)
                0x0000000000520ee0                _elf_verneed_64M11_tof
 ** zero fill   0x0000000000520eea        0x6
 .text._elf_verdef_64L11_tom
                0x0000000000520ef0        0xa 0x10 /usr/local/popcorn/x86_64/lib/libelf.a(verdef_64_tom.o)
                0x0000000000520ef0                _elf_verdef_64L11_tom
 ** zero fill   0x0000000000520efa        0x6
 .text.xlt_verdef
                0x0000000000520f00      0x41f 0x10 /usr/local/popcorn/x86_64/lib/libelf.a(verdef_64_tom.o)
 ** zero fill   0x000000000052131f        0x1
 .text._elf_verdef_64M11_tom
                0x0000000000521320        0xa 0x10 /usr/local/popcorn/x86_64/lib/libelf.a(verdef_64_tom.o)
                0x0000000000521320                _elf_verdef_64M11_tom
 ** zero fill   0x000000000052132a        0x6
 .text._elf_verneed_64L11_tom
                0x0000000000521330        0xa 0x10 /usr/local/popcorn/x86_64/lib/libelf.a(verdef_64_tom.o)
                0x0000000000521330                _elf_verneed_64L11_tom
 ** zero fill   0x000000000052133a        0x6
 .text.xlt_verneed
                0x0000000000521340      0x3a1 0x10 /usr/local/popcorn/x86_64/lib/libelf.a(verdef_64_tom.o)
 ** zero fill   0x00000000005216e1        0xf
 .text._elf_verneed_64M11_tom
                0x00000000005216f0        0xa 0x10 /usr/local/popcorn/x86_64/lib/libelf.a(verdef_64_tom.o)
                0x00000000005216f0                _elf_verneed_64M11_tom
 ** zero fill   0x00000000005216fa        0x6
 .text.elf_getscn
                0x0000000000521700       0x70 0x10 /usr/local/popcorn/x86_64/lib/libelf.a(getscn.o)
                0x0000000000521700                elf_getscn
 ** zero fill   0x0000000000521770       0x20
 .text._elf_update_shnum
                0x0000000000521790       0x68 0x10 /usr/local/popcorn/x86_64/lib/libelf.a(newscn.o)
                0x0000000000521790                _elf_update_shnum
 ** zero fill   0x00000000005217f8       0x10
 ** zero fill   0x0000000000521808        0x8
 .text._elf_first_scn
                0x0000000000521810       0xed 0x10 /usr/local/popcorn/x86_64/lib/libelf.a(newscn.o)
                0x0000000000521810                _elf_first_scn
 ** zero fill   0x00000000005218fd        0x7
 ** zero fill   0x0000000000521904        0xc
 .text.elf_newscn
                0x0000000000521910      0x249 0x10 /usr/local/popcorn/x86_64/lib/libelf.a(newscn.o)
                0x0000000000521910                elf_newscn
 ** zero fill   0x0000000000521b59        0x7
 .text.elf32_fsize
                0x0000000000521b60       0x39 0x10 /usr/local/popcorn/x86_64/lib/libelf.a(32.fsize.o)
                0x0000000000521b60                elf32_fsize
 ** zero fill   0x0000000000521b99       0x13
 ** zero fill   0x0000000000521bac        0x4
 .text.elf64_fsize
                0x0000000000521bb0       0x39 0x10 /usr/local/popcorn/x86_64/lib/libelf.a(32.fsize.o)
                0x0000000000521bb0                elf64_fsize
 ** zero fill   0x0000000000521be9       0x13
 ** zero fill   0x0000000000521bfc        0x4
 .text.gelf_fsize
                0x0000000000521c00       0x76 0x10 /usr/local/popcorn/x86_64/lib/libelf.a(32.fsize.o)
                0x0000000000521c00                gelf_fsize
 ** zero fill   0x0000000000521c76       0x32
 ** zero fill   0x0000000000521ca8        0x8
 .text.gelf_msize
                0x0000000000521cb0       0x79 0x10 /usr/local/popcorn/x86_64/lib/libelf.a(32.fsize.o)
                0x0000000000521cb0                gelf_msize
 ** zero fill   0x0000000000521d29       0x3b
 .text.__crash_aarch64
                0x0000000000521d64        0x3 0x1 /usr/local/popcorn/x86_64/lib/libc.a(arch_crash.o)
                0x0000000000521d64                __crash_aarch64
                0x0000000000521d64                crash_aarch64
 ** zero fill   0x0000000000521d67       0x2d
 .text.__crash_powerpc64
                0x0000000000521d94        0x3 0x1 /usr/local/popcorn/x86_64/lib/libc.a(arch_crash.o)
                0x0000000000521d94                __crash_powerpc64
                0x0000000000521d94                crash_powerpc64
 ** zero fill   0x0000000000521d97        0x5
 .text.__crash_x86_64
                0x0000000000521d9c       0x18 0x1 /usr/local/popcorn/x86_64/lib/libc.a(arch_crash.o)
                0x0000000000521d9c                __crash_x86_64
                0x0000000000521d9c                crash_x86_64
 .text.__crash  0x0000000000521db4       0x18 0x1 /usr/local/popcorn/x86_64/lib/libc.a(arch_crash.o)
                0x0000000000521db4                __crash
                0x0000000000521db4                crash
 ** zero fill   0x0000000000521dcc       0x18
 .text.__assert_fail
                0x0000000000521de4       0x2c 0x1 /usr/local/popcorn/x86_64/lib/libc.a(assert.o)
                0x0000000000521de4                __assert_fail
 ** zero fill   0x0000000000521e10       0x20
 .text.getrlimit
                0x0000000000521e30       0xad 0x1 /usr/local/popcorn/x86_64/lib/libc.a(getrlimit.o)
                0x0000000000521e30                getrlimit
                0x0000000000521e30                getrlimit64
 ** zero fill   0x0000000000521edd       0x4b
 .text.syscall  0x0000000000521f28      0x1ef 0x1 /usr/local/popcorn/x86_64/lib/libc.a(syscall.o)
                0x0000000000521f28                syscall
 ** zero fill   0x0000000000522117        0x1
 .text.dummy    0x0000000000522118        0x1 0x1 /usr/local/popcorn/x86_64/lib/libc.a(fclose.o)
                0x0000000000522118                __unlist_locked_file
 ** zero fill   0x0000000000522119        0x3
 .text.fclose   0x000000000052211c       0xb4 0x1 /usr/local/popcorn/x86_64/lib/libc.a(fclose.o)
                0x000000000052211c                fclose
 ** zero fill   0x00000000005221d0       0x24
 .text.fflush   0x00000000005221f4      0x10d 0x1 /usr/local/popcorn/x86_64/lib/libc.a(fflush.o)
                0x00000000005221f4                fflush
                0x00000000005221f4                fflush_unlocked
 ** zero fill   0x0000000000522301       0x47
 .text.fopen    0x0000000000522348       0x94 0x1 /usr/local/popcorn/x86_64/lib/libc.a(fopen.o)
                0x0000000000522348                fopen
                0x0000000000522348                fopen64
 ** zero fill   0x00000000005223dc       0x2c
 .text.fprintf  0x0000000000522408       0x97 0x1 /usr/local/popcorn/x86_64/lib/libc.a(fprintf.o)
                0x0000000000522408                fprintf
 ** zero fill   0x000000000052249f        0x1
 .text.fscanf   0x00000000005224a0       0x97 0x1 /usr/local/popcorn/x86_64/lib/libc.a(fscanf.o)
                0x00000000005224a0                __isoc99_fscanf
                0x00000000005224a0                fscanf
 ** zero fill   0x0000000000522537        0x1
 .text.__fseeko_unlocked
                0x0000000000522538       0x83 0x1 /usr/local/popcorn/x86_64/lib/libc.a(fseek.o)
                0x0000000000522538                __fseeko_unlocked
 ** zero fill   0x00000000005225bb       0x3d
 .text.__fseeko
                0x00000000005225f8       0x60 0x1 /usr/local/popcorn/x86_64/lib/libc.a(fseek.o)
                0x00000000005225f8                __fseeko
                0x00000000005225f8                fseeko
                0x00000000005225f8                fseeko64
 ** zero fill   0x0000000000522658       0x1c
 .text.fseek    0x0000000000522674        0x5 0x1 /usr/local/popcorn/x86_64/lib/libc.a(fseek.o)
                0x0000000000522674                fseek
 ** zero fill   0x0000000000522679        0x3
 .text.getc     0x000000000052267c       0x76 0x1 /usr/local/popcorn/x86_64/lib/libc.a(getc.o)
                0x000000000052267c                _IO_getc
                0x000000000052267c                getc
 ** zero fill   0x00000000005226f2       0x2a
 .text.getline  0x000000000052271c       0x10 0x1 /usr/local/popcorn/x86_64/lib/libc.a(getline.o)
                0x000000000052271c                getline
 .text.bsearch  0x000000000052272c       0x84 0x1 /usr/local/popcorn/x86_64/lib/libc.a(bsearch.o)
                0x000000000052272c                bsearch
 .text.qsort    0x00000000005227b0      0x353 0x1 /usr/local/popcorn/x86_64/lib/libc.a(qsort.o)
                0x00000000005227b0                qsort
 ** zero fill   0x0000000000522b03        0x1
 .text.sift     0x0000000000522b04       0xf0 0x1 /usr/local/popcorn/x86_64/lib/libc.a(qsort.o)
 ** zero fill   0x0000000000522bf4       0x18
 .text.trinkle  0x0000000000522c0c      0x235 0x1 /usr/local/popcorn/x86_64/lib/libc.a(qsort.o)
 ** zero fill   0x0000000000522e41        0x3
 .text.cycle    0x0000000000522e44       0x90 0x1 /usr/local/popcorn/x86_64/lib/libc.a(qsort.o)
 ** zero fill   0x0000000000522ed4       0x2c
 .text.pthread_attr_getdetachstate
                0x0000000000522f00        0x8 0x1 /usr/local/popcorn/x86_64/lib/libc.a(pthread_attr_get.o)
                0x0000000000522f00                pthread_attr_getdetachstate
 ** zero fill   0x0000000000522f08        0x8
 .text.pthread_attr_getguardsize
                0x0000000000522f10        0xa 0x1 /usr/local/popcorn/x86_64/lib/libc.a(pthread_attr_get.o)
                0x0000000000522f10                pthread_attr_getguardsize
 ** zero fill   0x0000000000522f1a        0x6
 .text.pthread_attr_getinheritsched
                0x0000000000522f20        0x8 0x1 /usr/local/popcorn/x86_64/lib/libc.a(pthread_attr_get.o)
                0x0000000000522f20                pthread_attr_getinheritsched
 ** zero fill   0x0000000000522f28        0x8
 .text.pthread_attr_getschedparam
                0x0000000000522f30        0x8 0x1 /usr/local/popcorn/x86_64/lib/libc.a(pthread_attr_get.o)
                0x0000000000522f30                pthread_attr_getschedparam
 ** zero fill   0x0000000000522f38        0x8
 .text.pthread_attr_getschedpolicy
                0x0000000000522f40        0x8 0x1 /usr/local/popcorn/x86_64/lib/libc.a(pthread_attr_get.o)
                0x0000000000522f40                pthread_attr_getschedpolicy
 ** zero fill   0x0000000000522f48        0x8
 .text.pthread_attr_getscope
                0x0000000000522f50        0x9 0x1 /usr/local/popcorn/x86_64/lib/libc.a(pthread_attr_get.o)
                0x0000000000522f50                pthread_attr_getscope
 ** zero fill   0x0000000000522f59        0x3
 .text.pthread_attr_getstack
                0x0000000000522f5c       0x1d 0x1 /usr/local/popcorn/x86_64/lib/libc.a(pthread_attr_get.o)
                0x0000000000522f5c                pthread_attr_getstack
 ** zero fill   0x0000000000522f79        0xf
 .text.pthread_attr_getstacksize
                0x0000000000522f88        0x9 0x1 /usr/local/popcorn/x86_64/lib/libc.a(pthread_attr_get.o)
                0x0000000000522f88                pthread_attr_getstacksize
 ** zero fill   0x0000000000522f91        0x7
 .text.pthread_barrierattr_getpshared
                0x0000000000522f98        0xe 0x1 /usr/local/popcorn/x86_64/lib/libc.a(pthread_attr_get.o)
                0x0000000000522f98                pthread_barrierattr_getpshared
 ** zero fill   0x0000000000522fa6        0xa
 .text.pthread_condattr_getclock
                0x0000000000522fb0        0xc 0x1 /usr/local/popcorn/x86_64/lib/libc.a(pthread_attr_get.o)
                0x0000000000522fb0                pthread_condattr_getclock
 ** zero fill   0x0000000000522fbc        0x8
 .text.pthread_condattr_getpshared
                0x0000000000522fc4        0xa 0x1 /usr/local/popcorn/x86_64/lib/libc.a(pthread_attr_get.o)
                0x0000000000522fc4                pthread_condattr_getpshared
 ** zero fill   0x0000000000522fce        0xa
 .text.pthread_mutexattr_getprotocol
                0x0000000000522fd8        0x9 0x1 /usr/local/popcorn/x86_64/lib/libc.a(pthread_attr_get.o)
                0x0000000000522fd8                pthread_mutexattr_getprotocol
 ** zero fill   0x0000000000522fe1        0x3
 .text.pthread_mutexattr_getpshared
                0x0000000000522fe4        0xd 0x1 /usr/local/popcorn/x86_64/lib/libc.a(pthread_attr_get.o)
                0x0000000000522fe4                pthread_mutexattr_getpshared
 ** zero fill   0x0000000000522ff1        0x7
 .text.pthread_mutexattr_getrobust
                0x0000000000522ff8        0xd 0x1 /usr/local/popcorn/x86_64/lib/libc.a(pthread_attr_get.o)
                0x0000000000522ff8                pthread_mutexattr_getrobust
 ** zero fill   0x0000000000523005        0x7
 .text.pthread_mutexattr_gettype
                0x000000000052300c        0xa 0x1 /usr/local/popcorn/x86_64/lib/libc.a(pthread_attr_get.o)
                0x000000000052300c                pthread_mutexattr_gettype
 ** zero fill   0x0000000000523016        0xa
 .text.pthread_rwlockattr_getpshared
                0x0000000000523020        0x7 0x1 /usr/local/popcorn/x86_64/lib/libc.a(pthread_attr_get.o)
                0x0000000000523020                pthread_rwlockattr_getpshared
 ** zero fill   0x0000000000523027        0x9
 .text.pthread_getattr_np
                0x0000000000523030       0xe2 0x1 /usr/local/popcorn/x86_64/lib/libc.a(pthread_getattr_np.o)
                0x0000000000523030                pthread_getattr_np
 ** zero fill   0x0000000000523112        0xa
 .text.__pthread_getspecific
                0x000000000052311c       0x17 0x1 /usr/local/popcorn/x86_64/lib/libc.a(pthread_getspecific.o)
                0x000000000052311c                pthread_getspecific
                0x000000000052311c                tss_get
 ** zero fill   0x0000000000523133        0x1
 .text.__pthread_key_create
                0x0000000000523134       0x6a 0x1 /usr/local/popcorn/x86_64/lib/libc.a(pthread_key_create.o)
                0x0000000000523134                __pthread_key_create
                0x0000000000523134                pthread_key_create
 ** zero fill   0x000000000052319e       0x22
 .text.nodtor   0x00000000005231c0        0x1 0x1 /usr/local/popcorn/x86_64/lib/libc.a(pthread_key_create.o)
 ** zero fill   0x00000000005231c1        0x3
 .text.__pthread_key_delete
                0x00000000005231c4       0x11 0x1 /usr/local/popcorn/x86_64/lib/libc.a(pthread_key_create.o)
                0x00000000005231c4                __pthread_key_delete
                0x00000000005231c4                pthread_key_delete
 ** zero fill   0x00000000005231d5        0x3
 .text.__pthread_tsd_run_dtors
                0x00000000005231d8       0x76 0x1 /usr/local/popcorn/x86_64/lib/libc.a(pthread_key_create.o)
                0x00000000005231d8                __pthread_tsd_run_dtors
 ** zero fill   0x000000000052324e       0x16
 .text.pthread_migrate_args
                0x0000000000523264       0x10 0x1 /usr/local/popcorn/x86_64/lib/libc.a(pthread_migrate.o)
                0x0000000000523264                pthread_migrate_args
 .text.__pthread_self_internal
                0x0000000000523274        0xa 0x1 /usr/local/popcorn/x86_64/lib/libc.a(pthread_self.o)
                0x0000000000523274                pthread_self
                0x0000000000523274                thrd_current
 ** zero fill   0x000000000052327e        0x2
 .text.pthread_setspecific
                0x0000000000523280       0x29 0x1 /usr/local/popcorn/x86_64/lib/libc.a(pthread_setspecific.o)
                0x0000000000523280                pthread_setspecific
 ** zero fill   0x00000000005232a9        0x3
 .text.lseek    0x00000000005232ac       0x15 0x1 /usr/local/popcorn/x86_64/lib/libc.a(lseek.o)
                0x00000000005232ac                lseek
                0x00000000005232ac                lseek64
 ** zero fill   0x00000000005232c1        0x3
 .text.abort    0x00000000005232c4       0x27 0x1 /usr/local/popcorn/x86_64/lib/libc.a(abort.o)
                0x00000000005232c4                abort
 ** zero fill   0x00000000005232eb        0xd
 .text.raise    0x00000000005232f8       0x4d 0x1 /usr/local/popcorn/x86_64/lib/libc.a(raise.o)
                0x00000000005232f8                raise
 ** zero fill   0x0000000000523345        0xb
 .text.__fdopen
                0x0000000000523350      0x182 0x1 /usr/local/popcorn/x86_64/lib/libc.a(__fdopen.o)
                0x0000000000523350                __fdopen
                0x0000000000523350                fdopen
 ** zero fill   0x00000000005234d2       0x32
 .text.__fmodeflags
                0x0000000000523504       0x8d 0x1 /usr/local/popcorn/x86_64/lib/libc.a(__fmodeflags.o)
                0x0000000000523504                __fmodeflags
 ** zero fill   0x0000000000523591        0x7
 .text.__stdio_read
                0x0000000000523598       0xb1 0x1 /usr/local/popcorn/x86_64/lib/libc.a(__stdio_read.o)
                0x0000000000523598                __stdio_read
 ** zero fill   0x0000000000523649       0x2f
 .text.getdelim
                0x0000000000523678      0x25d 0x1 /usr/local/popcorn/x86_64/lib/libc.a(getdelim.o)
                0x0000000000523678                __getdelim
                0x0000000000523678                getdelim
 ** zero fill   0x00000000005238d5       0x13
 .text.__ofl_add
                0x00000000005238e8       0x29 0x1 /usr/local/popcorn/x86_64/lib/libc.a(ofl_add.o)
                0x00000000005238e8                __ofl_add
 ** zero fill   0x0000000000523911       0x17
 .text.memmove  0x0000000000523928       0x25 0x1 /usr/local/popcorn/x86_64/lib/libc.a(memmove.o)
                0x0000000000523928                memmove
 ** zero fill   0x000000000052394d        0x3
 ** zero fill   0x0000000000523950        0x8
 ** zero fill   0x0000000000523958      0x138
 ** zero fill   0x0000000000523a90      0x138
 .text          0x0000000000523bc8        0x0 0x4 tiny_x86_64.o
 .text          0x0000000000523bc8       0x16 0x4 /usr/local/popcorn/x86_64/lib/crt1.o
                0x0000000000523bc8                _start
 .text          0x0000000000523be0        0x0 0x4 /usr/local/popcorn/x86_64/lib/libc.a(closedir.o)
 .text          0x0000000000523be0        0x0 0x4 /usr/local/popcorn/x86_64/lib/libc.a(fdopendir.o)
 .text          0x0000000000523be0        0x0 0x4 /usr/local/popcorn/x86_64/lib/libc.a(readdir.o)
 .text          0x0000000000523be0        0x0 0x4 /usr/local/popcorn/x86_64/lib/libc.a(__libc_start_main.o)
 .text          0x0000000000523be0        0x0 0x4 /usr/local/popcorn/x86_64/lib/libc.a(__errno_location.o)
 .text          0x0000000000523be0        0x0 0x4 /usr/local/popcorn/x86_64/lib/libc.a(exit.o)
 .text          0x0000000000523be0        0x0 0x4 /usr/local/popcorn/x86_64/lib/libc.a(fcntl.o)
 .text          0x0000000000523be0        0x0 0x4 /usr/local/popcorn/x86_64/lib/libc.a(open.o)
 .text          0x0000000000523be0        0x0 0x4 /usr/local/popcorn/x86_64/lib/libc.a(openat.o)
 .text          0x0000000000523be0        0x0 0x4 /usr/local/popcorn/x86_64/lib/libc.a(libc.o)
 .text          0x0000000000523be0        0x0 0x4 /usr/local/popcorn/x86_64/lib/libc.a(syscall_ret.o)
 .text          0x0000000000523be0        0x0 0x4 /usr/local/popcorn/x86_64/lib/libc.a(sendfile.o)
 .text          0x0000000000523be0        0x0 0x4 /usr/local/popcorn/x86_64/lib/libc.a(calloc.o)
 .text          0x0000000000523be0        0x0 0x4 /usr/local/popcorn/x86_64/lib/libc.a(lite_malloc.o)
 .text          0x0000000000523be0        0x0 0x4 /usr/local/popcorn/x86_64/lib/libc.a(malloc.o)
 .text          0x0000000000523be0        0x0 0x4 /usr/local/popcorn/x86_64/lib/libc.a(popcorn_malloc.o)
 .text          0x0000000000523be0        0x0 0x4 /usr/local/popcorn/x86_64/lib/libc.a(madvise.o)
 .text          0x0000000000523be0        0x0 0x4 /usr/local/popcorn/x86_64/lib/libc.a(mmap.o)
 .text          0x0000000000523be0        0x0 0x4 /usr/local/popcorn/x86_64/lib/libc.a(mremap.o)
 .text          0x0000000000523be0        0x0 0x4 /usr/local/popcorn/x86_64/lib/libc.a(munmap.o)
 .text          0x0000000000523be0        0x0 0x4 /usr/local/popcorn/x86_64/lib/libc.a(accept.o)
 .text          0x0000000000523be0        0x0 0x4 /usr/local/popcorn/x86_64/lib/libc.a(bind.o)
 .text          0x0000000000523be0        0x0 0x4 /usr/local/popcorn/x86_64/lib/libc.a(htonl.o)
 .text          0x0000000000523be0        0x0 0x4 /usr/local/popcorn/x86_64/lib/libc.a(htons.o)
 .text          0x0000000000523be0        0x0 0x4 /usr/local/popcorn/x86_64/lib/libc.a(inet_ntoa.o)
 .text          0x0000000000523be0        0x0 0x4 /usr/local/popcorn/x86_64/lib/libc.a(listen.o)
 .text          0x0000000000523be0        0x0 0x4 /usr/local/popcorn/x86_64/lib/libc.a(ntohs.o)
 .text          0x0000000000523be0        0x0 0x4 /usr/local/popcorn/x86_64/lib/libc.a(setsockopt.o)
 .text          0x0000000000523be0        0x0 0x4 /usr/local/popcorn/x86_64/lib/libc.a(socket.o)
 .text          0x0000000000523be0        0x0 0x4 /usr/local/popcorn/x86_64/lib/libc.a(fork.o)
 .text          0x0000000000523be0        0x0 0x4 /usr/local/popcorn/x86_64/lib/libc.a(block.o)
 .text          0x0000000000523be0        0x0 0x4 /usr/local/popcorn/x86_64/lib/libc.a(signal.o)
 .text          0x0000000000523be0        0x0 0x4 /usr/local/popcorn/x86_64/lib/libc.a(fstat.o)
 .text          0x0000000000523be0        0x0 0x4 /usr/local/popcorn/x86_64/lib/libc.a(perror.o)
 .text          0x0000000000523be0        0x0 0x4 /usr/local/popcorn/x86_64/lib/libc.a(printf.o)
 .text          0x0000000000523be0        0x0 0x4 /usr/local/popcorn/x86_64/lib/libc.a(snprintf.o)
 .text          0x0000000000523be0        0x0 0x4 /usr/local/popcorn/x86_64/lib/libc.a(sprintf.o)
 .text          0x0000000000523be0        0x0 0x4 /usr/local/popcorn/x86_64/lib/libc.a(sscanf.o)
 .text          0x0000000000523be0        0x0 0x4 /usr/local/popcorn/x86_64/lib/libc.a(stderr.o)
 .text          0x0000000000523be0        0x0 0x4 /usr/local/popcorn/x86_64/lib/libc.a(stdout.o)
 .text          0x0000000000523be0        0x0 0x4 /usr/local/popcorn/x86_64/lib/libc.a(vfprintf.o)
 .text          0x0000000000523be0        0x0 0x4 /usr/local/popcorn/x86_64/lib/libc.a(vsnprintf.o)
 .text          0x0000000000523be0        0x0 0x4 /usr/local/popcorn/x86_64/lib/libc.a(vsprintf.o)
 .text          0x0000000000523be0        0x0 0x4 /usr/local/popcorn/x86_64/lib/libc.a(vsscanf.o)
 .text          0x0000000000523be0        0x0 0x4 /usr/local/popcorn/x86_64/lib/libc.a(atoi.o)
 .text          0x0000000000523be0        0x0 0x4 /usr/local/popcorn/x86_64/lib/libc.a(strtol.o)
 .text          0x0000000000523be0        0x0 0x4 /usr/local/popcorn/x86_64/lib/libc.a(strcmp.o)
 .text          0x0000000000523be0        0x0 0x4 /usr/local/popcorn/x86_64/lib/libc.a(strlen.o)
 .text          0x0000000000523be0        0x0 0x4 /usr/local/popcorn/x86_64/lib/libc.a(strnlen.o)
 .text          0x0000000000523be0        0x0 0x4 /usr/local/popcorn/x86_64/lib/libc.a(strrchr.o)
 .text          0x0000000000523be0        0x0 0x4 /usr/local/popcorn/x86_64/lib/libc.a(memcpy.o)
 .text          0x0000000000523be0        0x0 0x4 /usr/local/popcorn/x86_64/lib/libc.a(memset.o)
 .text          0x0000000000523be0        0x0 0x4 /usr/local/popcorn/x86_64/lib/libc.a(__lock.o)
 .text          0x0000000000523be0        0x0 0x4 /usr/local/popcorn/x86_64/lib/libc.a(__syscall_cp.o)
 .text          0x0000000000523be0        0x0 0x4 /usr/local/popcorn/x86_64/lib/libc.a(__wait.o)
 .text          0x0000000000523be0        0x0 0x4 /usr/local/popcorn/x86_64/lib/libc.a(localtime.o)
 .text          0x0000000000523be0        0x0 0x4 /usr/local/popcorn/x86_64/lib/libc.a(localtime_r.o)
 .text          0x0000000000523be0        0x0 0x4 /usr/local/popcorn/x86_64/lib/libc.a(strftime.o)
 .text          0x0000000000523be0        0x0 0x4 /usr/local/popcorn/x86_64/lib/libc.a(chdir.o)
 .text          0x0000000000523be0        0x0 0x4 /usr/local/popcorn/x86_64/lib/libc.a(close.o)
 .text          0x0000000000523be0        0x0 0x4 /usr/local/popcorn/x86_64/lib/libc.a(getcwd.o)
 .text          0x0000000000523be0        0x0 0x4 /usr/local/popcorn/x86_64/lib/libc.a(getpid.o)
 .text          0x0000000000523be0        0x0 0x4 /usr/local/popcorn/x86_64/lib/libc.a(read.o)
 .text          0x0000000000523be0        0x0 0x4 /usr/local/popcorn/x86_64/lib/libc.a(write.o)
 .text          0x0000000000523be0        0x0 0x4 /usr/local/popcorn/x86_64/lib/libc.a(__environ.o)
 .text          0x0000000000523be0        0x0 0x4 /usr/local/popcorn/x86_64/lib/libc.a(__init_tls.o)
 .text          0x0000000000523be0        0x0 0x4 /usr/local/popcorn/x86_64/lib/libc.a(strerror.o)
 .text          0x0000000000523be0        0x0 0x4 /usr/local/popcorn/x86_64/lib/libc.a(_Exit.o)
 .text          0x0000000000523be0        0x0 0x4 /usr/local/popcorn/x86_64/lib/libc.a(intscan.o)
 .text          0x0000000000523be0        0x0 0x4 /usr/local/popcorn/x86_64/lib/libc.a(procfdname.o)
 .text          0x0000000000523be0        0x0 0x4 /usr/local/popcorn/x86_64/lib/libc.a(shgetc.o)
 .text          0x0000000000523be0        0x0 0x4 /usr/local/popcorn/x86_64/lib/libc.a(syscall.o)
 .text          0x0000000000523be0        0x0 0x4 /usr/local/popcorn/x86_64/lib/libc.a(__lctrans.o)
 .text          0x0000000000523be0        0x0 0x4 /usr/local/popcorn/x86_64/lib/libc.a(langinfo.o)
 .text          0x0000000000523be0        0x0 0x4 /usr/local/popcorn/x86_64/lib/libc.a(expand_heap.o)
 .text          0x0000000000523be0        0x0 0x4 /usr/local/popcorn/x86_64/lib/libc.a(__fpclassifyl.o)
 .text          0x0000000000523be0        0x0 0x4 /usr/local/popcorn/x86_64/lib/libc.a(__signbitl.o)
 .text          0x0000000000523be0        0x0 0x4 /usr/local/popcorn/x86_64/lib/libc.a(frexpl.o)
 .text          0x0000000000523be0        0x0 0x4 /usr/local/popcorn/x86_64/lib/libc.a(wctomb.o)
 .text          0x0000000000523be0        0x0 0x4 /usr/local/popcorn/x86_64/lib/libc.a(sigaction.o)
 .text          0x0000000000523be0        0x0 0x4 /usr/local/popcorn/x86_64/lib/libc.a(restore.o)
 .text          0x0000000000523be0        0x0 0x4 /usr/local/popcorn/x86_64/lib/libc.a(__lockfile.o)
 .text          0x0000000000523be0        0x0 0x4 /usr/local/popcorn/x86_64/lib/libc.a(__stdio_close.o)
 .text          0x0000000000523be0        0x0 0x4 /usr/local/popcorn/x86_64/lib/libc.a(__stdio_seek.o)
 .text          0x0000000000523be0        0x0 0x4 /usr/local/popcorn/x86_64/lib/libc.a(__stdio_write.o)
 .text          0x0000000000523be0        0x0 0x4 /usr/local/popcorn/x86_64/lib/libc.a(__stdout_write.o)
 .text          0x0000000000523be0        0x0 0x4 /usr/local/popcorn/x86_64/lib/libc.a(__string_read.o)
 .text          0x0000000000523be0        0x0 0x4 /usr/local/popcorn/x86_64/lib/libc.a(__uflow.o)
 .text          0x0000000000523be0        0x0 0x4 /usr/local/popcorn/x86_64/lib/libc.a(fputc.o)
 .text          0x0000000000523be0        0x0 0x4 /usr/local/popcorn/x86_64/lib/libc.a(fwrite.o)
 .text          0x0000000000523be0        0x0 0x4 /usr/local/popcorn/x86_64/lib/libc.a(vfscanf.o)
 .text          0x0000000000523be0        0x0 0x4 /usr/local/popcorn/x86_64/lib/libc.a(abs.o)
 .text          0x0000000000523be0        0x0 0x4 /usr/local/popcorn/x86_64/lib/libc.a(memchr.o)
 .text          0x0000000000523be0        0x0 0x4 /usr/local/popcorn/x86_64/lib/libc.a(memrchr.o)
 .text          0x0000000000523be0        0x0 0x4 /usr/local/popcorn/x86_64/lib/libc.a(strdup.o)
 .text          0x0000000000523be0        0x0 0x4 /usr/local/popcorn/x86_64/lib/libc.a(__set_thread_area.o)
 .text          0x0000000000523be0        0x0 0x4 /usr/local/popcorn/x86_64/lib/libc.a(__secs_to_tm.o)
 .text          0x0000000000523be0        0x0 0x4 /usr/local/popcorn/x86_64/lib/libc.a(__tm_to_secs.o)
 .text          0x0000000000523be0        0x0 0x4 /usr/local/popcorn/x86_64/lib/libc.a(__tz.o)
 .text          0x0000000000523be0        0x0 0x4 /usr/local/popcorn/x86_64/lib/libc.a(__year_to_secs.o)
 .text          0x0000000000523be0        0x0 0x4 /usr/local/popcorn/x86_64/lib/libc.a(getenv.o)
 .text          0x0000000000523be0        0x0 0x4 /usr/local/popcorn/x86_64/lib/libc.a(floatscan.o)
 .text          0x0000000000523be0        0x0 0x4 /usr/local/popcorn/x86_64/lib/libc.a(copysignl.o)
 .text          0x0000000000523be0        0x0 0x4 /usr/local/popcorn/x86_64/lib/libc.a(scalbn.o)
 .text          0x0000000000523be0        0x0 0x4 /usr/local/popcorn/x86_64/lib/libc.a(scalbnl.o)
 .text          0x0000000000523be0        0x0 0x4 /usr/local/popcorn/x86_64/lib/libc.a(fabs.o)
 .text          0x0000000000523be0        0x0 0x4 /usr/local/popcorn/x86_64/lib/libc.a(fmodl.o)
 .text          0x0000000000523be0        0x0 0x4 /usr/local/popcorn/x86_64/lib/libc.a(mbrtowc.o)
 .text          0x0000000000523be0        0x0 0x4 /usr/local/popcorn/x86_64/lib/libc.a(mbsinit.o)
 .text          0x0000000000523be0        0x0 0x4 /usr/local/popcorn/x86_64/lib/libc.a(wcrtomb.o)
 .text          0x0000000000523be0        0x0 0x4 /usr/local/popcorn/x86_64/lib/libc.a(__overflow.o)
 .text          0x0000000000523be0        0x0 0x4 /usr/local/popcorn/x86_64/lib/libc.a(__toread.o)
 .text          0x0000000000523be0        0x0 0x4 /usr/local/popcorn/x86_64/lib/libc.a(__towrite.o)
 .text          0x0000000000523be0        0x0 0x4 /usr/local/popcorn/x86_64/lib/libc.a(memcmp.o)
 .text          0x0000000000523be0        0x0 0x4 /usr/local/popcorn/x86_64/lib/libc.a(strchr.o)
 .text          0x0000000000523be0        0x0 0x4 /usr/local/popcorn/x86_64/lib/libc.a(strchrnul.o)
 .text          0x0000000000523be0        0x0 0x4 /usr/local/popcorn/x86_64/lib/libc.a(strncmp.o)
 .text          0x0000000000523be0        0x0 0x4 /usr/local/popcorn/x86_64/lib/libc.a(__map_file.o)
 .text          0x0000000000523be0        0x0 0x4 /usr/local/popcorn/x86_64/lib/libc.a(__month_to_secs.o)
 .text          0x0000000000523be0        0x0 0x4 /usr/local/popcorn/x86_64/lib/libc.a(internal.o)
 .text          0x0000000000523be0        0x0 0x4 /usr/local/popcorn/x86_64/lib/libc.a(__stdio_exit.o)
 .text          0x0000000000523be0        0x0 0x4 /usr/local/popcorn/x86_64/lib/libc.a(ofl.o)
 .text          0x0000000000523be0        0x0 0x4 /usr/local/popcorn/x86_64/lib/libmigrate.a(migrate.o)
 .text          0x0000000000523be0        0x0 0x1 /usr/local/popcorn/x86_64/lib/libmigrate.a(migrate_x86_64.o)
 .text          0x0000000000523be0        0x0 0x1 /usr/local/popcorn/x86_64/lib/libmigrate.a(migrate_powerpc64.o)
 .text          0x0000000000523be0        0x0 0x1 /usr/local/popcorn/x86_64/lib/libmigrate.a(migrate_aarch64.o)
 .text          0x0000000000523be0        0x0 0x4 /usr/local/popcorn/x86_64/lib/libmigrate.a(mapping.o)
 .text          0x0000000000523be0        0x0 0x4 /usr/local/popcorn/x86_64/lib/libstack-transform.a(userspace.o)
 .text          0x0000000000523be0        0x0 0x4 /usr/local/popcorn/x86_64/lib/libstack-transform.a(init.o)
 .text          0x0000000000523be0        0x0 0x4 /usr/local/popcorn/x86_64/lib/libstack-transform.a(rewrite.o)
 .text          0x0000000000523be0        0x0 0x4 /usr/local/popcorn/x86_64/lib/libstack-transform.a(unwind.o)
 .text          0x0000000000523be0        0x0 0x4 /usr/local/popcorn/x86_64/lib/libstack-transform.a(util.o)
 .text          0x0000000000523be0        0x0 0x4 /usr/local/popcorn/x86_64/lib/libstack-transform.a(properties.o)
 .text          0x0000000000523be0        0x0 0x4 /usr/local/popcorn/x86_64/lib/libstack-transform.a(regs.o)
 .text          0x0000000000523be0        0x0 0x4 /usr/local/popcorn/x86_64/lib/libstack-transform.a(properties.o)
 .text          0x0000000000523be0        0x0 0x4 /usr/local/popcorn/x86_64/lib/libstack-transform.a(regs.o)
 .text          0x0000000000523be0        0x0 0x4 /usr/local/popcorn/x86_64/lib/libstack-transform.a(properties.o)
 .text          0x0000000000523be0        0x0 0x4 /usr/local/popcorn/x86_64/lib/libstack-transform.a(regs.o)
 .text          0x0000000000523be0        0x0 0x4 /usr/local/popcorn/x86_64/lib/libstack-transform.a(data.o)
 .text          0x0000000000523be0        0x0 0x4 /usr/local/popcorn/x86_64/lib/libelf.a(begin.o)
 .text          0x0000000000523be0        0x0 0x4 /usr/local/popcorn/x86_64/lib/libelf.a(end.o)
 .text          0x0000000000523be0        0x0 0x4 /usr/local/popcorn/x86_64/lib/libelf.a(getdata.o)
 .text          0x0000000000523be0        0x0 0x4 /usr/local/popcorn/x86_64/lib/libelf.a(getident.o)
 .text          0x0000000000523be0        0x0 0x4 /usr/local/popcorn/x86_64/lib/libelf.a(nextscn.o)
 .text          0x0000000000523be0        0x0 0x4 /usr/local/popcorn/x86_64/lib/libelf.a(strptr.o)
 .text          0x0000000000523be0        0x0 0x4 /usr/local/popcorn/x86_64/lib/libelf.a(version.o)
 .text          0x0000000000523be0        0x0 0x4 /usr/local/popcorn/x86_64/lib/libelf.a(32.getehdr.o)
 .text          0x0000000000523be0        0x0 0x4 /usr/local/popcorn/x86_64/lib/libelf.a(32.xlatetof.o)
 .text          0x0000000000523be0        0x0 0x4 /usr/local/popcorn/x86_64/lib/libelf.a(cook.o)
 .text          0x0000000000523be0        0x0 0x4 /usr/local/popcorn/x86_64/lib/libelf.a(data.o)
 .text          0x0000000000523be0        0x0 0x4 /usr/local/popcorn/x86_64/lib/libelf.a(input.o)
 .text          0x0000000000523be0        0x0 0x4 /usr/local/popcorn/x86_64/lib/libelf.a(x.elfext.o)
 .text          0x0000000000523be0        0x0 0x4 /usr/local/popcorn/x86_64/lib/libelf.a(64.xlatetof.o)
 .text          0x0000000000523be0        0x0 0x4 /usr/local/popcorn/x86_64/lib/libelf.a(gelfshdr.o)
 .text          0x0000000000523be0        0x0 0x4 /usr/local/popcorn/x86_64/lib/libelf.a(swap64.o)
 .text          0x0000000000523be0        0x0 0x4 /usr/local/popcorn/x86_64/lib/libelf.a(verdef_32_tof.o)
 .text          0x0000000000523be0        0x0 0x4 /usr/local/popcorn/x86_64/lib/libelf.a(verdef_32_tom.o)
 .text          0x0000000000523be0        0x0 0x4 /usr/local/popcorn/x86_64/lib/libelf.a(verdef_64_tof.o)
 .text          0x0000000000523be0        0x0 0x4 /usr/local/popcorn/x86_64/lib/libelf.a(verdef_64_tom.o)
 .text          0x0000000000523be0        0x0 0x4 /usr/local/popcorn/x86_64/lib/libelf.a(getscn.o)
 .text          0x0000000000523be0        0x0 0x4 /usr/local/popcorn/x86_64/lib/libelf.a(newscn.o)
 .text          0x0000000000523be0        0x0 0x4 /usr/local/popcorn/x86_64/lib/libelf.a(32.fsize.o)
 .text          0x0000000000523be0        0x0 0x4 /usr/local/popcorn/x86_64/lib/libc.a(arch_crash.o)
 .text          0x0000000000523be0        0x0 0x4 /usr/local/popcorn/x86_64/lib/libc.a(assert.o)
 .text          0x0000000000523be0        0x0 0x4 /usr/local/popcorn/x86_64/lib/libc.a(getrlimit.o)
 .text          0x0000000000523be0        0x0 0x4 /usr/local/popcorn/x86_64/lib/libc.a(syscall.o)
 .text          0x0000000000523be0        0x0 0x4 /usr/local/popcorn/x86_64/lib/libc.a(fclose.o)
 .text          0x0000000000523be0        0x0 0x4 /usr/local/popcorn/x86_64/lib/libc.a(fflush.o)
 .text          0x0000000000523be0        0x0 0x4 /usr/local/popcorn/x86_64/lib/libc.a(fopen.o)
 .text          0x0000000000523be0        0x0 0x4 /usr/local/popcorn/x86_64/lib/libc.a(fprintf.o)
 .text          0x0000000000523be0        0x0 0x4 /usr/local/popcorn/x86_64/lib/libc.a(fscanf.o)
 .text          0x0000000000523be0        0x0 0x4 /usr/local/popcorn/x86_64/lib/libc.a(fseek.o)
 .text          0x0000000000523be0        0x0 0x4 /usr/local/popcorn/x86_64/lib/libc.a(getc.o)
 .text          0x0000000000523be0        0x0 0x4 /usr/local/popcorn/x86_64/lib/libc.a(getline.o)
 .text          0x0000000000523be0        0x0 0x4 /usr/local/popcorn/x86_64/lib/libc.a(bsearch.o)
 .text          0x0000000000523be0        0x0 0x4 /usr/local/popcorn/x86_64/lib/libc.a(qsort.o)
 .text          0x0000000000523be0        0x0 0x4 /usr/local/popcorn/x86_64/lib/libc.a(memmove.o)
 .text          0x0000000000523be0        0x0 0x4 /usr/local/popcorn/x86_64/lib/libc.a(pthread_attr_get.o)
 .text          0x0000000000523be0        0x0 0x4 /usr/local/popcorn/x86_64/lib/libc.a(pthread_getattr_np.o)
 .text          0x0000000000523be0        0x0 0x4 /usr/local/popcorn/x86_64/lib/libc.a(pthread_getspecific.o)
 .text          0x0000000000523be0        0x0 0x4 /usr/local/popcorn/x86_64/lib/libc.a(pthread_key_create.o)
 .text          0x0000000000523be0        0x0 0x4 /usr/local/popcorn/x86_64/lib/libc.a(pthread_migrate.o)
 .text          0x0000000000523be0        0x0 0x4 /usr/local/popcorn/x86_64/lib/libc.a(pthread_self.o)
 .text          0x0000000000523be0        0x0 0x4 /usr/local/popcorn/x86_64/lib/libc.a(pthread_setspecific.o)
 .text          0x0000000000523be0        0x0 0x4 /usr/local/popcorn/x86_64/lib/libc.a(lseek.o)
 .text          0x0000000000523be0        0x0 0x4 /usr/local/popcorn/x86_64/lib/libc.a(abort.o)
 .text          0x0000000000523be0        0x0 0x4 /usr/local/popcorn/x86_64/lib/libc.a(raise.o)
 .text          0x0000000000523be0        0x0 0x4 /usr/local/popcorn/x86_64/lib/libc.a(__fdopen.o)
 .text          0x0000000000523be0        0x0 0x4 /usr/local/popcorn/x86_64/lib/libc.a(__fmodeflags.o)
 .text          0x0000000000523be0        0x0 0x4 /usr/local/popcorn/x86_64/lib/libc.a(__stdio_read.o)
 .text          0x0000000000523be0        0x0 0x4 /usr/local/popcorn/x86_64/lib/libc.a(getdelim.o)
 .text          0x0000000000523be0        0x0 0x4 /usr/local/popcorn/x86_64/lib/libc.a(ofl_add.o)

.rodata         0x0000000000600000     0x4f42
 ** zero fill   0x0000000000600000        0x1
 ** zero fill   0x0000000000600001      0xfff
 .rodata.tiny__str__css_
                0x0000000000601000        0x5 0x1 tiny_x86_64.o
                0x0000000000601000                tiny__str__css_
 .rodata.tiny__str_1_text_css_
                0x0000000000601005        0x9 0x1 tiny_x86_64.o
                0x0000000000601005                tiny__str_1_text_css_
 .rodata.tiny__str_2__gif_
                0x000000000060100e        0x5 0x1 tiny_x86_64.o
                0x000000000060100e                tiny__str_2__gif_
 .rodata.tiny__str_3_image_gif_
                0x0000000000601013        0xa 0x1 tiny_x86_64.o
                0x0000000000601013                tiny__str_3_image_gif_
 .rodata.tiny__str_4__htm_
                0x000000000060101d        0x5 0x1 tiny_x86_64.o
                0x000000000060101d                tiny__str_4__htm_
 .rodata.tiny__str_5_text_html_
                0x0000000000601022        0xa 0x1 tiny_x86_64.o
                0x0000000000601022                tiny__str_5_text_html_
 .rodata.tiny__str_6__html_
                0x000000000060102c        0x6 0x1 tiny_x86_64.o
                0x000000000060102c                tiny__str_6__html_
 .rodata.tiny__str_7__jpeg_
                0x0000000000601032        0x6 0x1 tiny_x86_64.o
                0x0000000000601032                tiny__str_7__jpeg_
 .rodata.tiny__str_8_image_jpeg
                0x0000000000601038        0xb 0x1 tiny_x86_64.o
                0x0000000000601038                tiny__str_8_image_jpeg
 .rodata.tiny__str_9__jpg_
                0x0000000000601043        0x5 0x1 tiny_x86_64.o
                0x0000000000601043                tiny__str_9__jpg_
 .rodata.tiny__str_10__ico_
                0x0000000000601048        0x5 0x1 tiny_x86_64.o
                0x0000000000601048                tiny__str_10__ico_
 .rodata.tiny__str_11_image_x_ic
                0x000000000060104d        0xd 0x1 tiny_x86_64.o
                0x000000000060104d                tiny__str_11_image_x_ic
 .rodata.tiny__str_12__js_
                0x000000000060105a        0x4 0x1 tiny_x86_64.o
                0x000000000060105a                tiny__str_12__js_
 .rodata.tiny__str_13_applicatio
                0x000000000060105e       0x17 0x1 tiny_x86_64.o
                0x000000000060105e                tiny__str_13_applicatio
 .rodata.tiny__str_14__pdf_
                0x0000000000601075        0x5 0x1 tiny_x86_64.o
                0x0000000000601075                tiny__str_14__pdf_
 .rodata.tiny__str_15_applicatio
                0x000000000060107a       0x10 0x1 tiny_x86_64.o
                0x000000000060107a                tiny__str_15_applicatio
 .rodata.tiny__str_16__mp4_
                0x000000000060108a        0x5 0x1 tiny_x86_64.o
                0x000000000060108a                tiny__str_16__mp4_
 .rodata.tiny__str_17_video_mp4_
                0x000000000060108f        0xa 0x1 tiny_x86_64.o
                0x000000000060108f                tiny__str_17_video_mp4_
 .rodata.tiny__str_18__png_
                0x0000000000601099        0x5 0x1 tiny_x86_64.o
                0x0000000000601099                tiny__str_18__png_
 .rodata.tiny__str_19_image_png_
                0x000000000060109e        0xa 0x1 tiny_x86_64.o
                0x000000000060109e                tiny__str_19_image_png_
 .rodata.tiny__str_20__svg_
                0x00000000006010a8        0x5 0x1 tiny_x86_64.o
                0x00000000006010a8                tiny__str_20__svg_
 .rodata.tiny__str_21_image_svg_
                0x00000000006010ad        0xe 0x1 tiny_x86_64.o
                0x00000000006010ad                tiny__str_21_image_svg_
 .rodata.tiny__str_22__xml_
                0x00000000006010bb        0x5 0x1 tiny_x86_64.o
                0x00000000006010bb                tiny__str_22__xml_
 .rodata.tiny__str_23_text_xml_
                0x00000000006010c0        0x9 0x1 tiny_x86_64.o
                0x00000000006010c0                tiny__str_23_text_xml_
 .rodata.tiny__str_24_text_plain
                0x00000000006010c9        0xb 0x1 tiny_x86_64.o
                0x00000000006010c9                tiny__str_24_text_plain
 .rodata.tiny__str_25__s_
                0x00000000006010d4        0x3 0x1 tiny_x86_64.o
                0x00000000006010d4                tiny__str_25__s_
 .rodata.tiny__str_26__DIR__
                0x00000000006010d7        0x6 0x1 tiny_x86_64.o
                0x00000000006010d7                tiny__str_26__DIR__
 .rodata.tiny__str_27__lu_
                0x00000000006010dd        0x4 0x1 tiny_x86_64.o
                0x00000000006010dd                tiny__str_27__lu_
 .rodata.tiny__str_28___1fK_
                0x00000000006010e1        0x6 0x1 tiny_x86_64.o
                0x00000000006010e1                tiny__str_28___1fK_
 .rodata.tiny__str_29___1fM_
                0x00000000006010e7        0x6 0x1 tiny_x86_64.o
                0x00000000006010e7                tiny__str_29___1fM_
 .rodata.tiny__str_30___1fG_
                0x00000000006010ed        0x6 0x1 tiny_x86_64.o
                0x00000000006010ed                tiny__str_30___1fG_
 .rodata.tiny__str_31_HTTP_1_1_2
                0x00000000006010f3       0x1c 0x1 tiny_x86_64.o
                0x00000000006010f3                tiny__str_31_HTTP_1_1_2
 .rodata.tiny__str_32_Content_Ty
                0x000000000060110f       0x1c 0x1 tiny_x86_64.o
                0x000000000060110f                tiny__str_32_Content_Ty
 .rodata.tiny__str_33__html__hea
                0x000000000060112b       0x14 0x1 tiny_x86_64.o
                0x000000000060112b                tiny__str_33__html__hea
 .rodata.tiny__str_34_body_font_
                0x000000000060113f       0x2f 0x1 tiny_x86_64.o
                0x000000000060113f                tiny__str_34_body_font_
 .rodata.tiny__str_35_td__paddin
                0x000000000060116e       0x19 0x1 tiny_x86_64.o
                0x000000000060116e                tiny__str_35_td__paddin
 .rodata.tiny__str_36___style___
                0x0000000000601187       0x1e 0x1 tiny_x86_64.o
                0x0000000000601187                tiny__str_36___style___
 .rodata.tiny__str_37___
                0x00000000006011a5        0x2 0x1 tiny_x86_64.o
                0x00000000006011a5                tiny__str_37___
 .rodata.tiny__str_38____
                0x00000000006011a7        0x3 0x1 tiny_x86_64.o
                0x00000000006011a7                tiny__str_38____
 .rodata.tiny__str_39__Y__m__d__
                0x00000000006011aa        0xf 0x1 tiny_x86_64.o
                0x00000000006011aa                tiny__str_39__Y__m__d__
 .rodata.tiny__str_40___
                0x00000000006011b9        0x2 0x1 tiny_x86_64.o
                0x00000000006011b9                tiny__str_40___
 .rodata.tiny__str_41_
                0x00000000006011bb        0x1 0x1 tiny_x86_64.o
                0x00000000006011bb                tiny__str_41_
 .rodata.tiny__str_42__tr__td__a
                0x00000000006011bc       0x41 0x1 tiny_x86_64.o
                0x00000000006011bc                tiny__str_42__tr__td__a
 .rodata.tiny__str_43___table___
                0x00000000006011fd       0x17 0x1 tiny_x86_64.o
                0x00000000006011fd                tiny__str_43___table___
 .rodata.tiny__str_44__s__s_
                0x0000000000601214        0x6 0x1 tiny_x86_64.o
                0x0000000000601214                tiny__str_44__s__s_
 .rodata.tiny__str_45_Range__byt
                0x000000000060121a       0x15 0x1 tiny_x86_64.o
                0x000000000060121a                tiny__str_45_Range__byt
 .rodata.tiny__str_46__s__d__d__
                0x000000000060122f        0xf 0x1 tiny_x86_64.o
                0x000000000060122f                tiny__str_46__s__d__d__
 .rodata.tiny__str_47_HTTP_1_1__
                0x000000000060123e       0x11 0x1 tiny_x86_64.o
                0x000000000060123e                tiny__str_47_HTTP_1_1__
 .rodata.tiny__str_48_Content_le
                0x000000000060124f       0x18 0x1 tiny_x86_64.o
                0x000000000060124f                tiny__str_48_Content_le
 .rodata.tiny__str_49_HTTP_1_1_2
                0x0000000000601267       0x17 0x1 tiny_x86_64.o
                0x0000000000601267                tiny__str_49_HTTP_1_1_2
 .rodata.tiny__str_50_Content_Ra
                0x000000000060127e       0x23 0x1 tiny_x86_64.o
                0x000000000060127e                tiny__str_50_Content_Ra
 .rodata.tiny__str_51_HTTP_1_1_2
                0x00000000006012a1       0x28 0x1 tiny_x86_64.o
                0x00000000006012a1                tiny__str_51_HTTP_1_1_2
 .rodata.tiny__str_52_Cache_Cont
                0x00000000006012c9       0x1a 0x1 tiny_x86_64.o
                0x00000000006012c9                tiny__str_52_Cache_Cont
 .rodata.tiny__str_53_Content_le
                0x00000000006012e3       0x16 0x1 tiny_x86_64.o
                0x00000000006012e3                tiny__str_53_Content_le
 .rodata.tiny__str_54_Content_ty
                0x00000000006012f9       0x15 0x1 tiny_x86_64.o
                0x00000000006012f9                tiny__str_54_Content_ty
 .rodata.tiny__str_55_offset___l
                0x000000000060130e        0xf 0x1 tiny_x86_64.o
                0x000000000060130e                tiny__str_55_offset_(long)
 .rodata.tiny__str_56_stat_sbuf_
                0x000000000060131d       0x21 0x1 tiny_x86_64.o
                0x000000000060131d                tiny__str_56_stat_sbuf_
 .rodata.tiny__str_57_stat_sbuf_
                0x000000000060133e       0x32 0x1 tiny_x86_64.o
                0x000000000060133e                tiny__str_57_stat_sbuf_
 .rodata.tiny__str_58_stat_sbuf_
                0x0000000000601370       0x1d 0x1 tiny_x86_64.o
                0x0000000000601370                tiny__str_58_stat_sbuf_
 .rodata.tiny__str_59_stat_sbuf_
                0x000000000060138d       0x1d 0x1 tiny_x86_64.o
                0x000000000060138d                tiny__str_59_stat_sbuf_
 .rodata.tiny__str_60_stat_sbuf_
                0x00000000006013aa       0x20 0x1 tiny_x86_64.o
                0x00000000006013aa                tiny__str_60_stat_sbuf_
 .rodata.tiny__str_61_filename__
                0x00000000006013ca       0x25 0x1 tiny_x86_64.o
                0x00000000006013ca                tiny__str_61_filename__
 .rodata.tiny__str_62_accept_req
                0x00000000006013ef       0x25 0x1 tiny_x86_64.o
                0x00000000006013ef                tiny__str_62_accept_req
 .rodata.tiny__str_63_File_not_f
                0x0000000000601414        0xf 0x1 tiny_x86_64.o
                0x0000000000601414                tiny__str_63_File_not_f
 .rodata.tiny__str_64_Not_found_
                0x0000000000601423        0xa 0x1 tiny_x86_64.o
                0x0000000000601423                tiny__str_64_Not_found_
 .rodata.tiny__str_65_stat_sbuf_
                0x000000000060142d       0x2d 0x1 tiny_x86_64.o
                0x000000000060142d                tiny__str_65_stat_sbuf_
 .rodata.tiny__str_66_Unknow_Err
                0x000000000060145a        0xd 0x1 tiny_x86_64.o
                0x000000000060145a                tiny__str_66_Unknow_Err
 .rodata.tiny__str_67_Error_
                0x0000000000601467        0x6 0x1 tiny_x86_64.o
                0x0000000000601467                tiny__str_67_Error_
 .rodata.tiny__str_68_listen_on_
                0x000000000060146d       0x1d 0x1 tiny_x86_64.o
                0x000000000060146d                tiny__str_68_listen_on_
 .rodata.tiny__str_69_ERROR_
                0x000000000060148a        0x6 0x1 tiny_x86_64.o
                0x000000000060148a                tiny__str_69_ERROR_
 .rodata.tiny__str_70_child_pid_
                0x0000000000601490       0x11 0x1 tiny_x86_64.o
                0x0000000000601490                tiny__str_70_child_pid_
 .rodata.tiny__str_71_fork_
                0x00000000006014a1        0x5 0x1 tiny_x86_64.o
                0x00000000006014a1                tiny__str_71_fork_
 .rodata.src_env___libc_start_main__str_
                0x00000000006014a6        0x1 0x1 /usr/local/popcorn/x86_64/lib/libc.a(__libc_start_main.o)
                0x00000000006014a6                src_env___libc_start_main__str_
 ** zero fill   0x00000000006014a7        0x9
 .rodata.src_env___libc_start_main___init_libc_pfd_
                0x00000000006014b0       0x18 0x10 /usr/local/popcorn/x86_64/lib/libc.a(__libc_start_main.o)
                0x00000000006014b0                src_env___libc_start_main___init_libc_pfd_
 .rodata.src_env___libc_start_main__str_1__dev_null_
                0x00000000006014c8        0xa 0x1 /usr/local/popcorn/x86_64/lib/libc.a(__libc_start_main.o)
                0x00000000006014c8                src_env___libc_start_main__str_1__dev_null_
 ** zero fill   0x00000000006014d2        0xe
 .rodata.src_malloc_malloc_c_bin_tab
                0x00000000006014e0       0x3c 0x10 /usr/local/popcorn/x86_64/lib/libc.a(malloc.o)
 ** zero fill   0x000000000060151c        0x4
 .rodata.src_malloc_popcorn_malloc_c_bin_tab
                0x0000000000601520       0x3c 0x10 /usr/local/popcorn/x86_64/lib/libc.a(popcorn_malloc.o)
 .rodata.src_network_inet_ntoa__str__d__d__d__
                0x000000000060155c        0xc 0x1 /usr/local/popcorn/x86_64/lib/libc.a(inet_ntoa.o)
                0x000000000060155c                src_network_inet_ntoa__str__d__d__d__
 .rodata.src_signal_block_c_all_mask
                0x0000000000601568        0x8 0x8 /usr/local/popcorn/x86_64/lib/libc.a(block.o)
 .rodata.src_signal_block_c_app_mask
                0x0000000000601570        0x8 0x8 /usr/local/popcorn/x86_64/lib/libc.a(block.o)
 .rodata.stderr
                0x0000000000601578        0x8 0x8 /usr/local/popcorn/x86_64/lib/libc.a(stderr.o)
                0x0000000000601578                stderr
 .rodata.stdout
                0x0000000000601580        0x8 0x8 /usr/local/popcorn/x86_64/lib/libc.a(stdout.o)
                0x0000000000601580                stdout
 .rodata.printf_core
                0x0000000000601588      0x170 0x8 /usr/local/popcorn/x86_64/lib/libc.a(vfprintf.o)
 .rodata.pop_arg
                0x00000000006016f8       0x90 0x8 /usr/local/popcorn/x86_64/lib/libc.a(vfprintf.o)
 ** zero fill   0x0000000000601788        0x8
 .rodata.src_stdio_vfprintf_c_states
                0x0000000000601790      0x1d0 0x10 /usr/local/popcorn/x86_64/lib/libc.a(vfprintf.o)
 .rodata.src_stdio_vfprintf__str______0X0x_
                0x0000000000601960        0xa 0x1 /usr/local/popcorn/x86_64/lib/libc.a(vfprintf.o)
                0x0000000000601960                src_stdio_vfprintf__str______0X0x_
 .rodata.src_stdio_vfprintf__str_1__null__
                0x000000000060196a        0x7 0x1 /usr/local/popcorn/x86_64/lib/libc.a(vfprintf.o)
                0x000000000060196a                src_stdio_vfprintf__str_1__null__
 ** zero fill   0x0000000000601971        0xf
 .rodata.src_stdio_vfprintf_c_xdigits
                0x0000000000601980       0x10 0x10 /usr/local/popcorn/x86_64/lib/libc.a(vfprintf.o)
 .rodata.src_stdio_vfprintf__str_2__0X_0X_0X_
                0x0000000000601990       0x13 0x1 /usr/local/popcorn/x86_64/lib/libc.a(vfprintf.o)
                0x0000000000601990                src_stdio_vfprintf__str_2__0X_0X_0X_
 .rodata.src_stdio_vfprintf__str_3_inf_
                0x00000000006019a3        0x4 0x1 /usr/local/popcorn/x86_64/lib/libc.a(vfprintf.o)
                0x00000000006019a3                src_stdio_vfprintf__str_3_inf_
 .rodata.src_stdio_vfprintf__str_4_INF_
                0x00000000006019a7        0x4 0x1 /usr/local/popcorn/x86_64/lib/libc.a(vfprintf.o)
                0x00000000006019a7                src_stdio_vfprintf__str_4_INF_
 .rodata.src_stdio_vfprintf__str_5_nan_
                0x00000000006019ab        0x4 0x1 /usr/local/popcorn/x86_64/lib/libc.a(vfprintf.o)
                0x00000000006019ab                src_stdio_vfprintf__str_5_nan_
 .rodata.src_stdio_vfprintf__str_6_NAN_
                0x00000000006019af        0x4 0x1 /usr/local/popcorn/x86_64/lib/libc.a(vfprintf.o)
                0x00000000006019af                src_stdio_vfprintf__str_6_NAN_
 .rodata.src_stdio_vfprintf__str_7___
                0x00000000006019b3        0x2 0x1 /usr/local/popcorn/x86_64/lib/libc.a(vfprintf.o)
                0x00000000006019b3                src_stdio_vfprintf__str_7___
 ** zero fill   0x00000000006019b5        0x3
 .rodata.__strftime_fmt_1
                0x00000000006019b8      0x2b0 0x8 /usr/local/popcorn/x86_64/lib/libc.a(strftime.o)
 .rodata.src_time_strftime__str___
                0x0000000000601c68        0x2 0x1 /usr/local/popcorn/x86_64/lib/libc.a(strftime.o)
                0x0000000000601c68                src_time_strftime__str___
 .rodata.src_time_strftime__str_1__m__d__y_
                0x0000000000601c6a        0x9 0x1 /usr/local/popcorn/x86_64/lib/libc.a(strftime.o)
                0x0000000000601c6a                src_time_strftime__str_1__m__d__y_
 .rodata.src_time_strftime__str_2__2d_
                0x0000000000601c73        0x4 0x1 /usr/local/popcorn/x86_64/lib/libc.a(strftime.o)
                0x0000000000601c73                d_::src_time_strftime__str_2(void)
 .rodata.src_time_strftime__str_3__Y__m__d_
                0x0000000000601c77        0x9 0x1 /usr/local/popcorn/x86_64/lib/libc.a(strftime.o)
                0x0000000000601c77                src_time_strftime__str_3__Y__m__d_
 .rodata.src_time_strftime__str_4___
                0x0000000000601c80        0x2 0x1 /usr/local/popcorn/x86_64/lib/libc.a(strftime.o)
                0x0000000000601c80                src_time_strftime__str_4___
 .rodata.src_time_strftime__str_5__H__M_
                0x0000000000601c82        0x6 0x1 /usr/local/popcorn/x86_64/lib/libc.a(strftime.o)
                0x0000000000601c82                src_time_strftime__str_5__H__M_
 .rodata.src_time_strftime__str_6___
                0x0000000000601c88        0x2 0x1 /usr/local/popcorn/x86_64/lib/libc.a(strftime.o)
                0x0000000000601c88                src_time_strftime__str_6___
 .rodata.src_time_strftime__str_7__H__M__S_
                0x0000000000601c8a        0x9 0x1 /usr/local/popcorn/x86_64/lib/libc.a(strftime.o)
                0x0000000000601c8a                src_time_strftime__str_7__H__M__S_
 .rodata.src_time_strftime__str_8___lld_
                0x0000000000601c93        0x6 0x1 /usr/local/popcorn/x86_64/lib/libc.a(strftime.o)
                0x0000000000601c93                src_time_strftime__str_8___lld_
 .rodata.src_time_strftime__str_9_
                0x0000000000601c99        0x1 0x1 /usr/local/popcorn/x86_64/lib/libc.a(strftime.o)
                0x0000000000601c99                src_time_strftime__str_9_
 .rodata.src_time_strftime__str_10____2d__2d_
                0x0000000000601c9a        0xa 0x1 /usr/local/popcorn/x86_64/lib/libc.a(strftime.o)
                0x0000000000601c9a                d_::src_time_strftime__str_10____2d(void)
 .rodata.src_time_strftime__str_11___
                0x0000000000601ca4        0x2 0x1 /usr/local/popcorn/x86_64/lib/libc.a(strftime.o)
                0x0000000000601ca4                src_time_strftime__str_11___
 .rodata.src_time_strftime__str_12__0_lld_
                0x0000000000601ca6        0x7 0x1 /usr/local/popcorn/x86_64/lib/libc.a(strftime.o)
                0x0000000000601ca6                src_time_strftime__str_12__0_lld_
 ** zero fill   0x0000000000601cad        0x3
 .rodata.src_errno_strerror_c_errid
                0x0000000000601cb0       0x58 0x10 /usr/local/popcorn/x86_64/lib/libc.a(strerror.o)
 ** zero fill   0x0000000000601d08        0x8
 .rodata.src_errno_strerror_c_errmsg
                0x0000000000601d10      0x70c 0x10 /usr/local/popcorn/x86_64/lib/libc.a(strerror.o)
 ** zero fill   0x000000000060241c        0x4
 .rodata.src_internal_intscan_c_table
                0x0000000000602420      0x101 0x10 /usr/local/popcorn/x86_64/lib/libc.a(intscan.o)
 .rodata.src_internal_intscan__str__________
                0x0000000000602521        0x9 0x1 /usr/local/popcorn/x86_64/lib/libc.a(intscan.o)
                0x0000000000602521                src_internal_intscan__str__________
 ** zero fill   0x000000000060252a        0x6
 .rodata.__nl_langinfo_l
                0x0000000000602530       0x28 0x8 /usr/local/popcorn/x86_64/lib/libc.a(langinfo.o)
 .rodata.src_locale_langinfo__str_ASCII_
                0x0000000000602558        0x6 0x1 /usr/local/popcorn/x86_64/lib/libc.a(langinfo.o)
                0x0000000000602558                src_locale_langinfo__str_ASCII_
 .rodata.src_locale_langinfo__str_1_UTF_8_
                0x000000000060255e        0x6 0x1 /usr/local/popcorn/x86_64/lib/libc.a(langinfo.o)
                0x000000000060255e                src_locale_langinfo__str_1_UTF_8_
 .rodata.src_locale_langinfo__str_2_C_
                0x0000000000602564        0x2 0x1 /usr/local/popcorn/x86_64/lib/libc.a(langinfo.o)
                0x0000000000602564                src_locale_langinfo__str_2_C_
 .rodata.src_locale_langinfo__str_3_
                0x0000000000602566        0x1 0x1 /usr/local/popcorn/x86_64/lib/libc.a(langinfo.o)
                0x0000000000602566                src_locale_langinfo__str_3_
 .rodata.src_locale_langinfo_c_c_numeric
                0x0000000000602567        0x3 0x1 /usr/local/popcorn/x86_64/lib/libc.a(langinfo.o)
 ** zero fill   0x000000000060256a        0x6
 .rodata.src_locale_langinfo_c_c_time
                0x0000000000602570      0x13c 0x10 /usr/local/popcorn/x86_64/lib/libc.a(langinfo.o)
 ** zero fill   0x00000000006026ac        0x4
 .rodata.src_locale_langinfo_c_c_messages
                0x00000000006026b0       0x13 0x10 /usr/local/popcorn/x86_64/lib/libc.a(langinfo.o)
 ** zero fill   0x00000000006026c3        0x5
 .rodata.vfscanf
                0x00000000006026c8      0x338 0x8 /usr/local/popcorn/x86_64/lib/libc.a(vfscanf.o)
 .rodata.src_time___secs_to_tm_c___secs_to_tm_days_in_month
                0x0000000000602a00        0xc 0x1 /usr/local/popcorn/x86_64/lib/libc.a(__secs_to_tm.o)
 .rodata.__gmt  0x0000000000602a0c        0x4 0x1 /usr/local/popcorn/x86_64/lib/libc.a(__tz.o)
                0x0000000000602a0c                __gmt
 .rodata.src_time___tz__str_
                0x0000000000602a10        0x1 0x1 /usr/local/popcorn/x86_64/lib/libc.a(__tz.o)
                0x0000000000602a10                src_time___tz__str_
 ** zero fill   0x0000000000602a11        0xf
 .rodata.src_time___tz_c_do_tzset_search
                0x0000000000602a20       0x36 0x10 /usr/local/popcorn/x86_64/lib/libc.a(__tz.o)
 .rodata.src_time___tz__str_1_TZ_
                0x0000000000602a56        0x3 0x1 /usr/local/popcorn/x86_64/lib/libc.a(__tz.o)
                0x0000000000602a56                src_time___tz__str_1_TZ_
 .rodata.src_time___tz__str_2__etc_local
                0x0000000000602a59        0xf 0x1 /usr/local/popcorn/x86_64/lib/libc.a(__tz.o)
                0x0000000000602a59                src_time___tz__str_2__etc_local
 .rodata.src_time___tz__str_3_TZif_
                0x0000000000602a68        0x5 0x1 /usr/local/popcorn/x86_64/lib/libc.a(__tz.o)
                0x0000000000602a68                src_time___tz__str_3_TZif_
 .rodata.src_internal_floatscan__str_infinity_
                0x0000000000602a6d        0x9 0x1 /usr/local/popcorn/x86_64/lib/libc.a(floatscan.o)
                0x0000000000602a6d                src_internal_floatscan__str_infinity_
 ** zero fill   0x0000000000602a76        0xa
 .rodata.src_internal_floatscan_c_decfloat_p10s
                0x0000000000602a80       0x20 0x10 /usr/local/popcorn/x86_64/lib/libc.a(floatscan.o)
 .rodata.src_internal_floatscan_switch_table_
                0x0000000000602aa0        0xc 0x4 /usr/local/popcorn/x86_64/lib/libc.a(floatscan.o)
                0x0000000000602aa0                src_internal_floatscan_switch_table_
 .rodata.src_internal_floatscan_switch_table_2_
                0x0000000000602aac        0xc 0x4 /usr/local/popcorn/x86_64/lib/libc.a(floatscan.o)
                0x0000000000602aac                src_internal_floatscan_switch_table_2_
 ** zero fill   0x0000000000602ab8        0x8
 .rodata.src_time___month_to_secs_c___month_to_secs_secs_through_month
                0x0000000000602ac0       0x30 0x10 /usr/local/popcorn/x86_64/lib/libc.a(__month_to_secs.o)
 .rodata.__fsmu8
                0x0000000000602af0       0xcc 0x10 /usr/local/popcorn/x86_64/lib/libc.a(internal.o)
                0x0000000000602af0                __fsmu8
 .rodata.src_migrate__str_Cannot_ret
                0x0000000000602bbc       0x29 0x1 /usr/local/popcorn/x86_64/lib/libmigrate.a(migrate.o)
                0x0000000000602bbc                src_migrate__str_Cannot_ret
 .rodata.src_migrate__str_1_Destinatio
                0x0000000000602be5       0x24 0x1 /usr/local/popcorn/x86_64/lib/libmigrate.a(migrate.o)
                0x0000000000602be5                src_migrate__str_1_Destinatio
 .rodata.src_migrate__str_2_0_____Unsu
                0x0000000000602c09       0x21 0x1 /usr/local/popcorn/x86_64/lib/libmigrate.a(migrate.o)
                0x0000000000602c09                src_migrate__str_2_0_____Unsu
 .rodata.src_migrate__str_3_src_migrat
                0x0000000000602c2a        0xe 0x1 /usr/local/popcorn/x86_64/lib/libmigrate.a(migrate.o)
                0x0000000000602c2a                src_migrate__str_3_src_migrat
 .rodata.src_migrate___func_____migrate_shim_internal___migrate_
                0x0000000000602c38       0x18 0x1 /usr/local/popcorn/x86_64/lib/libmigrate.a(migrate.o)
                0x0000000000602c38                src_migrate___func_____migrate_shim_internal___migrate_
 .rodata.src_migrate__str_4_Could_not_
                0x0000000000602c50       0x1a 0x1 /usr/local/popcorn/x86_64/lib/libmigrate.a(migrate.o)
                0x0000000000602c50                src_migrate__str_4_Could_not_
 .rodata.src_migrate__str_5_Could_not_
                0x0000000000602c6a       0x1a 0x1 /usr/local/popcorn/x86_64/lib/libmigrate.a(migrate.o)
                0x0000000000602c6a                src_migrate__str_5_Could_not_
 .rodata.src_mapping__str_POPCORN_TH
                0x0000000000602c84       0x18 0x1 /usr/local/popcorn/x86_64/lib/libmigrate.a(mapping.o)
                0x0000000000602c84                src_mapping__str_POPCORN_TH
 .rodata.src_mapping__str_1_thread_sch
                0x0000000000602c9c       0x14 0x1 /usr/local/popcorn/x86_64/lib/libmigrate.a(mapping.o)
                0x0000000000602c9c                src_mapping__str_1_thread_sch
 .rodata.src_mapping__str_2_r_
                0x0000000000602cb0        0x2 0x1 /usr/local/popcorn/x86_64/lib/libmigrate.a(mapping.o)
                0x0000000000602cb0                src_mapping__str_2_r_
 .rodata.src_mapping__str_3__lu__lu_
                0x0000000000602cb2        0x8 0x1 /usr/local/popcorn/x86_64/lib/libmigrate.a(mapping.o)
                0x0000000000602cb2                src_mapping__str_3__lu__lu_
 .rodata.src_mapping__str_4__d_
                0x0000000000602cba        0x3 0x1 /usr/local/popcorn/x86_64/lib/libmigrate.a(mapping.o)
                0x0000000000602cba                src_mapping__str_4__d_
 .rodata.src_userspace__str_ST_AARCH64
                0x0000000000602cbd        0xf 0x1 /usr/local/popcorn/x86_64/lib/libstack-transform.a(userspace.o)
                0x0000000000602cbd                src_userspace__str_ST_AARCH64
 .rodata.src_userspace__str_1__s_aarch64
                0x0000000000602ccc        0xb 0x1 /usr/local/popcorn/x86_64/lib/libstack-transform.a(userspace.o)
                0x0000000000602ccc                src_userspace__str_1__s_aarch64
 .rodata.src_userspace__str_2_ST_POWERPC
                0x0000000000602cd7       0x11 0x1 /usr/local/popcorn/x86_64/lib/libstack-transform.a(userspace.o)
                0x0000000000602cd7                src_userspace__str_2_ST_POWERPC
 .rodata.src_userspace__str_3__s_powerpc
                0x0000000000602ce8        0xd 0x1 /usr/local/popcorn/x86_64/lib/libstack-transform.a(userspace.o)
                0x0000000000602ce8                src_userspace__str_3__s_powerpc
 .rodata.src_userspace__str_4_ST_X86_64_
                0x0000000000602cf5        0xe 0x1 /usr/local/popcorn/x86_64/lib/libstack-transform.a(userspace.o)
                0x0000000000602cf5                src_userspace__str_4_ST_X86_64_
 .rodata.src_userspace__str_5__s_x86_64_
                0x0000000000602d03        0xa 0x1 /usr/local/popcorn/x86_64/lib/libstack-transform.a(userspace.o)
                0x0000000000602d03                src_userspace__str_5__s_x86_64_
 .rodata.src_userspace__str_6__proc__d_m
                0x0000000000602d0d        0xe 0x1 /usr/local/popcorn/x86_64/lib/libstack-transform.a(userspace.o)
                0x0000000000602d0d                src_userspace__str_6__proc__d_m
 .rodata.src_userspace__str_7_r_
                0x0000000000602d1b        0x2 0x1 /usr/local/popcorn/x86_64/lib/libstack-transform.a(userspace.o)
                0x0000000000602d1b                src_userspace__str_7_r_
 .rodata.src_userspace__str_8__lx__lx__s
                0x0000000000602d1d       0x19 0x1 /usr/local/popcorn/x86_64/lib/libstack-transform.a(userspace.o)
                0x0000000000602d1d                src_userspace__str_8__lx__lx(short)
 .rodata.src_userspace__str_9__stack__
                0x0000000000602d36        0x8 0x1 /usr/local/popcorn/x86_64/lib/libstack-transform.a(userspace.o)
                0x0000000000602d36                src_userspace__str_9__stack__
 ** zero fill   0x0000000000602d3e        0x2
 .rodata.src_userspace_switch_table_10_
                0x0000000000602d40       0x18 0x10 /usr/local/popcorn/x86_64/lib/libstack-transform.a(userspace.o)
                0x0000000000602d40                src_userspace_switch_table_10_
 .rodata.src_init__str__stack_tra
                0x0000000000602d58       0x1f 0x1 /usr/local/popcorn/x86_64/lib/libstack-transform.a(init.o)
                0x0000000000602d58                src_init__str__stack_tra
 .rodata.src_init__str_1__stack_tra
                0x0000000000602d77       0x18 0x1 /usr/local/popcorn/x86_64/lib/libstack-transform.a(init.o)
                0x0000000000602d77                src_init__str_1__stack_tra
 .rodata.src_init__str_2__stack_tra
                0x0000000000602d8f       0x14 0x1 /usr/local/popcorn/x86_64/lib/libstack-transform.a(init.o)
                0x0000000000602d8f                src_init__str_2__stack_tra
 .rodata.src_init__str_3__stack_tra
                0x0000000000602da3       0x16 0x1 /usr/local/popcorn/x86_64/lib/libstack-transform.a(init.o)
                0x0000000000602da3                src_init__str_3__stack_tra
 .rodata.src_init__str_4__stack_tra
                0x0000000000602db9       0x16 0x1 /usr/local/popcorn/x86_64/lib/libstack-transform.a(init.o)
                0x0000000000602db9                src_init__str_4__stack_tra
 .rodata.src_init__str_5__stack_tra
                0x0000000000602dcf       0x1c 0x1 /usr/local/popcorn/x86_64/lib/libstack-transform.a(init.o)
                0x0000000000602dcf                src_init__str_5__stack_tra
 .rodata.src_rewrite__str__src_rewri
                0x0000000000602deb       0x42 0x1 /usr/local/popcorn/x86_64/lib/libstack-transform.a(rewrite.o)
                0x0000000000602deb                src_rewrite__str__src_rewri
 .rodata.src_rewrite__str_1__src_rewri
                0x0000000000602e2d       0x68 0x1 /usr/local/popcorn/x86_64/lib/libstack-transform.a(rewrite.o)
                0x0000000000602e2d                src_rewrite__str_1__src_rewri
 .rodata.src_rewrite__str_2__src_rewri
                0x0000000000602e95       0x54 0x1 /usr/local/popcorn/x86_64/lib/libstack-transform.a(rewrite.o)
                0x0000000000602e95                src_rewrite__str_2__src_rewri
 .rodata.src_rewrite__str_3__src_rewri
                0x0000000000602ee9       0x61 0x1 /usr/local/popcorn/x86_64/lib/libstack-transform.a(rewrite.o)
                0x0000000000602ee9                src_rewrite__str_3__src_rewri
 .rodata.src_util__str_aarch64_
                0x0000000000602f4a        0x8 0x1 /usr/local/popcorn/x86_64/lib/libstack-transform.a(util.o)
                0x0000000000602f4a                src_util__str_aarch64_
 .rodata.src_util__str_1_powerpc64_
                0x0000000000602f52        0xa 0x1 /usr/local/popcorn/x86_64/lib/libstack-transform.a(util.o)
                0x0000000000602f52                src_util__str_1_powerpc64_
 .rodata.src_util__str_2_x86_64_
                0x0000000000602f5c        0x7 0x1 /usr/local/popcorn/x86_64/lib/libstack-transform.a(util.o)
                0x0000000000602f5c                src_util__str_2_x86_64_
 .rodata.src_util__str_3_unknown_un
                0x0000000000602f63       0x21 0x1 /usr/local/popcorn/x86_64/lib/libstack-transform.a(util.o)
                0x0000000000602f63                src_util__str_3_unknown_un
 ** zero fill   0x0000000000602f84        0xc
 .rodata.src_arch_aarch64_properties_c_callee_saved_aarch64
                0x0000000000602f90       0x28 0x10 /usr/local/popcorn/x86_64/lib/libstack-transform.a(properties.o)
 ** zero fill   0x0000000000602fb8        0x8
 .rodata.src_arch_aarch64_properties_c_callee_saved_size_aarch64
                0x0000000000602fc0       0x28 0x10 /usr/local/popcorn/x86_64/lib/libstack-transform.a(properties.o)
 .rodata.properties_aarch64
                0x0000000000602fe8       0x38 0x8 /usr/local/popcorn/x86_64/lib/libstack-transform.a(properties.o)
                0x0000000000602fe8                properties_aarch64
 .rodata.src_arch_aarch64_properties__str__src_arch_
                0x0000000000603020       0x51 0x1 /usr/local/popcorn/x86_64/lib/libstack-transform.a(properties.o)
                0x0000000000603020                src_arch_aarch64_properties__str__src_arch_
 ** zero fill   0x0000000000603071        0x7
 .rodata.reg_aarch64
                0x0000000000603078      0x300 0x8 /usr/local/popcorn/x86_64/lib/libstack-transform.a(regs.o)
 .rodata.regs_aarch64
                0x0000000000603378       0xa8 0x8 /usr/local/popcorn/x86_64/lib/libstack-transform.a(regs.o)
                0x0000000000603378                regs_aarch64
 .rodata.src_arch_aarch64_regs__str__src_arch_
                0x0000000000603420       0x4c 0x1 /usr/local/popcorn/x86_64/lib/libstack-transform.a(regs.o)
                0x0000000000603420                src_arch_aarch64_regs__str__src_arch_
 .rodata.src_arch_aarch64_regs__str_1__src_arch_
                0x000000000060346c       0x4c 0x1 /usr/local/popcorn/x86_64/lib/libstack-transform.a(regs.o)
                0x000000000060346c                src_arch_aarch64_regs__str_1__src_arch_
 .rodata.is_callee_saved_powerpc64
                0x00000000006034b8      0x208 0x8 /usr/local/popcorn/x86_64/lib/libstack-transform.a(properties.o)
 .rodata.callee_reg_size_powerpc64
                0x00000000006036c0      0x210 0x8 /usr/local/popcorn/x86_64/lib/libstack-transform.a(properties.o)
 .rodata.src_arch_powerpc64_properties_c_callee_saved_powerpc64
                0x00000000006038d0       0x4e 0x10 /usr/local/popcorn/x86_64/lib/libstack-transform.a(properties.o)
 ** zero fill   0x000000000060391e        0x2
 .rodata.src_arch_powerpc64_properties_c_callee_saved_size_powerpc64
                0x0000000000603920       0x4c 0x10 /usr/local/popcorn/x86_64/lib/libstack-transform.a(properties.o)
 ** zero fill   0x000000000060396c        0x4
 .rodata.properties_powerpc64
                0x0000000000603970       0x38 0x8 /usr/local/popcorn/x86_64/lib/libstack-transform.a(properties.o)
                0x0000000000603970                properties_powerpc64
 .rodata.src_arch_powerpc64_properties__str__src_arch_
                0x00000000006039a8       0x56 0x1 /usr/local/popcorn/x86_64/lib/libstack-transform.a(properties.o)
                0x00000000006039a8                src_arch_powerpc64_properties__str__src_arch_
 ** zero fill   0x00000000006039fe        0x2
 .rodata.reg_powerpc64
                0x0000000000603a00      0x218 0x8 /usr/local/popcorn/x86_64/lib/libstack-transform.a(regs.o)
 .rodata.regs_powerpc64
                0x0000000000603c18       0xa8 0x8 /usr/local/popcorn/x86_64/lib/libstack-transform.a(regs.o)
                0x0000000000603c18                regs_powerpc64
 .rodata.src_arch_powerpc64_regs__str__src_arch_
                0x0000000000603cc0       0x50 0x1 /usr/local/popcorn/x86_64/lib/libstack-transform.a(regs.o)
                0x0000000000603cc0                src_arch_powerpc64_regs__str__src_arch_
 .rodata.src_arch_powerpc64_regs__str_1__src_arch_
                0x0000000000603d10       0x50 0x1 /usr/local/popcorn/x86_64/lib/libstack-transform.a(regs.o)
                0x0000000000603d10                src_arch_powerpc64_regs__str_1__src_arch_
 .rodata.src_arch_x86_64_properties_c_callee_saved_x86_64
                0x0000000000603d60        0xe 0x2 /usr/local/popcorn/x86_64/lib/libstack-transform.a(properties.o)
 .rodata.src_arch_x86_64_properties_c_callee_saved_size_x86_64
                0x0000000000603d6e        0xe 0x2 /usr/local/popcorn/x86_64/lib/libstack-transform.a(properties.o)
 ** zero fill   0x0000000000603d7c        0x4
 .rodata.properties_x86_64
                0x0000000000603d80       0x38 0x8 /usr/local/popcorn/x86_64/lib/libstack-transform.a(properties.o)
                0x0000000000603d80                properties_x86_64
 .rodata.src_arch_x86_64_properties__str__src_arch_
                0x0000000000603db8       0x4f 0x1 /usr/local/popcorn/x86_64/lib/libstack-transform.a(properties.o)
                0x0000000000603db8                src_arch_x86_64_properties__str__src_arch_
 ** zero fill   0x0000000000603e07        0x1
 .rodata.reg_x86_64
                0x0000000000603e08      0x108 0x8 /usr/local/popcorn/x86_64/lib/libstack-transform.a(regs.o)
 .rodata.regs_x86_64
                0x0000000000603f10       0xa8 0x8 /usr/local/popcorn/x86_64/lib/libstack-transform.a(regs.o)
                0x0000000000603f10                regs_x86_64
 .rodata.src_arch_x86_64_regs__str__src_arch_
                0x0000000000603fb8       0x4b 0x1 /usr/local/popcorn/x86_64/lib/libstack-transform.a(regs.o)
                0x0000000000603fb8                src_arch_x86_64_regs__str__src_arch_
 .rodata.src_arch_x86_64_regs__str_1__src_arch_
                0x0000000000604003       0x4b 0x1 /usr/local/popcorn/x86_64/lib/libstack-transform.a(regs.o)
                0x0000000000604003                src_arch_x86_64_regs__str_1__src_arch_
 .rodata.src_arch_x86_64_regs__str_2__src_arch_
                0x000000000060404e       0x4a 0x1 /usr/local/popcorn/x86_64/lib/libstack-transform.a(regs.o)
                0x000000000060404e                src_arch_x86_64_regs__str_2__src_arch_
 .rodata.src_arch_x86_64_regs__str_3__src_arch_
                0x0000000000604098       0x4a 0x1 /usr/local/popcorn/x86_64/lib/libstack-transform.a(regs.o)
                0x0000000000604098                src_arch_x86_64_regs__str_3__src_arch_
 ** zero fill   0x00000000006040e2        0x6
 .rodata.put_val_arch
                0x00000000006040e8       0xb0 0x8 /usr/local/popcorn/x86_64/lib/libstack-transform.a(data.o)
 .rodata.points_to_stack
                0x0000000000604198       0x28 0x8 /usr/local/popcorn/x86_64/lib/libstack-transform.a(data.o)
 .rodata.src_data__str__src_data_
                0x00000000006041c0       0x50 0x1 /usr/local/popcorn/x86_64/lib/libstack-transform.a(data.o)
                0x00000000006041c0                src_data__str__src_data_
 .rodata.src_data__str_1__src_data_
                0x0000000000604210       0x3d 0x1 /usr/local/popcorn/x86_64/lib/libstack-transform.a(data.o)
                0x0000000000604210                src_data__str_1__src_data_
 .rodata.src_data__str_2__src_data_
                0x000000000060424d       0x30 0x1 /usr/local/popcorn/x86_64/lib/libstack-transform.a(data.o)
                0x000000000060424d                src_data__str_2__src_data_
 .rodata.src_data__str_3__src_data_
                0x000000000060427d       0x49 0x1 /usr/local/popcorn/x86_64/lib/libstack-transform.a(data.o)
                0x000000000060427d                src_data__str_3__src_data_
 .rodata.src_data__str_4__src_data_
                0x00000000006042c6       0x3f 0x1 /usr/local/popcorn/x86_64/lib/libstack-transform.a(data.o)
                0x00000000006042c6                src_data__str_4__src_data_
 .rodata.src_data__str_5__src_data_
                0x0000000000604305       0x3d 0x1 /usr/local/popcorn/x86_64/lib/libstack-transform.a(data.o)
                0x0000000000604305                src_data__str_5__src_data_
 .rodata.src_data__str_6__src_data_
                0x0000000000604342       0x3f 0x1 /usr/local/popcorn/x86_64/lib/libstack-transform.a(data.o)
                0x0000000000604342                src_data__str_6__src_data_
 .rodata.src_data__str_7__src_data_
                0x0000000000604381       0x37 0x1 /usr/local/popcorn/x86_64/lib/libstack-transform.a(data.o)
                0x0000000000604381                src_data__str_7__src_data_
 .rodata.src_data__str_8__src_data_
                0x00000000006043b8       0x37 0x1 /usr/local/popcorn/x86_64/lib/libstack-transform.a(data.o)
                0x00000000006043b8                src_data__str_8__src_data_
 .rodata.src_data__str_9__src_data_
                0x00000000006043ef       0x3f 0x1 /usr/local/popcorn/x86_64/lib/libstack-transform.a(data.o)
                0x00000000006043ef                src_data__str_9__src_data_
 .rodata.src_data__str_10__src_data_
                0x000000000060442e       0x3f 0x1 /usr/local/popcorn/x86_64/lib/libstack-transform.a(data.o)
                0x000000000060442e                src_data__str_10__src_data_
 ** zero fill   0x000000000060446d        0x3
 .rodata.elf_begin
                0x0000000000604470       0x40 0x8 /usr/local/popcorn/x86_64/lib/libelf.a(begin.o)
 .rodata.begin_c__elf_init
                0x00000000006044b0       0xe0 0x8 /usr/local/popcorn/x86_64/lib/libelf.a(begin.o)
 .rodata.begin_c_fmag
                0x0000000000604590        0x3 0x1 /usr/local/popcorn/x86_64/lib/libelf.a(begin.o)
 .rodata.begin__str__ELF_
                0x0000000000604593        0x5 0x1 /usr/local/popcorn/x86_64/lib/libelf.a(begin.o)
                0x0000000000604593                begin__str__ELF_
 .rodata.begin__str_1___arch___
                0x0000000000604598        0x9 0x1 /usr/local/popcorn/x86_64/lib/libelf.a(begin.o)
                0x0000000000604598                begin__str_1___arch___
 .rodata.version__str_LIBELF_SAN
                0x00000000006045a1       0x15 0x1 /usr/local/popcorn/x86_64/lib/libelf.a(version.o)
                0x00000000006045a1                version__str_LIBELF_SAN
 ** zero fill   0x00000000006045b6        0xa
 .rodata.32_xlatetof_c_xlate32_11
                0x00000000006045c0      0x220 0x10 /usr/local/popcorn/x86_64/lib/libelf.a(32.xlatetof.o)
 .rodata._elf_scn_type
                0x00000000006047e0       0x88 0x8 /usr/local/popcorn/x86_64/lib/libelf.a(cook.o)
 .rodata._elf_cook
                0x0000000000604868      0x110 0x8 /usr/local/popcorn/x86_64/lib/libelf.a(cook.o)
 .rodata._elf_scn_init
                0x0000000000604978       0xa0 0x8 /usr/local/popcorn/x86_64/lib/libelf.a(cook.o)
                0x0000000000604978                _elf_scn_init
 .rodata._elf_data_init
                0x0000000000604a18       0x58 0x8 /usr/local/popcorn/x86_64/lib/libelf.a(cook.o)
                0x0000000000604a18                _elf_data_init
 .rodata.64_xlatetof_c_xlate64_11
                0x0000000000604a70      0x220 0x10 /usr/local/popcorn/x86_64/lib/libelf.a(64.xlatetof.o)
 .rodata._elf_fmsize
                0x0000000000604c90      0x220 0x10 /usr/local/popcorn/x86_64/lib/libelf.a(32.fsize.o)
                0x0000000000604c90                _elf_fmsize
 .rodata.src_exit_assert__str_Assertion_
                0x0000000000604eb0       0x23 0x1 /usr/local/popcorn/x86_64/lib/libc.a(assert.o)
                0x0000000000604eb0                src_exit_assert__str_Assertion_
 .rodata.src_stdio_fopen__str_rwa_
                0x0000000000604ed3        0x4 0x1 /usr/local/popcorn/x86_64/lib/libc.a(fopen.o)
                0x0000000000604ed3                src_stdio_fopen__str_rwa_
 ** zero fill   0x0000000000604ed7        0x9
 .rodata.src_stdlib_qsort_qsort_p_
                0x0000000000604ee0       0x10 0x10 /usr/local/popcorn/x86_64/lib/libc.a(qsort.o)
                0x0000000000604ee0                src_stdlib_qsort_qsort_p_
 .rodata.src_stdio___fdopen__str_rwa_
                0x0000000000604ef0        0x4 0x1 /usr/local/popcorn/x86_64/lib/libc.a(__fdopen.o)
                0x0000000000604ef0                src_stdio___fdopen__str_rwa_
 ** zero fill   0x0000000000604ef4        0xc
 .rodata.src_arch_x86_64_regs_switch_table_
                0x0000000000604f00       0x42 0x10 /usr/local/popcorn/x86_64/lib/libstack-transform.a(regs.o)
                0x0000000000604f00                src_arch_x86_64_regs_switch_table_

.rodata.cst8    0x0000000000604f48       0x40
 ** merge constants
                0x0000000000604f48       0x40

.rodata.cst4    0x0000000000604f88       0x2c
 ** merge constants
                0x0000000000604f88       0x2c

.rodata.cst16   0x0000000000604fc0       0xb0
 ** merge constants
                0x0000000000604fc0       0xb0

.data           0x0000000000700000     0x1320
 ** zero fill   0x0000000000700000        0x1
 ** zero fill   0x0000000000700001      0xfff
 .data.meme_types
                0x0000000000701000       0xe0 0x10 tiny_x86_64.o
                0x0000000000701000                meme_types
 .data.default_mime_type
                0x00000000007010e0        0x8 0x8 tiny_x86_64.o
                0x00000000007010e0                default_mime_type
 .data.src_stdio_stderr_c_f
                0x00000000007010e8       0xe8 0x8 /usr/local/popcorn/x86_64/lib/libc.a(stderr.o)
 .data.__stderr_used
                0x00000000007011d0        0x8 0x8 /usr/local/popcorn/x86_64/lib/libc.a(stderr.o)
                0x00000000007011d0                __stderr_used
 .data.src_stdio_stdout_c_f
                0x00000000007011d8       0xe8 0x8 /usr/local/popcorn/x86_64/lib/libc.a(stdout.o)
 .data.__stdout_used
                0x00000000007012c0        0x8 0x8 /usr/local/popcorn/x86_64/lib/libc.a(stdout.o)
                0x00000000007012c0                __stdout_used
 .data.src_time___tz_c_old_tz
                0x00000000007012c8        0x8 0x8 /usr/local/popcorn/x86_64/lib/libc.a(__tz.o)
 .data.src_time___tz_c_old_tz_size
                0x00000000007012d0        0x8 0x8 /usr/local/popcorn/x86_64/lib/libc.a(__tz.o)
 .data.src_migrate_c_origin_nid
                0x00000000007012d8        0x4 0x4 /usr/local/popcorn/x86_64/lib/libmigrate.a(migrate.o)
 .data._elf_sanity_checks
                0x00000000007012dc        0x4 0x4 /usr/local/popcorn/x86_64/lib/libelf.a(data.o)
                0x00000000007012dc                _elf_sanity_checks
 .data.__pthread_tsd_size
                0x00000000007012e0        0x8 0x8 /usr/local/popcorn/x86_64/lib/libc.a(pthread_key_create.o)
                0x00000000007012e0                __pthread_tsd_size
 ** zero fill   0x00000000007012e8       0x10
 ** zero fill   0x00000000007012f8       0x10
 ** zero fill   0x0000000000701308        0x8
 ** zero fill   0x0000000000701310       0x10
 .data          0x0000000000701320        0x0 0x4 tiny_x86_64.o
 .data          0x0000000000701320        0x0 0x4 /usr/local/popcorn/x86_64/lib/crt1.o
 .data          0x0000000000701320        0x0 0x4 /usr/local/popcorn/x86_64/lib/libc.a(closedir.o)
 .data          0x0000000000701320        0x0 0x4 /usr/local/popcorn/x86_64/lib/libc.a(fdopendir.o)
 .data          0x0000000000701320        0x0 0x4 /usr/local/popcorn/x86_64/lib/libc.a(readdir.o)
 .data          0x0000000000701320        0x0 0x4 /usr/local/popcorn/x86_64/lib/libc.a(__libc_start_main.o)
 .data          0x0000000000701320        0x0 0x4 /usr/local/popcorn/x86_64/lib/libc.a(__errno_location.o)
 .data          0x0000000000701320        0x0 0x4 /usr/local/popcorn/x86_64/lib/libc.a(exit.o)
 .data          0x0000000000701320        0x0 0x4 /usr/local/popcorn/x86_64/lib/libc.a(fcntl.o)
 .data          0x0000000000701320        0x0 0x4 /usr/local/popcorn/x86_64/lib/libc.a(open.o)
 .data          0x0000000000701320        0x0 0x4 /usr/local/popcorn/x86_64/lib/libc.a(openat.o)
 .data          0x0000000000701320        0x0 0x4 /usr/local/popcorn/x86_64/lib/libc.a(libc.o)
 .data          0x0000000000701320        0x0 0x4 /usr/local/popcorn/x86_64/lib/libc.a(syscall_ret.o)
 .data          0x0000000000701320        0x0 0x4 /usr/local/popcorn/x86_64/lib/libc.a(sendfile.o)
 .data          0x0000000000701320        0x0 0x4 /usr/local/popcorn/x86_64/lib/libc.a(calloc.o)
 .data          0x0000000000701320        0x0 0x4 /usr/local/popcorn/x86_64/lib/libc.a(lite_malloc.o)
 .data          0x0000000000701320        0x0 0x4 /usr/local/popcorn/x86_64/lib/libc.a(malloc.o)
 .data          0x0000000000701320        0x0 0x4 /usr/local/popcorn/x86_64/lib/libc.a(popcorn_malloc.o)
 .data          0x0000000000701320        0x0 0x4 /usr/local/popcorn/x86_64/lib/libc.a(madvise.o)
 .data          0x0000000000701320        0x0 0x4 /usr/local/popcorn/x86_64/lib/libc.a(mmap.o)
 .data          0x0000000000701320        0x0 0x4 /usr/local/popcorn/x86_64/lib/libc.a(mremap.o)
 .data          0x0000000000701320        0x0 0x4 /usr/local/popcorn/x86_64/lib/libc.a(munmap.o)
 .data          0x0000000000701320        0x0 0x4 /usr/local/popcorn/x86_64/lib/libc.a(accept.o)
 .data          0x0000000000701320        0x0 0x4 /usr/local/popcorn/x86_64/lib/libc.a(bind.o)
 .data          0x0000000000701320        0x0 0x4 /usr/local/popcorn/x86_64/lib/libc.a(htonl.o)
 .data          0x0000000000701320        0x0 0x4 /usr/local/popcorn/x86_64/lib/libc.a(htons.o)
 .data          0x0000000000701320        0x0 0x4 /usr/local/popcorn/x86_64/lib/libc.a(inet_ntoa.o)
 .data          0x0000000000701320        0x0 0x4 /usr/local/popcorn/x86_64/lib/libc.a(listen.o)
 .data          0x0000000000701320        0x0 0x4 /usr/local/popcorn/x86_64/lib/libc.a(ntohs.o)
 .data          0x0000000000701320        0x0 0x4 /usr/local/popcorn/x86_64/lib/libc.a(setsockopt.o)
 .data          0x0000000000701320        0x0 0x4 /usr/local/popcorn/x86_64/lib/libc.a(socket.o)
 .data          0x0000000000701320        0x0 0x4 /usr/local/popcorn/x86_64/lib/libc.a(fork.o)
 .data          0x0000000000701320        0x0 0x4 /usr/local/popcorn/x86_64/lib/libc.a(block.o)
 .data          0x0000000000701320        0x0 0x4 /usr/local/popcorn/x86_64/lib/libc.a(signal.o)
 .data          0x0000000000701320        0x0 0x4 /usr/local/popcorn/x86_64/lib/libc.a(fstat.o)
 .data          0x0000000000701320        0x0 0x4 /usr/local/popcorn/x86_64/lib/libc.a(perror.o)
 .data          0x0000000000701320        0x0 0x4 /usr/local/popcorn/x86_64/lib/libc.a(printf.o)
 .data          0x0000000000701320        0x0 0x4 /usr/local/popcorn/x86_64/lib/libc.a(snprintf.o)
 .data          0x0000000000701320        0x0 0x4 /usr/local/popcorn/x86_64/lib/libc.a(sprintf.o)
 .data          0x0000000000701320        0x0 0x4 /usr/local/popcorn/x86_64/lib/libc.a(sscanf.o)
 .data          0x0000000000701320        0x0 0x4 /usr/local/popcorn/x86_64/lib/libc.a(stderr.o)
 .data          0x0000000000701320        0x0 0x4 /usr/local/popcorn/x86_64/lib/libc.a(stdout.o)
 .data          0x0000000000701320        0x0 0x4 /usr/local/popcorn/x86_64/lib/libc.a(vfprintf.o)
 .data          0x0000000000701320        0x0 0x4 /usr/local/popcorn/x86_64/lib/libc.a(vsnprintf.o)
 .data          0x0000000000701320        0x0 0x4 /usr/local/popcorn/x86_64/lib/libc.a(vsprintf.o)
 .data          0x0000000000701320        0x0 0x4 /usr/local/popcorn/x86_64/lib/libc.a(vsscanf.o)
 .data          0x0000000000701320        0x0 0x4 /usr/local/popcorn/x86_64/lib/libc.a(atoi.o)
 .data          0x0000000000701320        0x0 0x4 /usr/local/popcorn/x86_64/lib/libc.a(strtol.o)
 .data          0x0000000000701320        0x0 0x4 /usr/local/popcorn/x86_64/lib/libc.a(strcmp.o)
 .data          0x0000000000701320        0x0 0x4 /usr/local/popcorn/x86_64/lib/libc.a(strlen.o)
 .data          0x0000000000701320        0x0 0x4 /usr/local/popcorn/x86_64/lib/libc.a(strnlen.o)
 .data          0x0000000000701320        0x0 0x4 /usr/local/popcorn/x86_64/lib/libc.a(strrchr.o)
 .data          0x0000000000701320        0x0 0x4 /usr/local/popcorn/x86_64/lib/libc.a(memcpy.o)
 .data          0x0000000000701320        0x0 0x4 /usr/local/popcorn/x86_64/lib/libc.a(memset.o)
 .data          0x0000000000701320        0x0 0x4 /usr/local/popcorn/x86_64/lib/libc.a(__lock.o)
 .data          0x0000000000701320        0x0 0x4 /usr/local/popcorn/x86_64/lib/libc.a(__syscall_cp.o)
 .data          0x0000000000701320        0x0 0x4 /usr/local/popcorn/x86_64/lib/libc.a(__wait.o)
 .data          0x0000000000701320        0x0 0x4 /usr/local/popcorn/x86_64/lib/libc.a(localtime.o)
 .data          0x0000000000701320        0x0 0x4 /usr/local/popcorn/x86_64/lib/libc.a(localtime_r.o)
 .data          0x0000000000701320        0x0 0x4 /usr/local/popcorn/x86_64/lib/libc.a(strftime.o)
 .data          0x0000000000701320        0x0 0x4 /usr/local/popcorn/x86_64/lib/libc.a(chdir.o)
 .data          0x0000000000701320        0x0 0x4 /usr/local/popcorn/x86_64/lib/libc.a(close.o)
 .data          0x0000000000701320        0x0 0x4 /usr/local/popcorn/x86_64/lib/libc.a(getcwd.o)
 .data          0x0000000000701320        0x0 0x4 /usr/local/popcorn/x86_64/lib/libc.a(getpid.o)
 .data          0x0000000000701320        0x0 0x4 /usr/local/popcorn/x86_64/lib/libc.a(read.o)
 .data          0x0000000000701320        0x0 0x4 /usr/local/popcorn/x86_64/lib/libc.a(write.o)
 .data          0x0000000000701320        0x0 0x4 /usr/local/popcorn/x86_64/lib/libc.a(__environ.o)
 .data          0x0000000000701320        0x0 0x4 /usr/local/popcorn/x86_64/lib/libc.a(__init_tls.o)
 .data          0x0000000000701320        0x0 0x4 /usr/local/popcorn/x86_64/lib/libc.a(strerror.o)
 .data          0x0000000000701320        0x0 0x4 /usr/local/popcorn/x86_64/lib/libc.a(_Exit.o)
 .data          0x0000000000701320        0x0 0x4 /usr/local/popcorn/x86_64/lib/libc.a(intscan.o)
 .data          0x0000000000701320        0x0 0x4 /usr/local/popcorn/x86_64/lib/libc.a(procfdname.o)
 .data          0x0000000000701320        0x0 0x4 /usr/local/popcorn/x86_64/lib/libc.a(shgetc.o)
 .data          0x0000000000701320        0x0 0x4 /usr/local/popcorn/x86_64/lib/libc.a(syscall.o)
 .data          0x0000000000701320        0x0 0x4 /usr/local/popcorn/x86_64/lib/libc.a(__lctrans.o)
 .data          0x0000000000701320        0x0 0x4 /usr/local/popcorn/x86_64/lib/libc.a(langinfo.o)
 .data          0x0000000000701320        0x0 0x4 /usr/local/popcorn/x86_64/lib/libc.a(expand_heap.o)
 .data          0x0000000000701320        0x0 0x4 /usr/local/popcorn/x86_64/lib/libc.a(__fpclassifyl.o)
 .data          0x0000000000701320        0x0 0x4 /usr/local/popcorn/x86_64/lib/libc.a(__signbitl.o)
 .data          0x0000000000701320        0x0 0x4 /usr/local/popcorn/x86_64/lib/libc.a(frexpl.o)
 .data          0x0000000000701320        0x0 0x4 /usr/local/popcorn/x86_64/lib/libc.a(wctomb.o)
 .data          0x0000000000701320        0x0 0x4 /usr/local/popcorn/x86_64/lib/libc.a(sigaction.o)
 .data          0x0000000000701320        0x0 0x4 /usr/local/popcorn/x86_64/lib/libc.a(restore.o)
 .data          0x0000000000701320        0x0 0x4 /usr/local/popcorn/x86_64/lib/libc.a(__lockfile.o)
 .data          0x0000000000701320        0x0 0x4 /usr/local/popcorn/x86_64/lib/libc.a(__stdio_close.o)
 .data          0x0000000000701320        0x0 0x4 /usr/local/popcorn/x86_64/lib/libc.a(__stdio_seek.o)
 .data          0x0000000000701320        0x0 0x4 /usr/local/popcorn/x86_64/lib/libc.a(__stdio_write.o)
 .data          0x0000000000701320        0x0 0x4 /usr/local/popcorn/x86_64/lib/libc.a(__stdout_write.o)
 .data          0x0000000000701320        0x0 0x4 /usr/local/popcorn/x86_64/lib/libc.a(__string_read.o)
 .data          0x0000000000701320        0x0 0x4 /usr/local/popcorn/x86_64/lib/libc.a(__uflow.o)
 .data          0x0000000000701320        0x0 0x4 /usr/local/popcorn/x86_64/lib/libc.a(fputc.o)
 .data          0x0000000000701320        0x0 0x4 /usr/local/popcorn/x86_64/lib/libc.a(fwrite.o)
 .data          0x0000000000701320        0x0 0x4 /usr/local/popcorn/x86_64/lib/libc.a(vfscanf.o)
 .data          0x0000000000701320        0x0 0x4 /usr/local/popcorn/x86_64/lib/libc.a(abs.o)
 .data          0x0000000000701320        0x0 0x4 /usr/local/popcorn/x86_64/lib/libc.a(memchr.o)
 .data          0x0000000000701320        0x0 0x4 /usr/local/popcorn/x86_64/lib/libc.a(memrchr.o)
 .data          0x0000000000701320        0x0 0x4 /usr/local/popcorn/x86_64/lib/libc.a(strdup.o)
 .data          0x0000000000701320        0x0 0x4 /usr/local/popcorn/x86_64/lib/libc.a(__set_thread_area.o)
 .data          0x0000000000701320        0x0 0x4 /usr/local/popcorn/x86_64/lib/libc.a(__secs_to_tm.o)
 .data          0x0000000000701320        0x0 0x4 /usr/local/popcorn/x86_64/lib/libc.a(__tm_to_secs.o)
 .data          0x0000000000701320        0x0 0x4 /usr/local/popcorn/x86_64/lib/libc.a(__tz.o)
 .data          0x0000000000701320        0x0 0x4 /usr/local/popcorn/x86_64/lib/libc.a(__year_to_secs.o)
 .data          0x0000000000701320        0x0 0x4 /usr/local/popcorn/x86_64/lib/libc.a(getenv.o)
 .data          0x0000000000701320        0x0 0x4 /usr/local/popcorn/x86_64/lib/libc.a(floatscan.o)
 .data          0x0000000000701320        0x0 0x4 /usr/local/popcorn/x86_64/lib/libc.a(copysignl.o)
 .data          0x0000000000701320        0x0 0x4 /usr/local/popcorn/x86_64/lib/libc.a(scalbn.o)
 .data          0x0000000000701320        0x0 0x4 /usr/local/popcorn/x86_64/lib/libc.a(scalbnl.o)
 .data          0x0000000000701320        0x0 0x4 /usr/local/popcorn/x86_64/lib/libc.a(fabs.o)
 .data          0x0000000000701320        0x0 0x4 /usr/local/popcorn/x86_64/lib/libc.a(fmodl.o)
 .data          0x0000000000701320        0x0 0x4 /usr/local/popcorn/x86_64/lib/libc.a(mbrtowc.o)
 .data          0x0000000000701320        0x0 0x4 /usr/local/popcorn/x86_64/lib/libc.a(mbsinit.o)
 .data          0x0000000000701320        0x0 0x4 /usr/local/popcorn/x86_64/lib/libc.a(wcrtomb.o)
 .data          0x0000000000701320        0x0 0x4 /usr/local/popcorn/x86_64/lib/libc.a(__overflow.o)
 .data          0x0000000000701320        0x0 0x4 /usr/local/popcorn/x86_64/lib/libc.a(__toread.o)
 .data          0x0000000000701320        0x0 0x4 /usr/local/popcorn/x86_64/lib/libc.a(__towrite.o)
 .data          0x0000000000701320        0x0 0x4 /usr/local/popcorn/x86_64/lib/libc.a(memcmp.o)
 .data          0x0000000000701320        0x0 0x4 /usr/local/popcorn/x86_64/lib/libc.a(strchr.o)
 .data          0x0000000000701320        0x0 0x4 /usr/local/popcorn/x86_64/lib/libc.a(strchrnul.o)
 .data          0x0000000000701320        0x0 0x4 /usr/local/popcorn/x86_64/lib/libc.a(strncmp.o)
 .data          0x0000000000701320        0x0 0x4 /usr/local/popcorn/x86_64/lib/libc.a(__map_file.o)
 .data          0x0000000000701320        0x0 0x4 /usr/local/popcorn/x86_64/lib/libc.a(__month_to_secs.o)
 .data          0x0000000000701320        0x0 0x4 /usr/local/popcorn/x86_64/lib/libc.a(internal.o)
 .data          0x0000000000701320        0x0 0x4 /usr/local/popcorn/x86_64/lib/libc.a(__stdio_exit.o)
 .data          0x0000000000701320        0x0 0x4 /usr/local/popcorn/x86_64/lib/libc.a(ofl.o)
 .data          0x0000000000701320        0x0 0x4 /usr/local/popcorn/x86_64/lib/libmigrate.a(migrate.o)
 .data          0x0000000000701320        0x0 0x1 /usr/local/popcorn/x86_64/lib/libmigrate.a(migrate_x86_64.o)
 .data          0x0000000000701320        0x0 0x1 /usr/local/popcorn/x86_64/lib/libmigrate.a(migrate_powerpc64.o)
 .data          0x0000000000701320        0x0 0x1 /usr/local/popcorn/x86_64/lib/libmigrate.a(migrate_aarch64.o)
 .data          0x0000000000701320        0x0 0x4 /usr/local/popcorn/x86_64/lib/libmigrate.a(mapping.o)
 .data          0x0000000000701320        0x0 0x4 /usr/local/popcorn/x86_64/lib/libstack-transform.a(userspace.o)
 .data          0x0000000000701320        0x0 0x4 /usr/local/popcorn/x86_64/lib/libstack-transform.a(init.o)
 .data          0x0000000000701320        0x0 0x4 /usr/local/popcorn/x86_64/lib/libstack-transform.a(rewrite.o)
 .data          0x0000000000701320        0x0 0x4 /usr/local/popcorn/x86_64/lib/libstack-transform.a(unwind.o)
 .data          0x0000000000701320        0x0 0x4 /usr/local/popcorn/x86_64/lib/libstack-transform.a(util.o)
 .data          0x0000000000701320        0x0 0x4 /usr/local/popcorn/x86_64/lib/libstack-transform.a(properties.o)
 .data          0x0000000000701320        0x0 0x4 /usr/local/popcorn/x86_64/lib/libstack-transform.a(regs.o)
 .data          0x0000000000701320        0x0 0x4 /usr/local/popcorn/x86_64/lib/libstack-transform.a(properties.o)
 .data          0x0000000000701320        0x0 0x4 /usr/local/popcorn/x86_64/lib/libstack-transform.a(regs.o)
 .data          0x0000000000701320        0x0 0x4 /usr/local/popcorn/x86_64/lib/libstack-transform.a(properties.o)
 .data          0x0000000000701320        0x0 0x4 /usr/local/popcorn/x86_64/lib/libstack-transform.a(regs.o)
 .data          0x0000000000701320        0x0 0x4 /usr/local/popcorn/x86_64/lib/libstack-transform.a(data.o)
 .data          0x0000000000701320        0x0 0x4 /usr/local/popcorn/x86_64/lib/libelf.a(begin.o)
 .data          0x0000000000701320        0x0 0x4 /usr/local/popcorn/x86_64/lib/libelf.a(end.o)
 .data          0x0000000000701320        0x0 0x4 /usr/local/popcorn/x86_64/lib/libelf.a(getdata.o)
 .data          0x0000000000701320        0x0 0x4 /usr/local/popcorn/x86_64/lib/libelf.a(getident.o)
 .data          0x0000000000701320        0x0 0x4 /usr/local/popcorn/x86_64/lib/libelf.a(nextscn.o)
 .data          0x0000000000701320        0x0 0x4 /usr/local/popcorn/x86_64/lib/libelf.a(strptr.o)
 .data          0x0000000000701320        0x0 0x4 /usr/local/popcorn/x86_64/lib/libelf.a(version.o)
 .data          0x0000000000701320        0x0 0x4 /usr/local/popcorn/x86_64/lib/libelf.a(32.getehdr.o)
 .data          0x0000000000701320        0x0 0x4 /usr/local/popcorn/x86_64/lib/libelf.a(32.xlatetof.o)
 .data          0x0000000000701320        0x0 0x4 /usr/local/popcorn/x86_64/lib/libelf.a(cook.o)
 .data          0x0000000000701320        0x0 0x4 /usr/local/popcorn/x86_64/lib/libelf.a(data.o)
 .data          0x0000000000701320        0x0 0x4 /usr/local/popcorn/x86_64/lib/libelf.a(input.o)
 .data          0x0000000000701320        0x0 0x4 /usr/local/popcorn/x86_64/lib/libelf.a(x.elfext.o)
 .data          0x0000000000701320        0x0 0x4 /usr/local/popcorn/x86_64/lib/libelf.a(64.xlatetof.o)
 .data          0x0000000000701320        0x0 0x4 /usr/local/popcorn/x86_64/lib/libelf.a(gelfshdr.o)
 .data          0x0000000000701320        0x0 0x4 /usr/local/popcorn/x86_64/lib/libelf.a(swap64.o)
 .data          0x0000000000701320        0x0 0x4 /usr/local/popcorn/x86_64/lib/libelf.a(verdef_32_tof.o)
 .data          0x0000000000701320        0x0 0x4 /usr/local/popcorn/x86_64/lib/libelf.a(verdef_32_tom.o)
 .data          0x0000000000701320        0x0 0x4 /usr/local/popcorn/x86_64/lib/libelf.a(verdef_64_tof.o)
 .data          0x0000000000701320        0x0 0x4 /usr/local/popcorn/x86_64/lib/libelf.a(verdef_64_tom.o)
 .data          0x0000000000701320        0x0 0x4 /usr/local/popcorn/x86_64/lib/libelf.a(getscn.o)
 .data          0x0000000000701320        0x0 0x4 /usr/local/popcorn/x86_64/lib/libelf.a(newscn.o)
 .data          0x0000000000701320        0x0 0x4 /usr/local/popcorn/x86_64/lib/libelf.a(32.fsize.o)
 .data          0x0000000000701320        0x0 0x4 /usr/local/popcorn/x86_64/lib/libc.a(arch_crash.o)
 .data          0x0000000000701320        0x0 0x4 /usr/local/popcorn/x86_64/lib/libc.a(assert.o)
 .data          0x0000000000701320        0x0 0x4 /usr/local/popcorn/x86_64/lib/libc.a(getrlimit.o)
 .data          0x0000000000701320        0x0 0x4 /usr/local/popcorn/x86_64/lib/libc.a(syscall.o)
 .data          0x0000000000701320        0x0 0x4 /usr/local/popcorn/x86_64/lib/libc.a(fclose.o)
 .data          0x0000000000701320        0x0 0x4 /usr/local/popcorn/x86_64/lib/libc.a(fflush.o)
 .data          0x0000000000701320        0x0 0x4 /usr/local/popcorn/x86_64/lib/libc.a(fopen.o)
 .data          0x0000000000701320        0x0 0x4 /usr/local/popcorn/x86_64/lib/libc.a(fprintf.o)
 .data          0x0000000000701320        0x0 0x4 /usr/local/popcorn/x86_64/lib/libc.a(fscanf.o)
 .data          0x0000000000701320        0x0 0x4 /usr/local/popcorn/x86_64/lib/libc.a(fseek.o)
 .data          0x0000000000701320        0x0 0x4 /usr/local/popcorn/x86_64/lib/libc.a(getc.o)
 .data          0x0000000000701320        0x0 0x4 /usr/local/popcorn/x86_64/lib/libc.a(getline.o)
 .data          0x0000000000701320        0x0 0x4 /usr/local/popcorn/x86_64/lib/libc.a(bsearch.o)
 .data          0x0000000000701320        0x0 0x4 /usr/local/popcorn/x86_64/lib/libc.a(qsort.o)
 .data          0x0000000000701320        0x0 0x4 /usr/local/popcorn/x86_64/lib/libc.a(memmove.o)
 .data          0x0000000000701320        0x0 0x4 /usr/local/popcorn/x86_64/lib/libc.a(pthread_attr_get.o)
 .data          0x0000000000701320        0x0 0x4 /usr/local/popcorn/x86_64/lib/libc.a(pthread_getattr_np.o)
 .data          0x0000000000701320        0x0 0x4 /usr/local/popcorn/x86_64/lib/libc.a(pthread_getspecific.o)
 .data          0x0000000000701320        0x0 0x4 /usr/local/popcorn/x86_64/lib/libc.a(pthread_key_create.o)
 .data          0x0000000000701320        0x0 0x4 /usr/local/popcorn/x86_64/lib/libc.a(pthread_migrate.o)
 .data          0x0000000000701320        0x0 0x4 /usr/local/popcorn/x86_64/lib/libc.a(pthread_self.o)
 .data          0x0000000000701320        0x0 0x4 /usr/local/popcorn/x86_64/lib/libc.a(pthread_setspecific.o)
 .data          0x0000000000701320        0x0 0x4 /usr/local/popcorn/x86_64/lib/libc.a(lseek.o)
 .data          0x0000000000701320        0x0 0x4 /usr/local/popcorn/x86_64/lib/libc.a(abort.o)
 .data          0x0000000000701320        0x0 0x4 /usr/local/popcorn/x86_64/lib/libc.a(raise.o)
 .data          0x0000000000701320        0x0 0x4 /usr/local/popcorn/x86_64/lib/libc.a(__fdopen.o)
 .data          0x0000000000701320        0x0 0x4 /usr/local/popcorn/x86_64/lib/libc.a(__fmodeflags.o)
 .data          0x0000000000701320        0x0 0x4 /usr/local/popcorn/x86_64/lib/libc.a(__stdio_read.o)
 .data          0x0000000000701320        0x0 0x4 /usr/local/popcorn/x86_64/lib/libc.a(getdelim.o)
 .data          0x0000000000701320        0x0 0x4 /usr/local/popcorn/x86_64/lib/libc.a(ofl_add.o)

.bss            0x0000000000800000     0xedc0
 ** common      0x0000000000800000       0x90
 ** zero fill   0x0000000000800090        0x1
 ** zero fill   0x0000000000800091      0xf6f
 .bss.__popcorn_stack_base
                0x0000000000801000        0x8 0x8 /usr/local/popcorn/x86_64/lib/libc.a(__libc_start_main.o)
                0x0000000000801000                __popcorn_stack_base
 .bss.__progname
                0x0000000000801008        0x8 0x8 /usr/local/popcorn/x86_64/lib/libc.a(libc.o)
                0x0000000000801008                __progname
                0x0000000000801008                program_invocation_short_name
 .bss.__progname_full
                0x0000000000801010        0x8 0x8 /usr/local/popcorn/x86_64/lib/libc.a(libc.o)
                0x0000000000801010                __progname_full
                0x0000000000801010                program_invocation_name
 .bss.src_malloc_lite_malloc_c___simple_malloc_cur
                0x0000000000801018        0x8 0x8 /usr/local/popcorn/x86_64/lib/libc.a(lite_malloc.o)
 .bss.src_malloc_lite_malloc_c___simple_malloc_end
                0x0000000000801020        0x8 0x8 /usr/local/popcorn/x86_64/lib/libc.a(lite_malloc.o)
 .bss.src_malloc_lite_malloc_c___simple_malloc_lock
                0x0000000000801028        0x8 0x4 /usr/local/popcorn/x86_64/lib/libc.a(lite_malloc.o)
 .bss.src_malloc_malloc_c_mal
                0x0000000000801030      0x610 0x8 /usr/local/popcorn/x86_64/lib/libc.a(malloc.o)
 .bss.src_malloc_malloc_c_expand_heap_heap_lock
                0x0000000000801640        0x8 0x4 /usr/local/popcorn/x86_64/lib/libc.a(malloc.o)
 .bss.src_malloc_malloc_c_expand_heap_end
                0x0000000000801648        0x8 0x8 /usr/local/popcorn/x86_64/lib/libc.a(malloc.o)
 .bss.src_malloc_popcorn_malloc_c_mal
                0x0000000000801650     0xc200 0x10 /usr/local/popcorn/x86_64/lib/libc.a(popcorn_malloc.o)
 .bss.src_malloc_popcorn_malloc_c_expand_heap_heap_lock
                0x000000000080d850      0x100 0x10 /usr/local/popcorn/x86_64/lib/libc.a(popcorn_malloc.o)
 .bss.src_malloc_popcorn_malloc_c_expand_heap_end
                0x000000000080d950      0x100 0x10 /usr/local/popcorn/x86_64/lib/libc.a(popcorn_malloc.o)
 .bss.src_network_inet_ntoa_c_inet_ntoa_buf
                0x000000000080da50       0x10 0x10 /usr/local/popcorn/x86_64/lib/libc.a(inet_ntoa.o)
 .bss.src_stdio_stderr_c_buf
                0x000000000080da60        0x8 0x1 /usr/local/popcorn/x86_64/lib/libc.a(stderr.o)
 ** zero fill   0x000000000080da68        0x8
 .bss.src_stdio_stdout_c_buf
                0x000000000080da70      0x408 0x10 /usr/local/popcorn/x86_64/lib/libc.a(stdout.o)
 .bss.src_time_localtime_c_localtime_tm
                0x000000000080de78       0x38 0x8 /usr/local/popcorn/x86_64/lib/libc.a(localtime.o)
 .bss.__environ
                0x000000000080deb0        0x8 0x8 /usr/local/popcorn/x86_64/lib/libc.a(__environ.o)
                0x000000000080deb0                ___environ
                0x000000000080deb0                __environ
                0x000000000080deb0                _environ
                0x000000000080deb0                environ
 .bss.src_env___init_tls_c_main_tls
                0x000000000080deb8       0x30 0x8 /usr/local/popcorn/x86_64/lib/libc.a(__init_tls.o)
 ** zero fill   0x000000000080dee8        0x8
 .bss.src_env___init_tls_c_builtin_tls
                0x000000000080def0      0x1a8 0x10 /usr/local/popcorn/x86_64/lib/libc.a(__init_tls.o)
 .bss.src_malloc_expand_heap_c___expand_heap_brk
                0x000000000080e098        0x8 0x8 /usr/local/popcorn/x86_64/lib/libc.a(expand_heap.o)
 .bss.src_malloc_expand_heap_c___expand_heap_mmap_step
                0x000000000080e0a0        0x4 0x4 /usr/local/popcorn/x86_64/lib/libc.a(expand_heap.o)
 ** zero fill   0x000000000080e0a4        0xc
 .bss.src_malloc_expand_heap_c___expand_heap_node_node_arenas
                0x000000000080e0b0      0x100 0x10 /usr/local/popcorn/x86_64/lib/libc.a(expand_heap.o)
 .bss.src_malloc_expand_heap_c___expand_heap_node_node_sizes
                0x000000000080e1b0      0x100 0x10 /usr/local/popcorn/x86_64/lib/libc.a(expand_heap.o)
 .bss.src_malloc_expand_heap_c_arena_start
                0x000000000080e2b0        0x8 0x8 /usr/local/popcorn/x86_64/lib/libc.a(expand_heap.o)
 .bss.src_malloc_expand_heap_c_set_arena_start_lock
                0x000000000080e2b8        0x8 0x4 /usr/local/popcorn/x86_64/lib/libc.a(expand_heap.o)
 .bss.src_signal_sigaction_c_handler_set
                0x000000000080e2c0        0x8 0x8 /usr/local/popcorn/x86_64/lib/libc.a(sigaction.o)
 .bss.src_signal_sigaction_c_unmask_done
                0x000000000080e2c8        0x1 0x1 /usr/local/popcorn/x86_64/lib/libc.a(sigaction.o)
 ** zero fill   0x000000000080e2c9        0x7
 .bss.__timezone
                0x000000000080e2d0        0x8 0x8 /usr/local/popcorn/x86_64/lib/libc.a(__tz.o)
                0x000000000080e2d0                __timezone
                0x000000000080e2d0                timezone
 .bss.__daylight
                0x000000000080e2d8        0x4 0x4 /usr/local/popcorn/x86_64/lib/libc.a(__tz.o)
                0x000000000080e2d8                __daylight
                0x000000000080e2d8                daylight
 ** zero fill   0x000000000080e2dc        0x4
 .bss.__tzname  0x000000000080e2e0       0x10 0x10 /usr/local/popcorn/x86_64/lib/libc.a(__tz.o)
                0x000000000080e2e0                __tzname
                0x000000000080e2e0                tzname
 .bss.src_time___tz_c_lock
                0x000000000080e2f0        0x8 0x4 /usr/local/popcorn/x86_64/lib/libc.a(__tz.o)
 .bss.src_time___tz_c_zi
                0x000000000080e2f8        0x8 0x8 /usr/local/popcorn/x86_64/lib/libc.a(__tz.o)
 .bss.src_time___tz_c_types
                0x000000000080e300        0x8 0x8 /usr/local/popcorn/x86_64/lib/libc.a(__tz.o)
 .bss.src_time___tz_c_abbrevs
                0x000000000080e308        0x8 0x8 /usr/local/popcorn/x86_64/lib/libc.a(__tz.o)
 .bss.src_time___tz_c_r0
                0x000000000080e310       0x14 0x10 /usr/local/popcorn/x86_64/lib/libc.a(__tz.o)
 ** zero fill   0x000000000080e324        0xc
 .bss.src_time___tz_c_r1
                0x000000000080e330       0x14 0x10 /usr/local/popcorn/x86_64/lib/libc.a(__tz.o)
 .bss.src_time___tz_c_dst_off
                0x000000000080e344        0x4 0x4 /usr/local/popcorn/x86_64/lib/libc.a(__tz.o)
 .bss.src_time___tz_c_abbrevs_end
                0x000000000080e348        0x8 0x8 /usr/local/popcorn/x86_64/lib/libc.a(__tz.o)
 .bss.src_time___tz_c_map_size
                0x000000000080e350        0x8 0x8 /usr/local/popcorn/x86_64/lib/libc.a(__tz.o)
 .bss.src_time___tz_c_trans
                0x000000000080e358        0x8 0x8 /usr/local/popcorn/x86_64/lib/libc.a(__tz.o)
 .bss.src_time___tz_c_index
                0x000000000080e360        0x8 0x8 /usr/local/popcorn/x86_64/lib/libc.a(__tz.o)
 .bss.src_time___tz_c_std_name
                0x000000000080e368        0x7 0x1 /usr/local/popcorn/x86_64/lib/libc.a(__tz.o)
 .bss.src_time___tz_c_dst_name
                0x000000000080e36f        0x7 0x1 /usr/local/popcorn/x86_64/lib/libc.a(__tz.o)
 ** zero fill   0x000000000080e376        0xa
 .bss.src_time___tz_c_old_tz_buf
                0x000000000080e380       0x20 0x10 /usr/local/popcorn/x86_64/lib/libc.a(__tz.o)
 .bss.src_multibyte_mbrtowc_c_mbrtowc_internal_state
                0x000000000080e3a0        0x4 0x4 /usr/local/popcorn/x86_64/lib/libc.a(mbrtowc.o)
 ** zero fill   0x000000000080e3a4        0x4
 .bss.src_stdio___stdio_exit_c_dummy_file
                0x000000000080e3a8        0x8 0x8 /usr/local/popcorn/x86_64/lib/libc.a(__stdio_exit.o)
                0x000000000080e3a8                __stdin_used
 .bss.src_stdio_ofl_c_ofl_lock
                0x000000000080e3b0        0x8 0x4 /usr/local/popcorn/x86_64/lib/libc.a(ofl.o)
 .bss.src_stdio_ofl_c_ofl_head
                0x000000000080e3b8        0x8 0x8 /usr/local/popcorn/x86_64/lib/libc.a(ofl.o)
 .bss.src_migrate_c_ni
                0x000000000080e3c0      0x180 0x10 /usr/local/popcorn/x86_64/lib/libmigrate.a(migrate.o)
 .bss.src_mapping_c_default_node
                0x000000000080e540        0x4 0x4 /usr/local/popcorn/x86_64/lib/libmigrate.a(mapping.o)
 ** zero fill   0x000000000080e544        0x4
 .bss.src_mapping_c_mappings
                0x000000000080e548        0x8 0x8 /usr/local/popcorn/x86_64/lib/libmigrate.a(mapping.o)
 .bss.src_mapping_c_num_mappings
                0x000000000080e550        0x8 0x8 /usr/local/popcorn/x86_64/lib/libmigrate.a(mapping.o)
 .bss.aarch64_fn
                0x000000000080e558        0x8 0x8 /usr/local/popcorn/x86_64/lib/libstack-transform.a(userspace.o)
                0x000000000080e558                aarch64_fn
 .bss.powerpc64_fn
                0x000000000080e560        0x8 0x8 /usr/local/popcorn/x86_64/lib/libstack-transform.a(userspace.o)
                0x000000000080e560                powerpc64_fn
 .bss.x86_64_fn
                0x000000000080e568        0x8 0x8 /usr/local/popcorn/x86_64/lib/libstack-transform.a(userspace.o)
                0x000000000080e568                x86_64_fn
 .bss.src_userspace_c_aarch64_handle
                0x000000000080e570        0x8 0x8 /usr/local/popcorn/x86_64/lib/libstack-transform.a(userspace.o)
 .bss.src_userspace_c_alloc_aarch64_fn
                0x000000000080e578        0x1 0x1 /usr/local/popcorn/x86_64/lib/libstack-transform.a(userspace.o)
 ** zero fill   0x000000000080e579        0x7
 .bss.src_userspace_c_powerpc64_handle
                0x000000000080e580        0x8 0x8 /usr/local/popcorn/x86_64/lib/libstack-transform.a(userspace.o)
 .bss.src_userspace_c_alloc_powerpc64_fn
                0x000000000080e588        0x1 0x1 /usr/local/popcorn/x86_64/lib/libstack-transform.a(userspace.o)
 ** zero fill   0x000000000080e589        0x7
 .bss.src_userspace_c_x86_64_handle
                0x000000000080e590        0x8 0x8 /usr/local/popcorn/x86_64/lib/libstack-transform.a(userspace.o)
 .bss.src_userspace_c_alloc_x86_64_fn
                0x000000000080e598        0x1 0x1 /usr/local/popcorn/x86_64/lib/libstack-transform.a(userspace.o)
 ** zero fill   0x000000000080e599        0x3
 .bss.src_userspace_c_stack_bounds_key
                0x000000000080e59c        0x4 0x4 /usr/local/popcorn/x86_64/lib/libstack-transform.a(userspace.o)
 .bss._elf_version
                0x000000000080e5a0        0x4 0x4 /usr/local/popcorn/x86_64/lib/libelf.a(data.o)
                0x000000000080e5a0                _elf_version
 .bss._elf_errno
                0x000000000080e5a4        0x4 0x4 /usr/local/popcorn/x86_64/lib/libelf.a(data.o)
                0x000000000080e5a4                _elf_errno
 .bss._elf_fill
                0x000000000080e5a8        0x4 0x4 /usr/local/popcorn/x86_64/lib/libelf.a(data.o)
                0x000000000080e5a8                _elf_fill
 ** zero fill   0x000000000080e5ac        0x4
 .bss.src_stdio_fflush_c_dummy
                0x000000000080e5b0        0x8 0x8 /usr/local/popcorn/x86_64/lib/libc.a(fflush.o)
 ** zero fill   0x000000000080e5b8        0x8
 .bss.__pthread_tsd_main
                0x000000000080e5c0      0x400 0x10 /usr/local/popcorn/x86_64/lib/libc.a(pthread_key_create.o)
                0x000000000080e5c0                __pthread_tsd_main
 .bss.src_thread_pthread_key_create_c_keys
                0x000000000080e9c0      0x400 0x10 /usr/local/popcorn/x86_64/lib/libc.a(pthread_key_create.o)
 .bss           0x000000000080edc0        0x0 0x4 tiny_x86_64.o
 .bss           0x000000000080edc0        0x0 0x4 /usr/local/popcorn/x86_64/lib/crt1.o
 .bss           0x000000000080edc0        0x0 0x4 /usr/local/popcorn/x86_64/lib/libc.a(closedir.o)
 .bss           0x000000000080edc0        0x0 0x4 /usr/local/popcorn/x86_64/lib/libc.a(fdopendir.o)
 .bss           0x000000000080edc0        0x0 0x4 /usr/local/popcorn/x86_64/lib/libc.a(readdir.o)
 .bss           0x000000000080edc0        0x0 0x4 /usr/local/popcorn/x86_64/lib/libc.a(__libc_start_main.o)
 .bss           0x000000000080edc0        0x0 0x4 /usr/local/popcorn/x86_64/lib/libc.a(__errno_location.o)
 .bss           0x000000000080edc0        0x0 0x4 /usr/local/popcorn/x86_64/lib/libc.a(exit.o)
 .bss           0x000000000080edc0        0x0 0x4 /usr/local/popcorn/x86_64/lib/libc.a(fcntl.o)
 .bss           0x000000000080edc0        0x0 0x4 /usr/local/popcorn/x86_64/lib/libc.a(open.o)
 .bss           0x000000000080edc0        0x0 0x4 /usr/local/popcorn/x86_64/lib/libc.a(openat.o)
 .bss           0x000000000080edc0        0x0 0x4 /usr/local/popcorn/x86_64/lib/libc.a(libc.o)
 .bss           0x000000000080edc0        0x0 0x4 /usr/local/popcorn/x86_64/lib/libc.a(syscall_ret.o)
 .bss           0x000000000080edc0        0x0 0x4 /usr/local/popcorn/x86_64/lib/libc.a(sendfile.o)
 .bss           0x000000000080edc0        0x0 0x4 /usr/local/popcorn/x86_64/lib/libc.a(calloc.o)
 .bss           0x000000000080edc0        0x0 0x4 /usr/local/popcorn/x86_64/lib/libc.a(lite_malloc.o)
 .bss           0x000000000080edc0        0x0 0x4 /usr/local/popcorn/x86_64/lib/libc.a(malloc.o)
 .bss           0x000000000080edc0        0x0 0x4 /usr/local/popcorn/x86_64/lib/libc.a(popcorn_malloc.o)
 .bss           0x000000000080edc0        0x0 0x4 /usr/local/popcorn/x86_64/lib/libc.a(madvise.o)
 .bss           0x000000000080edc0        0x0 0x4 /usr/local/popcorn/x86_64/lib/libc.a(mmap.o)
 .bss           0x000000000080edc0        0x0 0x4 /usr/local/popcorn/x86_64/lib/libc.a(mremap.o)
 .bss           0x000000000080edc0        0x0 0x4 /usr/local/popcorn/x86_64/lib/libc.a(munmap.o)
 .bss           0x000000000080edc0        0x0 0x4 /usr/local/popcorn/x86_64/lib/libc.a(accept.o)
 .bss           0x000000000080edc0        0x0 0x4 /usr/local/popcorn/x86_64/lib/libc.a(bind.o)
 .bss           0x000000000080edc0        0x0 0x4 /usr/local/popcorn/x86_64/lib/libc.a(htonl.o)
 .bss           0x000000000080edc0        0x0 0x4 /usr/local/popcorn/x86_64/lib/libc.a(htons.o)
 .bss           0x000000000080edc0        0x0 0x4 /usr/local/popcorn/x86_64/lib/libc.a(inet_ntoa.o)
 .bss           0x000000000080edc0        0x0 0x4 /usr/local/popcorn/x86_64/lib/libc.a(listen.o)
 .bss           0x000000000080edc0        0x0 0x4 /usr/local/popcorn/x86_64/lib/libc.a(ntohs.o)
 .bss           0x000000000080edc0        0x0 0x4 /usr/local/popcorn/x86_64/lib/libc.a(setsockopt.o)
 .bss           0x000000000080edc0        0x0 0x4 /usr/local/popcorn/x86_64/lib/libc.a(socket.o)
 .bss           0x000000000080edc0        0x0 0x4 /usr/local/popcorn/x86_64/lib/libc.a(fork.o)
 .bss           0x000000000080edc0        0x0 0x4 /usr/local/popcorn/x86_64/lib/libc.a(block.o)
 .bss           0x000000000080edc0        0x0 0x4 /usr/local/popcorn/x86_64/lib/libc.a(signal.o)
 .bss           0x000000000080edc0        0x0 0x4 /usr/local/popcorn/x86_64/lib/libc.a(fstat.o)
 .bss           0x000000000080edc0        0x0 0x4 /usr/local/popcorn/x86_64/lib/libc.a(perror.o)
 .bss           0x000000000080edc0        0x0 0x4 /usr/local/popcorn/x86_64/lib/libc.a(printf.o)
 .bss           0x000000000080edc0        0x0 0x4 /usr/local/popcorn/x86_64/lib/libc.a(snprintf.o)
 .bss           0x000000000080edc0        0x0 0x4 /usr/local/popcorn/x86_64/lib/libc.a(sprintf.o)
 .bss           0x000000000080edc0        0x0 0x4 /usr/local/popcorn/x86_64/lib/libc.a(sscanf.o)
 .bss           0x000000000080edc0        0x0 0x4 /usr/local/popcorn/x86_64/lib/libc.a(stderr.o)
 .bss           0x000000000080edc0        0x0 0x4 /usr/local/popcorn/x86_64/lib/libc.a(stdout.o)
 .bss           0x000000000080edc0        0x0 0x4 /usr/local/popcorn/x86_64/lib/libc.a(vfprintf.o)
 .bss           0x000000000080edc0        0x0 0x4 /usr/local/popcorn/x86_64/lib/libc.a(vsnprintf.o)
 .bss           0x000000000080edc0        0x0 0x4 /usr/local/popcorn/x86_64/lib/libc.a(vsprintf.o)
 .bss           0x000000000080edc0        0x0 0x4 /usr/local/popcorn/x86_64/lib/libc.a(vsscanf.o)
 .bss           0x000000000080edc0        0x0 0x4 /usr/local/popcorn/x86_64/lib/libc.a(atoi.o)
 .bss           0x000000000080edc0        0x0 0x4 /usr/local/popcorn/x86_64/lib/libc.a(strtol.o)
 .bss           0x000000000080edc0        0x0 0x4 /usr/local/popcorn/x86_64/lib/libc.a(strcmp.o)
 .bss           0x000000000080edc0        0x0 0x4 /usr/local/popcorn/x86_64/lib/libc.a(strlen.o)
 .bss           0x000000000080edc0        0x0 0x4 /usr/local/popcorn/x86_64/lib/libc.a(strnlen.o)
 .bss           0x000000000080edc0        0x0 0x4 /usr/local/popcorn/x86_64/lib/libc.a(strrchr.o)
 .bss           0x000000000080edc0        0x0 0x4 /usr/local/popcorn/x86_64/lib/libc.a(memcpy.o)
 .bss           0x000000000080edc0        0x0 0x4 /usr/local/popcorn/x86_64/lib/libc.a(memset.o)
 .bss           0x000000000080edc0        0x0 0x4 /usr/local/popcorn/x86_64/lib/libc.a(__lock.o)
 .bss           0x000000000080edc0        0x0 0x4 /usr/local/popcorn/x86_64/lib/libc.a(__syscall_cp.o)
 .bss           0x000000000080edc0        0x0 0x4 /usr/local/popcorn/x86_64/lib/libc.a(__wait.o)
 .bss           0x000000000080edc0        0x0 0x4 /usr/local/popcorn/x86_64/lib/libc.a(localtime.o)
 .bss           0x000000000080edc0        0x0 0x4 /usr/local/popcorn/x86_64/lib/libc.a(localtime_r.o)
 .bss           0x000000000080edc0        0x0 0x4 /usr/local/popcorn/x86_64/lib/libc.a(strftime.o)
 .bss           0x000000000080edc0        0x0 0x4 /usr/local/popcorn/x86_64/lib/libc.a(chdir.o)
 .bss           0x000000000080edc0        0x0 0x4 /usr/local/popcorn/x86_64/lib/libc.a(close.o)
 .bss           0x000000000080edc0        0x0 0x4 /usr/local/popcorn/x86_64/lib/libc.a(getcwd.o)
 .bss           0x000000000080edc0        0x0 0x4 /usr/local/popcorn/x86_64/lib/libc.a(getpid.o)
 .bss           0x000000000080edc0        0x0 0x4 /usr/local/popcorn/x86_64/lib/libc.a(read.o)
 .bss           0x000000000080edc0        0x0 0x4 /usr/local/popcorn/x86_64/lib/libc.a(write.o)
 .bss           0x000000000080edc0        0x0 0x4 /usr/local/popcorn/x86_64/lib/libc.a(__environ.o)
 .bss           0x000000000080edc0        0x0 0x4 /usr/local/popcorn/x86_64/lib/libc.a(__init_tls.o)
 .bss           0x000000000080edc0        0x0 0x4 /usr/local/popcorn/x86_64/lib/libc.a(strerror.o)
 .bss           0x000000000080edc0        0x0 0x4 /usr/local/popcorn/x86_64/lib/libc.a(_Exit.o)
 .bss           0x000000000080edc0        0x0 0x4 /usr/local/popcorn/x86_64/lib/libc.a(intscan.o)
 .bss           0x000000000080edc0        0x0 0x4 /usr/local/popcorn/x86_64/lib/libc.a(procfdname.o)
 .bss           0x000000000080edc0        0x0 0x4 /usr/local/popcorn/x86_64/lib/libc.a(shgetc.o)
 .bss           0x000000000080edc0        0x0 0x4 /usr/local/popcorn/x86_64/lib/libc.a(syscall.o)
 .bss           0x000000000080edc0        0x0 0x4 /usr/local/popcorn/x86_64/lib/libc.a(__lctrans.o)
 .bss           0x000000000080edc0        0x0 0x4 /usr/local/popcorn/x86_64/lib/libc.a(langinfo.o)
 .bss           0x000000000080edc0        0x0 0x4 /usr/local/popcorn/x86_64/lib/libc.a(expand_heap.o)
 .bss           0x000000000080edc0        0x0 0x4 /usr/local/popcorn/x86_64/lib/libc.a(__fpclassifyl.o)
 .bss           0x000000000080edc0        0x0 0x4 /usr/local/popcorn/x86_64/lib/libc.a(__signbitl.o)
 .bss           0x000000000080edc0        0x0 0x4 /usr/local/popcorn/x86_64/lib/libc.a(frexpl.o)
 .bss           0x000000000080edc0        0x0 0x4 /usr/local/popcorn/x86_64/lib/libc.a(wctomb.o)
 .bss           0x000000000080edc0        0x0 0x4 /usr/local/popcorn/x86_64/lib/libc.a(sigaction.o)
 .bss           0x000000000080edc0        0x0 0x4 /usr/local/popcorn/x86_64/lib/libc.a(restore.o)
 .bss           0x000000000080edc0        0x0 0x4 /usr/local/popcorn/x86_64/lib/libc.a(__lockfile.o)
 .bss           0x000000000080edc0        0x0 0x4 /usr/local/popcorn/x86_64/lib/libc.a(__stdio_close.o)
 .bss           0x000000000080edc0        0x0 0x4 /usr/local/popcorn/x86_64/lib/libc.a(__stdio_seek.o)
 .bss           0x000000000080edc0        0x0 0x4 /usr/local/popcorn/x86_64/lib/libc.a(__stdio_write.o)
 .bss           0x000000000080edc0        0x0 0x4 /usr/local/popcorn/x86_64/lib/libc.a(__stdout_write.o)
 .bss           0x000000000080edc0        0x0 0x4 /usr/local/popcorn/x86_64/lib/libc.a(__string_read.o)
 .bss           0x000000000080edc0        0x0 0x4 /usr/local/popcorn/x86_64/lib/libc.a(__uflow.o)
 .bss           0x000000000080edc0        0x0 0x4 /usr/local/popcorn/x86_64/lib/libc.a(fputc.o)
 .bss           0x000000000080edc0        0x0 0x4 /usr/local/popcorn/x86_64/lib/libc.a(fwrite.o)
 .bss           0x000000000080edc0        0x0 0x4 /usr/local/popcorn/x86_64/lib/libc.a(vfscanf.o)
 .bss           0x000000000080edc0        0x0 0x4 /usr/local/popcorn/x86_64/lib/libc.a(abs.o)
 .bss           0x000000000080edc0        0x0 0x4 /usr/local/popcorn/x86_64/lib/libc.a(memchr.o)
 .bss           0x000000000080edc0        0x0 0x4 /usr/local/popcorn/x86_64/lib/libc.a(memrchr.o)
 .bss           0x000000000080edc0        0x0 0x4 /usr/local/popcorn/x86_64/lib/libc.a(strdup.o)
 .bss           0x000000000080edc0        0x0 0x4 /usr/local/popcorn/x86_64/lib/libc.a(__set_thread_area.o)
 .bss           0x000000000080edc0        0x0 0x4 /usr/local/popcorn/x86_64/lib/libc.a(__secs_to_tm.o)
 .bss           0x000000000080edc0        0x0 0x4 /usr/local/popcorn/x86_64/lib/libc.a(__tm_to_secs.o)
 .bss           0x000000000080edc0        0x0 0x4 /usr/local/popcorn/x86_64/lib/libc.a(__tz.o)
 .bss           0x000000000080edc0        0x0 0x4 /usr/local/popcorn/x86_64/lib/libc.a(__year_to_secs.o)
 .bss           0x000000000080edc0        0x0 0x4 /usr/local/popcorn/x86_64/lib/libc.a(getenv.o)
 .bss           0x000000000080edc0        0x0 0x4 /usr/local/popcorn/x86_64/lib/libc.a(floatscan.o)
 .bss           0x000000000080edc0        0x0 0x4 /usr/local/popcorn/x86_64/lib/libc.a(copysignl.o)
 .bss           0x000000000080edc0        0x0 0x4 /usr/local/popcorn/x86_64/lib/libc.a(scalbn.o)
 .bss           0x000000000080edc0        0x0 0x4 /usr/local/popcorn/x86_64/lib/libc.a(scalbnl.o)
 .bss           0x000000000080edc0        0x0 0x4 /usr/local/popcorn/x86_64/lib/libc.a(fabs.o)
 .bss           0x000000000080edc0        0x0 0x4 /usr/local/popcorn/x86_64/lib/libc.a(fmodl.o)
 .bss           0x000000000080edc0        0x0 0x4 /usr/local/popcorn/x86_64/lib/libc.a(mbrtowc.o)
 .bss           0x000000000080edc0        0x0 0x4 /usr/local/popcorn/x86_64/lib/libc.a(mbsinit.o)
 .bss           0x000000000080edc0        0x0 0x4 /usr/local/popcorn/x86_64/lib/libc.a(wcrtomb.o)
 .bss           0x000000000080edc0        0x0 0x4 /usr/local/popcorn/x86_64/lib/libc.a(__overflow.o)
 .bss           0x000000000080edc0        0x0 0x4 /usr/local/popcorn/x86_64/lib/libc.a(__toread.o)
 .bss           0x000000000080edc0        0x0 0x4 /usr/local/popcorn/x86_64/lib/libc.a(__towrite.o)
 .bss           0x000000000080edc0        0x0 0x4 /usr/local/popcorn/x86_64/lib/libc.a(memcmp.o)
 .bss           0x000000000080edc0        0x0 0x4 /usr/local/popcorn/x86_64/lib/libc.a(strchr.o)
 .bss           0x000000000080edc0        0x0 0x4 /usr/local/popcorn/x86_64/lib/libc.a(strchrnul.o)
 .bss           0x000000000080edc0        0x0 0x4 /usr/local/popcorn/x86_64/lib/libc.a(strncmp.o)
 .bss           0x000000000080edc0        0x0 0x4 /usr/local/popcorn/x86_64/lib/libc.a(__map_file.o)
 .bss           0x000000000080edc0        0x0 0x4 /usr/local/popcorn/x86_64/lib/libc.a(__month_to_secs.o)
 .bss           0x000000000080edc0        0x0 0x4 /usr/local/popcorn/x86_64/lib/libc.a(internal.o)
 .bss           0x000000000080edc0        0x0 0x4 /usr/local/popcorn/x86_64/lib/libc.a(__stdio_exit.o)
 .bss           0x000000000080edc0        0x0 0x4 /usr/local/popcorn/x86_64/lib/libc.a(ofl.o)
 .bss           0x000000000080edc0        0x0 0x4 /usr/local/popcorn/x86_64/lib/libmigrate.a(migrate.o)
 .bss           0x000000000080edc0        0x0 0x1 /usr/local/popcorn/x86_64/lib/libmigrate.a(migrate_x86_64.o)
 .bss           0x000000000080edc0        0x0 0x1 /usr/local/popcorn/x86_64/lib/libmigrate.a(migrate_powerpc64.o)
 .bss           0x000000000080edc0        0x0 0x1 /usr/local/popcorn/x86_64/lib/libmigrate.a(migrate_aarch64.o)
 .bss           0x000000000080edc0        0x0 0x4 /usr/local/popcorn/x86_64/lib/libmigrate.a(mapping.o)
 .bss           0x000000000080edc0        0x0 0x4 /usr/local/popcorn/x86_64/lib/libstack-transform.a(userspace.o)
 .bss           0x000000000080edc0        0x0 0x4 /usr/local/popcorn/x86_64/lib/libstack-transform.a(init.o)
 .bss           0x000000000080edc0        0x0 0x4 /usr/local/popcorn/x86_64/lib/libstack-transform.a(rewrite.o)
 .bss           0x000000000080edc0        0x0 0x4 /usr/local/popcorn/x86_64/lib/libstack-transform.a(unwind.o)
 .bss           0x000000000080edc0        0x0 0x4 /usr/local/popcorn/x86_64/lib/libstack-transform.a(util.o)
 .bss           0x000000000080edc0        0x0 0x4 /usr/local/popcorn/x86_64/lib/libstack-transform.a(properties.o)
 .bss           0x000000000080edc0        0x0 0x4 /usr/local/popcorn/x86_64/lib/libstack-transform.a(regs.o)
 .bss           0x000000000080edc0        0x0 0x4 /usr/local/popcorn/x86_64/lib/libstack-transform.a(properties.o)
 .bss           0x000000000080edc0        0x0 0x4 /usr/local/popcorn/x86_64/lib/libstack-transform.a(regs.o)
 .bss           0x000000000080edc0        0x0 0x4 /usr/local/popcorn/x86_64/lib/libstack-transform.a(properties.o)
 .bss           0x000000000080edc0        0x0 0x4 /usr/local/popcorn/x86_64/lib/libstack-transform.a(regs.o)
 .bss           0x000000000080edc0        0x0 0x4 /usr/local/popcorn/x86_64/lib/libstack-transform.a(data.o)
 .bss           0x000000000080edc0        0x0 0x4 /usr/local/popcorn/x86_64/lib/libelf.a(begin.o)
 .bss           0x000000000080edc0        0x0 0x4 /usr/local/popcorn/x86_64/lib/libelf.a(end.o)
 .bss           0x000000000080edc0        0x0 0x4 /usr/local/popcorn/x86_64/lib/libelf.a(getdata.o)
 .bss           0x000000000080edc0        0x0 0x4 /usr/local/popcorn/x86_64/lib/libelf.a(getident.o)
 .bss           0x000000000080edc0        0x0 0x4 /usr/local/popcorn/x86_64/lib/libelf.a(nextscn.o)
 .bss           0x000000000080edc0        0x0 0x4 /usr/local/popcorn/x86_64/lib/libelf.a(strptr.o)
 .bss           0x000000000080edc0        0x0 0x4 /usr/local/popcorn/x86_64/lib/libelf.a(version.o)
 .bss           0x000000000080edc0        0x0 0x4 /usr/local/popcorn/x86_64/lib/libelf.a(32.getehdr.o)
 .bss           0x000000000080edc0        0x0 0x4 /usr/local/popcorn/x86_64/lib/libelf.a(32.xlatetof.o)
 .bss           0x000000000080edc0        0x0 0x4 /usr/local/popcorn/x86_64/lib/libelf.a(cook.o)
 .bss           0x000000000080edc0        0x0 0x4 /usr/local/popcorn/x86_64/lib/libelf.a(data.o)
 .bss           0x000000000080edc0        0x0 0x4 /usr/local/popcorn/x86_64/lib/libelf.a(input.o)
 .bss           0x000000000080edc0        0x0 0x4 /usr/local/popcorn/x86_64/lib/libelf.a(x.elfext.o)
 .bss           0x000000000080edc0        0x0 0x4 /usr/local/popcorn/x86_64/lib/libelf.a(64.xlatetof.o)
 .bss           0x000000000080edc0        0x0 0x4 /usr/local/popcorn/x86_64/lib/libelf.a(gelfshdr.o)
 .bss           0x000000000080edc0        0x0 0x4 /usr/local/popcorn/x86_64/lib/libelf.a(swap64.o)
 .bss           0x000000000080edc0        0x0 0x4 /usr/local/popcorn/x86_64/lib/libelf.a(verdef_32_tof.o)
 .bss           0x000000000080edc0        0x0 0x4 /usr/local/popcorn/x86_64/lib/libelf.a(verdef_32_tom.o)
 .bss           0x000000000080edc0        0x0 0x4 /usr/local/popcorn/x86_64/lib/libelf.a(verdef_64_tof.o)
 .bss           0x000000000080edc0        0x0 0x4 /usr/local/popcorn/x86_64/lib/libelf.a(verdef_64_tom.o)
 .bss           0x000000000080edc0        0x0 0x4 /usr/local/popcorn/x86_64/lib/libelf.a(getscn.o)
 .bss           0x000000000080edc0        0x0 0x4 /usr/local/popcorn/x86_64/lib/libelf.a(newscn.o)
 .bss           0x000000000080edc0        0x0 0x4 /usr/local/popcorn/x86_64/lib/libelf.a(32.fsize.o)
 .bss           0x000000000080edc0        0x0 0x4 /usr/local/popcorn/x86_64/lib/libc.a(arch_crash.o)
 .bss           0x000000000080edc0        0x0 0x4 /usr/local/popcorn/x86_64/lib/libc.a(assert.o)
 .bss           0x000000000080edc0        0x0 0x4 /usr/local/popcorn/x86_64/lib/libc.a(getrlimit.o)
 .bss           0x000000000080edc0        0x0 0x4 /usr/local/popcorn/x86_64/lib/libc.a(syscall.o)
 .bss           0x000000000080edc0        0x0 0x4 /usr/local/popcorn/x86_64/lib/libc.a(fclose.o)
 .bss           0x000000000080edc0        0x0 0x4 /usr/local/popcorn/x86_64/lib/libc.a(fflush.o)
 .bss           0x000000000080edc0        0x0 0x4 /usr/local/popcorn/x86_64/lib/libc.a(fopen.o)
 .bss           0x000000000080edc0        0x0 0x4 /usr/local/popcorn/x86_64/lib/libc.a(fprintf.o)
 .bss           0x000000000080edc0        0x0 0x4 /usr/local/popcorn/x86_64/lib/libc.a(fscanf.o)
 .bss           0x000000000080edc0        0x0 0x4 /usr/local/popcorn/x86_64/lib/libc.a(fseek.o)
 .bss           0x000000000080edc0        0x0 0x4 /usr/local/popcorn/x86_64/lib/libc.a(getc.o)
 .bss           0x000000000080edc0        0x0 0x4 /usr/local/popcorn/x86_64/lib/libc.a(getline.o)
 .bss           0x000000000080edc0        0x0 0x4 /usr/local/popcorn/x86_64/lib/libc.a(bsearch.o)
 .bss           0x000000000080edc0        0x0 0x4 /usr/local/popcorn/x86_64/lib/libc.a(qsort.o)
 .bss           0x000000000080edc0        0x0 0x4 /usr/local/popcorn/x86_64/lib/libc.a(memmove.o)
 .bss           0x000000000080edc0        0x0 0x4 /usr/local/popcorn/x86_64/lib/libc.a(pthread_attr_get.o)
 .bss           0x000000000080edc0        0x0 0x4 /usr/local/popcorn/x86_64/lib/libc.a(pthread_getattr_np.o)
 .bss           0x000000000080edc0        0x0 0x4 /usr/local/popcorn/x86_64/lib/libc.a(pthread_getspecific.o)
 .bss           0x000000000080edc0        0x0 0x4 /usr/local/popcorn/x86_64/lib/libc.a(pthread_key_create.o)
 .bss           0x000000000080edc0        0x0 0x4 /usr/local/popcorn/x86_64/lib/libc.a(pthread_migrate.o)
 .bss           0x000000000080edc0        0x0 0x4 /usr/local/popcorn/x86_64/lib/libc.a(pthread_self.o)
 .bss           0x000000000080edc0        0x0 0x4 /usr/local/popcorn/x86_64/lib/libc.a(pthread_setspecific.o)
 .bss           0x000000000080edc0        0x0 0x4 /usr/local/popcorn/x86_64/lib/libc.a(lseek.o)
 .bss           0x000000000080edc0        0x0 0x4 /usr/local/popcorn/x86_64/lib/libc.a(abort.o)
 .bss           0x000000000080edc0        0x0 0x4 /usr/local/popcorn/x86_64/lib/libc.a(raise.o)
 .bss           0x000000000080edc0        0x0 0x4 /usr/local/popcorn/x86_64/lib/libc.a(__fdopen.o)
 .bss           0x000000000080edc0        0x0 0x4 /usr/local/popcorn/x86_64/lib/libc.a(__fmodeflags.o)
 .bss           0x000000000080edc0        0x0 0x4 /usr/local/popcorn/x86_64/lib/libc.a(__stdio_read.o)
 .bss           0x000000000080edc0        0x0 0x4 /usr/local/popcorn/x86_64/lib/libc.a(getdelim.o)
 .bss           0x000000000080edc0        0x0 0x4 /usr/local/popcorn/x86_64/lib/libc.a(ofl_add.o)

.ldata          0x0000000000810dc0        0x0

.eh_frame       0x0000000000810dc0     0x2618
 ** eh_frame    0x0000000000810dc0     0x2618

.tdata          0x0000000000900000     0x1000
 ** zero fill   0x0000000000900000        0x1
 ** zero fill   0x0000000000900001      0xfff

.tbss           0x0000000000a00000     0x1000
 ** zero fill   0x0000000000a00000        0x1
 ** zero fill   0x0000000000a00001      0xfff

.init_array     0x0000000000a01000       0x18
 .init_array    0x0000000000a01000        0x8 0x8 /usr/local/popcorn/x86_64/lib/libmigrate.a(migrate.o)
 .init_array    0x0000000000a01008        0x8 0x8 /usr/local/popcorn/x86_64/lib/libmigrate.a(mapping.o)
 .init_array    0x0000000000a01010        0x8 0x8 /usr/local/popcorn/x86_64/lib/libstack-transform.a(init.o)

.fini_array     0x0000000000a01018        0x8
 .fini_array    0x0000000000a01018        0x8 0x8 /usr/local/popcorn/x86_64/lib/libmigrate.a(mapping.o)

.llvm_stackmaps
                0x0000000000a02000     0x43e0
 .llvm_stackmaps
                0x0000000000a02000     0x3d28 0x8 tiny_x86_64.o
 .llvm_stackmaps
                0x0000000000a05d28       0x48 0x8 /usr/local/popcorn/x86_64/lib/libc.a(__libc_start_main.o)
 .llvm_stackmaps
                0x0000000000a05d70      0x3f8 0x8 /usr/local/popcorn/x86_64/lib/libmigrate.a(migrate.o)
 .llvm_stackmaps
                0x0000000000a06168      0x278 0x8 /usr/local/popcorn/x86_64/lib/libmigrate.a(mapping.o)

.debug_str      0x0000000000000000     0x46e7
 ** merge strings
                0x0000000000000000     0x46e7

.debug_loc      0x0000000000000000    0x185ed
 .debug_loc     0x0000000000000000       0x6c 0x1 tiny_x86_64.o
 .debug_loc     0x000000000000006c       0x23 0x1 /usr/local/popcorn/x86_64/lib/crt1.o
 .debug_loc     0x000000000000008f       0x5b 0x1 /usr/local/popcorn/x86_64/lib/libc.a(closedir.o)
 .debug_loc     0x00000000000000ea       0x5e 0x1 /usr/local/popcorn/x86_64/lib/libc.a(fdopendir.o)
 .debug_loc     0x0000000000000148       0xb6 0x1 /usr/local/popcorn/x86_64/lib/libc.a(readdir.o)
 .debug_loc     0x00000000000001fe      0x251 0x1 /usr/local/popcorn/x86_64/lib/libc.a(__libc_start_main.o)
 .debug_loc     0x000000000000044f       0x23 0x1 /usr/local/popcorn/x86_64/lib/libc.a(__errno_location.o)
 .debug_loc     0x0000000000000472       0x72 0x1 /usr/local/popcorn/x86_64/lib/libc.a(exit.o)
 .debug_loc     0x00000000000004e4      0x294 0x1 /usr/local/popcorn/x86_64/lib/libc.a(fcntl.o)
 .debug_loc     0x0000000000000778       0x95 0x1 /usr/local/popcorn/x86_64/lib/libc.a(open.o)
 .debug_loc     0x000000000000080d       0x80 0x1 /usr/local/popcorn/x86_64/lib/libc.a(openat.o)
 .debug_loc     0x000000000000088d        0x0 0x1 /usr/local/popcorn/x86_64/lib/libc.a(libc.o)
 .debug_loc     0x000000000000088d       0x36 0x1 /usr/local/popcorn/x86_64/lib/libc.a(syscall_ret.o)
 .debug_loc     0x00000000000008c3       0x80 0x1 /usr/local/popcorn/x86_64/lib/libc.a(sendfile.o)
 .debug_loc     0x0000000000000943      0x127 0x1 /usr/local/popcorn/x86_64/lib/libc.a(calloc.o)
 .debug_loc     0x0000000000000a6a      0x197 0x1 /usr/local/popcorn/x86_64/lib/libc.a(lite_malloc.o)
 .debug_loc     0x0000000000000c01     0x13b8 0x1 /usr/local/popcorn/x86_64/lib/libc.a(malloc.o)
 .debug_loc     0x0000000000001fb9     0x1dad 0x1 /usr/local/popcorn/x86_64/lib/libc.a(popcorn_malloc.o)
 .debug_loc     0x0000000000003d66       0x25 0x1 /usr/local/popcorn/x86_64/lib/libc.a(madvise.o)
 .debug_loc     0x0000000000003d8b      0x263 0x1 /usr/local/popcorn/x86_64/lib/libc.a(mmap.o)
 .debug_loc     0x0000000000003fee      0x14d 0x1 /usr/local/popcorn/x86_64/lib/libc.a(mremap.o)
 .debug_loc     0x000000000000413b       0x92 0x1 /usr/local/popcorn/x86_64/lib/libc.a(munmap.o)
 .debug_loc     0x00000000000041cd       0xb7 0x1 /usr/local/popcorn/x86_64/lib/libc.a(accept.o)
 .debug_loc     0x0000000000004284       0x4a 0x1 /usr/local/popcorn/x86_64/lib/libc.a(bind.o)
 .debug_loc     0x00000000000042ce       0x4a 0x1 /usr/local/popcorn/x86_64/lib/libc.a(htonl.o)
 .debug_loc     0x0000000000004318       0x5f 0x1 /usr/local/popcorn/x86_64/lib/libc.a(htons.o)
 .debug_loc     0x0000000000004377        0x0 0x1 /usr/local/popcorn/x86_64/lib/libc.a(inet_ntoa.o)
 .debug_loc     0x0000000000004377       0x4a 0x1 /usr/local/popcorn/x86_64/lib/libc.a(listen.o)
 .debug_loc     0x00000000000043c1       0x5f 0x1 /usr/local/popcorn/x86_64/lib/libc.a(ntohs.o)
 .debug_loc     0x0000000000004420       0xca 0x1 /usr/local/popcorn/x86_64/lib/libc.a(setsockopt.o)
 .debug_loc     0x00000000000044ea      0x197 0x1 /usr/local/popcorn/x86_64/lib/libc.a(socket.o)
 .debug_loc     0x0000000000004681       0xb1 0x1 /usr/local/popcorn/x86_64/lib/libc.a(fork.o)
 .debug_loc     0x0000000000004732       0xdb 0x1 /usr/local/popcorn/x86_64/lib/libc.a(block.o)
 .debug_loc     0x000000000000480d       0xa9 0x1 /usr/local/popcorn/x86_64/lib/libc.a(signal.o)
 .debug_loc     0x00000000000048b6      0x19f 0x1 /usr/local/popcorn/x86_64/lib/libc.a(fstat.o)
 .debug_loc     0x0000000000004a55       0xa1 0x1 /usr/local/popcorn/x86_64/lib/libc.a(perror.o)
 .debug_loc     0x0000000000004af6       0x49 0x1 /usr/local/popcorn/x86_64/lib/libc.a(printf.o)
 .debug_loc     0x0000000000004b3f        0x0 0x1 /usr/local/popcorn/x86_64/lib/libc.a(snprintf.o)
 .debug_loc     0x0000000000004b3f        0x0 0x1 /usr/local/popcorn/x86_64/lib/libc.a(sprintf.o)
 .debug_loc     0x0000000000004b3f        0x0 0x1 /usr/local/popcorn/x86_64/lib/libc.a(sscanf.o)
 .debug_loc     0x0000000000004b3f        0x0 0x1 /usr/local/popcorn/x86_64/lib/libc.a(stderr.o)
 .debug_loc     0x0000000000004b3f        0x0 0x1 /usr/local/popcorn/x86_64/lib/libc.a(stdout.o)
 .debug_loc     0x0000000000004b3f     0x44dc 0x1 /usr/local/popcorn/x86_64/lib/libc.a(vfprintf.o)
 .debug_loc     0x000000000000901b      0x230 0x1 /usr/local/popcorn/x86_64/lib/libc.a(vsnprintf.o)
 .debug_loc     0x000000000000924b       0x92 0x1 /usr/local/popcorn/x86_64/lib/libc.a(vsprintf.o)
 .debug_loc     0x00000000000092dd       0xec 0x1 /usr/local/popcorn/x86_64/lib/libc.a(vsscanf.o)
 .debug_loc     0x00000000000093c9       0xfa 0x1 /usr/local/popcorn/x86_64/lib/libc.a(atoi.o)
 .debug_loc     0x00000000000094c3      0x181 0x1 /usr/local/popcorn/x86_64/lib/libc.a(strtol.o)
 .debug_loc     0x0000000000009644       0x6c 0x1 /usr/local/popcorn/x86_64/lib/libc.a(strcmp.o)
 .debug_loc     0x00000000000096b0       0xb8 0x1 /usr/local/popcorn/x86_64/lib/libc.a(strlen.o)
 .debug_loc     0x0000000000009768       0x8f 0x1 /usr/local/popcorn/x86_64/lib/libc.a(strnlen.o)
 .debug_loc     0x00000000000097f7       0x85 0x1 /usr/local/popcorn/x86_64/lib/libc.a(strrchr.o)
 .debug_loc     0x000000000000987c       0xbd 0x1 /usr/local/popcorn/x86_64/lib/libc.a(__lock.o)
 .debug_loc     0x0000000000009939       0x24 0x1 /usr/local/popcorn/x86_64/lib/libc.a(__syscall_cp.o)
 .debug_loc     0x000000000000995d      0x165 0x1 /usr/local/popcorn/x86_64/lib/libc.a(__wait.o)
 .debug_loc     0x0000000000009ac2        0x0 0x1 /usr/local/popcorn/x86_64/lib/libc.a(localtime.o)
 .debug_loc     0x0000000000009ac2       0x59 0x1 /usr/local/popcorn/x86_64/lib/libc.a(localtime_r.o)
 .debug_loc     0x0000000000009b1b      0xcbd 0x1 /usr/local/popcorn/x86_64/lib/libc.a(strftime.o)
 .debug_loc     0x000000000000a7d8        0x0 0x1 /usr/local/popcorn/x86_64/lib/libc.a(chdir.o)
 .debug_loc     0x000000000000a7d8       0x74 0x1 /usr/local/popcorn/x86_64/lib/libc.a(close.o)
 .debug_loc     0x000000000000a84c       0xa2 0x1 /usr/local/popcorn/x86_64/lib/libc.a(getcwd.o)
 .debug_loc     0x000000000000a8ee        0x0 0x1 /usr/local/popcorn/x86_64/lib/libc.a(getpid.o)
 .debug_loc     0x000000000000a8ee       0xb7 0x1 /usr/local/popcorn/x86_64/lib/libc.a(read.o)
 .debug_loc     0x000000000000a9a5       0xb7 0x1 /usr/local/popcorn/x86_64/lib/libc.a(write.o)
 .debug_loc     0x000000000000aa5c        0x0 0x1 /usr/local/popcorn/x86_64/lib/libc.a(__environ.o)
 .debug_loc     0x000000000000aa5c      0x2da 0x1 /usr/local/popcorn/x86_64/lib/libc.a(__init_tls.o)
 .debug_loc     0x000000000000ad36       0x5d 0x1 /usr/local/popcorn/x86_64/lib/libc.a(strerror.o)
 .debug_loc     0x000000000000ad93       0x25 0x1 /usr/local/popcorn/x86_64/lib/libc.a(_Exit.o)
 .debug_loc     0x000000000000adb8      0x76d 0x1 /usr/local/popcorn/x86_64/lib/libc.a(intscan.o)
 .debug_loc     0x000000000000b525       0xc3 0x1 /usr/local/popcorn/x86_64/lib/libc.a(procfdname.o)
 .debug_loc     0x000000000000b5e8       0x83 0x1 /usr/local/popcorn/x86_64/lib/libc.a(shgetc.o)
 .debug_loc     0x000000000000b66b       0x59 0x1 /usr/local/popcorn/x86_64/lib/libc.a(__lctrans.o)
 .debug_loc     0x000000000000b6c4      0x13d 0x1 /usr/local/popcorn/x86_64/lib/libc.a(langinfo.o)
 .debug_loc     0x000000000000b801      0x5d1 0x1 /usr/local/popcorn/x86_64/lib/libc.a(expand_heap.o)
 .debug_loc     0x000000000000bdd2       0x3a 0x1 /usr/local/popcorn/x86_64/lib/libc.a(__fpclassifyl.o)
 .debug_loc     0x000000000000be0c        0x0 0x1 /usr/local/popcorn/x86_64/lib/libc.a(__signbitl.o)
 .debug_loc     0x000000000000be0c       0xa6 0x1 /usr/local/popcorn/x86_64/lib/libc.a(frexpl.o)
 .debug_loc     0x000000000000beb2        0x0 0x1 /usr/local/popcorn/x86_64/lib/libc.a(wctomb.o)
 .debug_loc     0x000000000000beb2      0x10f 0x1 /usr/local/popcorn/x86_64/lib/libc.a(sigaction.o)
 .debug_loc     0x000000000000bfc1      0x162 0x1 /usr/local/popcorn/x86_64/lib/libc.a(__lockfile.o)
 .debug_loc     0x000000000000c123       0x80 0x1 /usr/local/popcorn/x86_64/lib/libc.a(__stdio_close.o)
 .debug_loc     0x000000000000c1a3       0x48 0x1 /usr/local/popcorn/x86_64/lib/libc.a(__stdio_seek.o)
 .debug_loc     0x000000000000c1eb      0x1ca 0x1 /usr/local/popcorn/x86_64/lib/libc.a(__stdio_write.o)
 .debug_loc     0x000000000000c3b5       0xc5 0x1 /usr/local/popcorn/x86_64/lib/libc.a(__stdout_write.o)
 .debug_loc     0x000000000000c47a      0x144 0x1 /usr/local/popcorn/x86_64/lib/libc.a(__string_read.o)
 .debug_loc     0x000000000000c5be       0x5a 0x1 /usr/local/popcorn/x86_64/lib/libc.a(__uflow.o)
 .debug_loc     0x000000000000c618       0x83 0x1 /usr/local/popcorn/x86_64/lib/libc.a(fputc.o)
 .debug_loc     0x000000000000c69b      0x231 0x1 /usr/local/popcorn/x86_64/lib/libc.a(fwrite.o)
 .debug_loc     0x000000000000c8cc      0xf84 0x1 /usr/local/popcorn/x86_64/lib/libc.a(vfscanf.o)
 .debug_loc     0x000000000000d850        0x0 0x1 /usr/local/popcorn/x86_64/lib/libc.a(abs.o)
 .debug_loc     0x000000000000d850      0x15d 0x1 /usr/local/popcorn/x86_64/lib/libc.a(memchr.o)
 .debug_loc     0x000000000000d9ad       0xb6 0x1 /usr/local/popcorn/x86_64/lib/libc.a(memrchr.o)
 .debug_loc     0x000000000000da63       0x7c 0x1 /usr/local/popcorn/x86_64/lib/libc.a(strdup.o)
 .debug_loc     0x000000000000dadf      0x208 0x1 /usr/local/popcorn/x86_64/lib/libc.a(__secs_to_tm.o)
 .debug_loc     0x000000000000dce7       0xda 0x1 /usr/local/popcorn/x86_64/lib/libc.a(__tm_to_secs.o)
 .debug_loc     0x000000000000ddc1      0xf31 0x1 /usr/local/popcorn/x86_64/lib/libc.a(__tz.o)
 .debug_loc     0x000000000000ecf2      0x235 0x1 /usr/local/popcorn/x86_64/lib/libc.a(__year_to_secs.o)
 .debug_loc     0x000000000000ef27       0x7c 0x1 /usr/local/popcorn/x86_64/lib/libc.a(getenv.o)
 .debug_loc     0x000000000000efa3     0x1666 0x1 /usr/local/popcorn/x86_64/lib/libc.a(floatscan.o)
 .debug_loc     0x0000000000010609        0x0 0x1 /usr/local/popcorn/x86_64/lib/libc.a(copysignl.o)
 .debug_loc     0x0000000000010609      0x148 0x1 /usr/local/popcorn/x86_64/lib/libc.a(scalbn.o)
 .debug_loc     0x0000000000010751       0xa3 0x1 /usr/local/popcorn/x86_64/lib/libc.a(scalbnl.o)
 .debug_loc     0x00000000000107f4      0x219 0x1 /usr/local/popcorn/x86_64/lib/libc.a(mbrtowc.o)
 .debug_loc     0x0000000000010a0d        0x0 0x1 /usr/local/popcorn/x86_64/lib/libc.a(mbsinit.o)
 .debug_loc     0x0000000000010a0d       0x72 0x1 /usr/local/popcorn/x86_64/lib/libc.a(wcrtomb.o)
 .debug_loc     0x0000000000010a7f       0xe6 0x1 /usr/local/popcorn/x86_64/lib/libc.a(__overflow.o)
 .debug_loc     0x0000000000010b65       0x36 0x1 /usr/local/popcorn/x86_64/lib/libc.a(__toread.o)
 .debug_loc     0x0000000000010b9b        0x0 0x1 /usr/local/popcorn/x86_64/lib/libc.a(__towrite.o)
 .debug_loc     0x0000000000010b9b       0xd5 0x1 /usr/local/popcorn/x86_64/lib/libc.a(memcmp.o)
 .debug_loc     0x0000000000010c70       0x5d 0x1 /usr/local/popcorn/x86_64/lib/libc.a(strchr.o)
 .debug_loc     0x0000000000010ccd       0xc8 0x1 /usr/local/popcorn/x86_64/lib/libc.a(strchrnul.o)
 .debug_loc     0x0000000000010d95       0xd5 0x1 /usr/local/popcorn/x86_64/lib/libc.a(strncmp.o)
 .debug_loc     0x0000000000010e6a      0x163 0x1 /usr/local/popcorn/x86_64/lib/libc.a(__map_file.o)
 .debug_loc     0x0000000000010fcd       0x3a 0x1 /usr/local/popcorn/x86_64/lib/libc.a(__month_to_secs.o)
 .debug_loc     0x0000000000011007        0x0 0x1 /usr/local/popcorn/x86_64/lib/libc.a(internal.o)
 .debug_loc     0x0000000000011007       0x36 0x1 /usr/local/popcorn/x86_64/lib/libc.a(__stdio_exit.o)
 .debug_loc     0x000000000001103d        0x0 0x1 /usr/local/popcorn/x86_64/lib/libc.a(ofl.o)
 .debug_loc     0x000000000001103d      0x46d 0x1 /usr/local/popcorn/x86_64/lib/libmigrate.a(migrate.o)
 .debug_loc     0x00000000000114aa      0x261 0x1 /usr/local/popcorn/x86_64/lib/libmigrate.a(mapping.o)
 .debug_loc     0x000000000001170b      0x56f 0x1 /usr/local/popcorn/x86_64/lib/libstack-transform.a(userspace.o)
 .debug_loc     0x0000000000011c7a       0xb2 0x1 /usr/local/popcorn/x86_64/lib/libstack-transform.a(init.o)
 .debug_loc     0x0000000000011d2c     0x1289 0x1 /usr/local/popcorn/x86_64/lib/libstack-transform.a(rewrite.o)
 .debug_loc     0x0000000000012fb5      0x7c5 0x1 /usr/local/popcorn/x86_64/lib/libstack-transform.a(unwind.o)
 .debug_loc     0x000000000001377a      0x71b 0x1 /usr/local/popcorn/x86_64/lib/libstack-transform.a(util.o)
 .debug_loc     0x0000000000013e95       0x74 0x1 /usr/local/popcorn/x86_64/lib/libstack-transform.a(properties.o)
 .debug_loc     0x0000000000013f09      0x6b2 0x1 /usr/local/popcorn/x86_64/lib/libstack-transform.a(regs.o)
 .debug_loc     0x00000000000145bb       0xbd 0x1 /usr/local/popcorn/x86_64/lib/libstack-transform.a(properties.o)
 .debug_loc     0x0000000000014678      0x6b5 0x1 /usr/local/popcorn/x86_64/lib/libstack-transform.a(regs.o)
 .debug_loc     0x0000000000014d2d       0x74 0x1 /usr/local/popcorn/x86_64/lib/libstack-transform.a(properties.o)
 .debug_loc     0x0000000000014da1      0x4a4 0x1 /usr/local/popcorn/x86_64/lib/libstack-transform.a(regs.o)
 .debug_loc     0x0000000000015245      0xc4a 0x1 /usr/local/popcorn/x86_64/lib/libstack-transform.a(data.o)
 .debug_loc     0x0000000000015e8f       0xd8 0x1 /usr/local/popcorn/x86_64/lib/libc.a(arch_crash.o)
 .debug_loc     0x0000000000015f67       0xdc 0x1 /usr/local/popcorn/x86_64/lib/libc.a(assert.o)
 .debug_loc     0x0000000000016043       0xc6 0x1 /usr/local/popcorn/x86_64/lib/libc.a(getrlimit.o)
 .debug_loc     0x0000000000016109      0x118 0x1 /usr/local/popcorn/x86_64/lib/libc.a(syscall.o)
 .debug_loc     0x0000000000016221       0xb8 0x1 /usr/local/popcorn/x86_64/lib/libc.a(fclose.o)
 .debug_loc     0x00000000000162d9       0xcb 0x1 /usr/local/popcorn/x86_64/lib/libc.a(fflush.o)
 .debug_loc     0x00000000000163a4      0x165 0x1 /usr/local/popcorn/x86_64/lib/libc.a(fopen.o)
 .debug_loc     0x0000000000016509        0x0 0x1 /usr/local/popcorn/x86_64/lib/libc.a(fprintf.o)
 .debug_loc     0x0000000000016509        0x0 0x1 /usr/local/popcorn/x86_64/lib/libc.a(fscanf.o)
 .debug_loc     0x0000000000016509      0x1ac 0x1 /usr/local/popcorn/x86_64/lib/libc.a(fseek.o)
 .debug_loc     0x00000000000166b5       0x49 0x1 /usr/local/popcorn/x86_64/lib/libc.a(getc.o)
 .debug_loc     0x00000000000166fe       0x49 0x1 /usr/local/popcorn/x86_64/lib/libc.a(getline.o)
 .debug_loc     0x0000000000016747      0x191 0x1 /usr/local/popcorn/x86_64/lib/libc.a(bsearch.o)
 .debug_loc     0x00000000000168d8      0xf9b 0x1 /usr/local/popcorn/x86_64/lib/libc.a(qsort.o)
 .debug_loc     0x0000000000017873        0x0 0x1 /usr/local/popcorn/x86_64/lib/libc.a(pthread_attr_get.o)
 .debug_loc     0x0000000000017873       0xf1 0x1 /usr/local/popcorn/x86_64/lib/libc.a(pthread_getattr_np.o)
 .debug_loc     0x0000000000017964       0x46 0x1 /usr/local/popcorn/x86_64/lib/libc.a(pthread_getspecific.o)
 .debug_loc     0x00000000000179aa      0x1d9 0x1 /usr/local/popcorn/x86_64/lib/libc.a(pthread_key_create.o)
 .debug_loc     0x0000000000017b83       0x46 0x1 /usr/local/popcorn/x86_64/lib/libc.a(pthread_migrate.o)
 .debug_loc     0x0000000000017bc9        0x0 0x1 /usr/local/popcorn/x86_64/lib/libc.a(pthread_self.o)
 .debug_loc     0x0000000000017bc9       0x46 0x1 /usr/local/popcorn/x86_64/lib/libc.a(pthread_setspecific.o)
 .debug_loc     0x0000000000017c0f       0x4a 0x1 /usr/local/popcorn/x86_64/lib/libc.a(lseek.o)
 .debug_loc     0x0000000000017c59        0x0 0x1 /usr/local/popcorn/x86_64/lib/libc.a(abort.o)
 .debug_loc     0x0000000000017c59       0xa5 0x1 /usr/local/popcorn/x86_64/lib/libc.a(raise.o)
 .debug_loc     0x0000000000017cfe      0x18d 0x1 /usr/local/popcorn/x86_64/lib/libc.a(__fdopen.o)
 .debug_loc     0x0000000000017e8b       0xaf 0x1 /usr/local/popcorn/x86_64/lib/libc.a(__fmodeflags.o)
 .debug_loc     0x0000000000017f3a      0x147 0x1 /usr/local/popcorn/x86_64/lib/libc.a(__stdio_read.o)
 .debug_loc     0x0000000000018081      0x513 0x1 /usr/local/popcorn/x86_64/lib/libc.a(getdelim.o)
 .debug_loc     0x0000000000018594       0x59 0x1 /usr/local/popcorn/x86_64/lib/libc.a(ofl_add.o)

.debug_abbrev   0x0000000000000000     0x9fa3
 .debug_abbrev  0x0000000000000000      0x1c8 0x1 tiny_x86_64.o
 .debug_abbrev  0x00000000000001c8       0x67 0x1 /usr/local/popcorn/x86_64/lib/crt1.o
 .debug_abbrev  0x000000000000022f       0xb8 0x1 /usr/local/popcorn/x86_64/lib/libc.a(closedir.o)
 .debug_abbrev  0x00000000000002e7       0xfb 0x1 /usr/local/popcorn/x86_64/lib/libc.a(fdopendir.o)
 .debug_abbrev  0x00000000000003e2      0x113 0x1 /usr/local/popcorn/x86_64/lib/libc.a(readdir.o)
 .debug_abbrev  0x00000000000004f5      0x1c0 0x1 /usr/local/popcorn/x86_64/lib/libc.a(__libc_start_main.o)
 .debug_abbrev  0x00000000000006b5      0x12d 0x1 /usr/local/popcorn/x86_64/lib/libc.a(__errno_location.o)
 .debug_abbrev  0x00000000000007e2       0xa9 0x1 /usr/local/popcorn/x86_64/lib/libc.a(exit.o)
 .debug_abbrev  0x000000000000088b      0x126 0x1 /usr/local/popcorn/x86_64/lib/libc.a(fcntl.o)
 .debug_abbrev  0x00000000000009b1      0x12f 0x1 /usr/local/popcorn/x86_64/lib/libc.a(open.o)
 .debug_abbrev  0x0000000000000ae0       0xd1 0x1 /usr/local/popcorn/x86_64/lib/libc.a(openat.o)
 .debug_abbrev  0x0000000000000bb1       0x96 0x1 /usr/local/popcorn/x86_64/lib/libc.a(libc.o)
 .debug_abbrev  0x0000000000000c47       0x4e 0x1 /usr/local/popcorn/x86_64/lib/libc.a(syscall_ret.o)
 .debug_abbrev  0x0000000000000c95       0xc0 0x1 /usr/local/popcorn/x86_64/lib/libc.a(sendfile.o)
 .debug_abbrev  0x0000000000000d55       0x60 0x1 /usr/local/popcorn/x86_64/lib/libc.a(calloc.o)
 .debug_abbrev  0x0000000000000db5       0xac 0x1 /usr/local/popcorn/x86_64/lib/libc.a(lite_malloc.o)
 .debug_abbrev  0x0000000000000e61      0x284 0x1 /usr/local/popcorn/x86_64/lib/libc.a(malloc.o)
 .debug_abbrev  0x00000000000010e5      0x216 0x1 /usr/local/popcorn/x86_64/lib/libc.a(popcorn_malloc.o)
 .debug_abbrev  0x00000000000012fb       0xbe 0x1 /usr/local/popcorn/x86_64/lib/libc.a(madvise.o)
 .debug_abbrev  0x00000000000013b9       0xd7 0x1 /usr/local/popcorn/x86_64/lib/libc.a(mmap.o)
 .debug_abbrev  0x0000000000001490      0x113 0x1 /usr/local/popcorn/x86_64/lib/libc.a(mremap.o)
 .debug_abbrev  0x00000000000015a3       0xc8 0x1 /usr/local/popcorn/x86_64/lib/libc.a(munmap.o)
 .debug_abbrev  0x000000000000166b       0xa0 0x1 /usr/local/popcorn/x86_64/lib/libc.a(accept.o)
 .debug_abbrev  0x000000000000170b      0x107 0x1 /usr/local/popcorn/x86_64/lib/libc.a(bind.o)
 .debug_abbrev  0x0000000000001812       0xbd 0x1 /usr/local/popcorn/x86_64/lib/libc.a(htonl.o)
 .debug_abbrev  0x00000000000018cf       0xbd 0x1 /usr/local/popcorn/x86_64/lib/libc.a(htons.o)
 .debug_abbrev  0x000000000000198c       0xb8 0x1 /usr/local/popcorn/x86_64/lib/libc.a(inet_ntoa.o)
 .debug_abbrev  0x0000000000001a44       0xa6 0x1 /usr/local/popcorn/x86_64/lib/libc.a(listen.o)
 .debug_abbrev  0x0000000000001aea       0xbd 0x1 /usr/local/popcorn/x86_64/lib/libc.a(ntohs.o)
 .debug_abbrev  0x0000000000001ba7       0xbf 0x1 /usr/local/popcorn/x86_64/lib/libc.a(setsockopt.o)
 .debug_abbrev  0x0000000000001c66       0xbe 0x1 /usr/local/popcorn/x86_64/lib/libc.a(socket.o)
 .debug_abbrev  0x0000000000001d24      0x1b3 0x1 /usr/local/popcorn/x86_64/lib/libc.a(fork.o)
 .debug_abbrev  0x0000000000001ed7       0xda 0x1 /usr/local/popcorn/x86_64/lib/libc.a(block.o)
 .debug_abbrev  0x0000000000001fb1      0x11d 0x1 /usr/local/popcorn/x86_64/lib/libc.a(signal.o)
 .debug_abbrev  0x00000000000020ce      0x138 0x1 /usr/local/popcorn/x86_64/lib/libc.a(fstat.o)
 .debug_abbrev  0x0000000000002206       0xdf 0x1 /usr/local/popcorn/x86_64/lib/libc.a(perror.o)
 .debug_abbrev  0x00000000000022e5       0xc0 0x1 /usr/local/popcorn/x86_64/lib/libc.a(printf.o)
 .debug_abbrev  0x00000000000023a5       0xc0 0x1 /usr/local/popcorn/x86_64/lib/libc.a(snprintf.o)
 .debug_abbrev  0x0000000000002465       0xc0 0x1 /usr/local/popcorn/x86_64/lib/libc.a(sprintf.o)
 .debug_abbrev  0x0000000000002525       0xc0 0x1 /usr/local/popcorn/x86_64/lib/libc.a(sscanf.o)
 .debug_abbrev  0x00000000000025e5       0xc2 0x1 /usr/local/popcorn/x86_64/lib/libc.a(stderr.o)
 .debug_abbrev  0x00000000000026a7       0xcb 0x1 /usr/local/popcorn/x86_64/lib/libc.a(stdout.o)
 .debug_abbrev  0x0000000000002772      0x2be 0x1 /usr/local/popcorn/x86_64/lib/libc.a(vfprintf.o)
 .debug_abbrev  0x0000000000002a30      0x13c 0x1 /usr/local/popcorn/x86_64/lib/libc.a(vsnprintf.o)
 .debug_abbrev  0x0000000000002b6c       0x94 0x1 /usr/local/popcorn/x86_64/lib/libc.a(vsprintf.o)
 .debug_abbrev  0x0000000000002c00      0x12f 0x1 /usr/local/popcorn/x86_64/lib/libc.a(vsscanf.o)
 .debug_abbrev  0x0000000000002d2f       0x9b 0x1 /usr/local/popcorn/x86_64/lib/libc.a(atoi.o)
 .debug_abbrev  0x0000000000002dca      0x166 0x1 /usr/local/popcorn/x86_64/lib/libc.a(strtol.o)
 .debug_abbrev  0x0000000000002f30       0x5c 0x1 /usr/local/popcorn/x86_64/lib/libc.a(strcmp.o)
 .debug_abbrev  0x0000000000002f8c       0x8c 0x1 /usr/local/popcorn/x86_64/lib/libc.a(strlen.o)
 .debug_abbrev  0x0000000000003018       0x78 0x1 /usr/local/popcorn/x86_64/lib/libc.a(strnlen.o)
 .debug_abbrev  0x0000000000003090       0x5c 0x1 /usr/local/popcorn/x86_64/lib/libc.a(strrchr.o)
 .debug_abbrev  0x00000000000030ec       0x28 0x1 /usr/local/popcorn/x86_64/lib/libc.a(memcpy.o)
 .debug_abbrev  0x0000000000003114       0x28 0x1 /usr/local/popcorn/x86_64/lib/libc.a(memset.o)
 .debug_abbrev  0x000000000000313c       0xee 0x1 /usr/local/popcorn/x86_64/lib/libc.a(__lock.o)
 .debug_abbrev  0x000000000000322a       0x85 0x1 /usr/local/popcorn/x86_64/lib/libc.a(__syscall_cp.o)
 .debug_abbrev  0x00000000000032af      0x120 0x1 /usr/local/popcorn/x86_64/lib/libc.a(__wait.o)
 .debug_abbrev  0x00000000000033cf       0x94 0x1 /usr/local/popcorn/x86_64/lib/libc.a(localtime.o)
 .debug_abbrev  0x0000000000003463       0x8c 0x1 /usr/local/popcorn/x86_64/lib/libc.a(localtime_r.o)
 .debug_abbrev  0x00000000000034ef      0x1e6 0x1 /usr/local/popcorn/x86_64/lib/libc.a(strftime.o)
 .debug_abbrev  0x00000000000036d5       0xab 0x1 /usr/local/popcorn/x86_64/lib/libc.a(chdir.o)
 .debug_abbrev  0x0000000000003780       0x78 0x1 /usr/local/popcorn/x86_64/lib/libc.a(close.o)
 .debug_abbrev  0x00000000000037f8       0xdb 0x1 /usr/local/popcorn/x86_64/lib/libc.a(getcwd.o)
 .debug_abbrev  0x00000000000038d3       0x9b 0x1 /usr/local/popcorn/x86_64/lib/libc.a(getpid.o)
 .debug_abbrev  0x000000000000396e       0x60 0x1 /usr/local/popcorn/x86_64/lib/libc.a(read.o)
 .debug_abbrev  0x00000000000039ce       0x67 0x1 /usr/local/popcorn/x86_64/lib/libc.a(write.o)
 .debug_abbrev  0x0000000000003a35       0x36 0x1 /usr/local/popcorn/x86_64/lib/libc.a(__environ.o)
 .debug_abbrev  0x0000000000003a6b      0x1cd 0x1 /usr/local/popcorn/x86_64/lib/libc.a(__init_tls.o)
 .debug_abbrev  0x0000000000003c38      0x17d 0x1 /usr/local/popcorn/x86_64/lib/libc.a(strerror.o)
 .debug_abbrev  0x0000000000003db5       0x92 0x1 /usr/local/popcorn/x86_64/lib/libc.a(_Exit.o)
 .debug_abbrev  0x0000000000003e47      0x12e 0x1 /usr/local/popcorn/x86_64/lib/libc.a(intscan.o)
 .debug_abbrev  0x0000000000003f75       0x71 0x1 /usr/local/popcorn/x86_64/lib/libc.a(procfdname.o)
 .debug_abbrev  0x0000000000003fe6      0x10b 0x1 /usr/local/popcorn/x86_64/lib/libc.a(shgetc.o)
 .debug_abbrev  0x00000000000040f1       0x28 0x1 /usr/local/popcorn/x86_64/lib/libc.a(syscall.o)
 .debug_abbrev  0x0000000000004119      0x162 0x1 /usr/local/popcorn/x86_64/lib/libc.a(__lctrans.o)
 .debug_abbrev  0x000000000000427b      0x177 0x1 /usr/local/popcorn/x86_64/lib/libc.a(langinfo.o)
 .debug_abbrev  0x00000000000043f2      0x14a 0x1 /usr/local/popcorn/x86_64/lib/libc.a(expand_heap.o)
 .debug_abbrev  0x000000000000453c       0xad 0x1 /usr/local/popcorn/x86_64/lib/libc.a(__fpclassifyl.o)
 .debug_abbrev  0x00000000000045e9       0x91 0x1 /usr/local/popcorn/x86_64/lib/libc.a(__signbitl.o)
 .debug_abbrev  0x000000000000467a       0xa5 0x1 /usr/local/popcorn/x86_64/lib/libc.a(frexpl.o)
 .debug_abbrev  0x000000000000471f       0x62 0x1 /usr/local/popcorn/x86_64/lib/libc.a(wctomb.o)
 .debug_abbrev  0x0000000000004781      0x1db 0x1 /usr/local/popcorn/x86_64/lib/libc.a(sigaction.o)
 .debug_abbrev  0x000000000000495c       0x28 0x1 /usr/local/popcorn/x86_64/lib/libc.a(restore.o)
 .debug_abbrev  0x0000000000004984      0x1c1 0x1 /usr/local/popcorn/x86_64/lib/libc.a(__lockfile.o)
 .debug_abbrev  0x0000000000004b45      0x13c 0x1 /usr/local/popcorn/x86_64/lib/libc.a(__stdio_close.o)
 .debug_abbrev  0x0000000000004c81      0x130 0x1 /usr/local/popcorn/x86_64/lib/libc.a(__stdio_seek.o)
 .debug_abbrev  0x0000000000004db1      0x168 0x1 /usr/local/popcorn/x86_64/lib/libc.a(__stdio_write.o)
 .debug_abbrev  0x0000000000004f19      0x121 0x1 /usr/local/popcorn/x86_64/lib/libc.a(__stdout_write.o)
 .debug_abbrev  0x000000000000503a       0xe1 0x1 /usr/local/popcorn/x86_64/lib/libc.a(__string_read.o)
 .debug_abbrev  0x000000000000511b       0xe1 0x1 /usr/local/popcorn/x86_64/lib/libc.a(__uflow.o)
 .debug_abbrev  0x00000000000051fc       0xd2 0x1 /usr/local/popcorn/x86_64/lib/libc.a(fputc.o)
 .debug_abbrev  0x00000000000052ce      0x112 0x1 /usr/local/popcorn/x86_64/lib/libc.a(fwrite.o)
 .debug_abbrev  0x00000000000053e0      0x1e4 0x1 /usr/local/popcorn/x86_64/lib/libc.a(vfscanf.o)
 .debug_abbrev  0x00000000000055c4       0x4e 0x1 /usr/local/popcorn/x86_64/lib/libc.a(abs.o)
 .debug_abbrev  0x0000000000005612       0x8b 0x1 /usr/local/popcorn/x86_64/lib/libc.a(memchr.o)
 .debug_abbrev  0x000000000000569d       0x82 0x1 /usr/local/popcorn/x86_64/lib/libc.a(memrchr.o)
 .debug_abbrev  0x000000000000571f       0x78 0x1 /usr/local/popcorn/x86_64/lib/libc.a(strdup.o)
 .debug_abbrev  0x0000000000005797       0x28 0x1 /usr/local/popcorn/x86_64/lib/libc.a(__set_thread_area.o)
 .debug_abbrev  0x00000000000057bf       0xdc 0x1 /usr/local/popcorn/x86_64/lib/libc.a(__secs_to_tm.o)
 .debug_abbrev  0x000000000000589b       0x9d 0x1 /usr/local/popcorn/x86_64/lib/libc.a(__tm_to_secs.o)
 .debug_abbrev  0x0000000000005938      0x2b4 0x1 /usr/local/popcorn/x86_64/lib/libc.a(__tz.o)
 .debug_abbrev  0x0000000000005bec       0x78 0x1 /usr/local/popcorn/x86_64/lib/libc.a(__year_to_secs.o)
 .debug_abbrev  0x0000000000005c64       0x81 0x1 /usr/local/popcorn/x86_64/lib/libc.a(getenv.o)
 .debug_abbrev  0x0000000000005ce5      0x1fa 0x1 /usr/local/popcorn/x86_64/lib/libc.a(floatscan.o)
 .debug_abbrev  0x0000000000005edf       0x91 0x1 /usr/local/popcorn/x86_64/lib/libc.a(copysignl.o)
 .debug_abbrev  0x0000000000005f70       0x93 0x1 /usr/local/popcorn/x86_64/lib/libc.a(scalbn.o)
 .debug_abbrev  0x0000000000006003       0xa0 0x1 /usr/local/popcorn/x86_64/lib/libc.a(scalbnl.o)
 .debug_abbrev  0x00000000000060a3       0x28 0x1 /usr/local/popcorn/x86_64/lib/libc.a(fabs.o)
 .debug_abbrev  0x00000000000060cb       0x28 0x1 /usr/local/popcorn/x86_64/lib/libc.a(fmodl.o)
 .debug_abbrev  0x00000000000060f3      0x179 0x1 /usr/local/popcorn/x86_64/lib/libc.a(mbrtowc.o)
 .debug_abbrev  0x000000000000626c       0x85 0x1 /usr/local/popcorn/x86_64/lib/libc.a(mbsinit.o)
 .debug_abbrev  0x00000000000062f1      0x16a 0x1 /usr/local/popcorn/x86_64/lib/libc.a(wcrtomb.o)
 .debug_abbrev  0x000000000000645b       0xe1 0x1 /usr/local/popcorn/x86_64/lib/libc.a(__overflow.o)
 .debug_abbrev  0x000000000000653c       0xeb 0x1 /usr/local/popcorn/x86_64/lib/libc.a(__toread.o)
 .debug_abbrev  0x0000000000006627       0xeb 0x1 /usr/local/popcorn/x86_64/lib/libc.a(__towrite.o)
 .debug_abbrev  0x0000000000006712       0x7d 0x1 /usr/local/popcorn/x86_64/lib/libc.a(memcmp.o)
 .debug_abbrev  0x000000000000678f       0x7a 0x1 /usr/local/popcorn/x86_64/lib/libc.a(strchr.o)
 .debug_abbrev  0x0000000000006809       0x8c 0x1 /usr/local/popcorn/x86_64/lib/libc.a(strchrnul.o)
 .debug_abbrev  0x0000000000006895       0x7d 0x1 /usr/local/popcorn/x86_64/lib/libc.a(strncmp.o)
 .debug_abbrev  0x0000000000006912      0x13e 0x1 /usr/local/popcorn/x86_64/lib/libc.a(__map_file.o)
 .debug_abbrev  0x0000000000006a50       0x8e 0x1 /usr/local/popcorn/x86_64/lib/libc.a(__month_to_secs.o)
 .debug_abbrev  0x0000000000006ade       0x5e 0x1 /usr/local/popcorn/x86_64/lib/libc.a(internal.o)
 .debug_abbrev  0x0000000000006b3c      0x105 0x1 /usr/local/popcorn/x86_64/lib/libc.a(__stdio_exit.o)
 .debug_abbrev  0x0000000000006c41       0xed 0x1 /usr/local/popcorn/x86_64/lib/libc.a(ofl.o)
 .debug_abbrev  0x0000000000006d2e      0x1f6 0x1 /usr/local/popcorn/x86_64/lib/libmigrate.a(migrate.o)
 .debug_abbrev  0x0000000000006f24      0x129 0x1 /usr/local/popcorn/x86_64/lib/libmigrate.a(mapping.o)
 .debug_abbrev  0x000000000000704d      0x24f 0x1 /usr/local/popcorn/x86_64/lib/libstack-transform.a(userspace.o)
 .debug_abbrev  0x000000000000729c      0x172 0x1 /usr/local/popcorn/x86_64/lib/libstack-transform.a(init.o)
 .debug_abbrev  0x000000000000740e      0x270 0x1 /usr/local/popcorn/x86_64/lib/libstack-transform.a(rewrite.o)
 .debug_abbrev  0x000000000000767e      0x205 0x1 /usr/local/popcorn/x86_64/lib/libstack-transform.a(unwind.o)
 .debug_abbrev  0x0000000000007883      0x1a0 0x1 /usr/local/popcorn/x86_64/lib/libstack-transform.a(util.o)
 .debug_abbrev  0x0000000000007a23       0xe2 0x1 /usr/local/popcorn/x86_64/lib/libstack-transform.a(properties.o)
 .debug_abbrev  0x0000000000007b05      0x12a 0x1 /usr/local/popcorn/x86_64/lib/libstack-transform.a(regs.o)
 .debug_abbrev  0x0000000000007c2f       0xf1 0x1 /usr/local/popcorn/x86_64/lib/libstack-transform.a(properties.o)
 .debug_abbrev  0x0000000000007d20      0x12a 0x1 /usr/local/popcorn/x86_64/lib/libstack-transform.a(regs.o)
 .debug_abbrev  0x0000000000007e4a       0xe2 0x1 /usr/local/popcorn/x86_64/lib/libstack-transform.a(properties.o)
 .debug_abbrev  0x0000000000007f2c      0x12a 0x1 /usr/local/popcorn/x86_64/lib/libstack-transform.a(regs.o)
 .debug_abbrev  0x0000000000008056      0x267 0x1 /usr/local/popcorn/x86_64/lib/libstack-transform.a(data.o)
 .debug_abbrev  0x00000000000082bd       0xb1 0x1 /usr/local/popcorn/x86_64/lib/libc.a(arch_crash.o)
 .debug_abbrev  0x000000000000836e       0x5a 0x1 /usr/local/popcorn/x86_64/lib/libc.a(assert.o)
 .debug_abbrev  0x00000000000083c8      0x106 0x1 /usr/local/popcorn/x86_64/lib/libc.a(getrlimit.o)
 .debug_abbrev  0x00000000000084ce      0x11b 0x1 /usr/local/popcorn/x86_64/lib/libc.a(syscall.o)
 .debug_abbrev  0x00000000000085e9      0x11f 0x1 /usr/local/popcorn/x86_64/lib/libc.a(fclose.o)
 .debug_abbrev  0x0000000000008708       0xf9 0x1 /usr/local/popcorn/x86_64/lib/libc.a(fflush.o)
 .debug_abbrev  0x0000000000008801      0x149 0x1 /usr/local/popcorn/x86_64/lib/libc.a(fopen.o)
 .debug_abbrev  0x000000000000894a       0xd6 0x1 /usr/local/popcorn/x86_64/lib/libc.a(fprintf.o)
 .debug_abbrev  0x0000000000008a20       0xd6 0x1 /usr/local/popcorn/x86_64/lib/libc.a(fscanf.o)
 .debug_abbrev  0x0000000000008af6       0xfd 0x1 /usr/local/popcorn/x86_64/lib/libc.a(fseek.o)
 .debug_abbrev  0x0000000000008bf3       0xdf 0x1 /usr/local/popcorn/x86_64/lib/libc.a(getc.o)
 .debug_abbrev  0x0000000000008cd2       0x8e 0x1 /usr/local/popcorn/x86_64/lib/libc.a(getline.o)
 .debug_abbrev  0x0000000000008d60       0x8b 0x1 /usr/local/popcorn/x86_64/lib/libc.a(bsearch.o)
 .debug_abbrev  0x0000000000008deb      0x1a6 0x1 /usr/local/popcorn/x86_64/lib/libc.a(qsort.o)
 .debug_abbrev  0x0000000000008f91       0x28 0x1 /usr/local/popcorn/x86_64/lib/libc.a(memmove.o)
 .debug_abbrev  0x0000000000008fb9       0xfd 0x1 /usr/local/popcorn/x86_64/lib/libc.a(pthread_attr_get.o)
 .debug_abbrev  0x00000000000090b6      0x128 0x1 /usr/local/popcorn/x86_64/lib/libc.a(pthread_getattr_np.o)
 .debug_abbrev  0x00000000000091de      0x149 0x1 /usr/local/popcorn/x86_64/lib/libc.a(pthread_getspecific.o)
 .debug_abbrev  0x0000000000009327      0x1ec 0x1 /usr/local/popcorn/x86_64/lib/libc.a(pthread_key_create.o)
 .debug_abbrev  0x0000000000009513      0x13a 0x1 /usr/local/popcorn/x86_64/lib/libc.a(pthread_migrate.o)
 .debug_abbrev  0x000000000000964d      0x129 0x1 /usr/local/popcorn/x86_64/lib/libc.a(pthread_self.o)
 .debug_abbrev  0x0000000000009776      0x150 0x1 /usr/local/popcorn/x86_64/lib/libc.a(pthread_setspecific.o)
 .debug_abbrev  0x00000000000098c6       0xb9 0x1 /usr/local/popcorn/x86_64/lib/libc.a(lseek.o)
 .debug_abbrev  0x000000000000997f       0x51 0x1 /usr/local/popcorn/x86_64/lib/libc.a(abort.o)
 .debug_abbrev  0x00000000000099d0       0xf0 0x1 /usr/local/popcorn/x86_64/lib/libc.a(raise.o)
 .debug_abbrev  0x0000000000009ac0      0x14b 0x1 /usr/local/popcorn/x86_64/lib/libc.a(__fdopen.o)
 .debug_abbrev  0x0000000000009c0b       0x6b 0x1 /usr/local/popcorn/x86_64/lib/libc.a(__fmodeflags.o)
 .debug_abbrev  0x0000000000009c76      0x15b 0x1 /usr/local/popcorn/x86_64/lib/libc.a(__stdio_read.o)
 .debug_abbrev  0x0000000000009dd1       0xf1 0x1 /usr/local/popcorn/x86_64/lib/libc.a(getdelim.o)
 .debug_abbrev  0x0000000000009ec2       0xe1 0x1 /usr/local/popcorn/x86_64/lib/libc.a(ofl_add.o)

.debug_info     0x0000000000000000    0x213d2
 .debug_info    0x0000000000000000      0xbd4 0x1 tiny_x86_64.o
 .debug_info    0x0000000000000bd4       0x91 0x1 /usr/local/popcorn/x86_64/lib/crt1.o
 .debug_info    0x0000000000000c65      0x10a 0x1 /usr/local/popcorn/x86_64/lib/libc.a(closedir.o)
 .debug_info    0x0000000000000d6f      0x275 0x1 /usr/local/popcorn/x86_64/lib/libc.a(fdopendir.o)
 .debug_info    0x0000000000000fe4      0x207 0x1 /usr/local/popcorn/x86_64/lib/libc.a(readdir.o)
 .debug_info    0x00000000000011eb      0x30b 0x1 /usr/local/popcorn/x86_64/lib/libc.a(__libc_start_main.o)
 .debug_info    0x00000000000014f6      0x3a7 0x1 /usr/local/popcorn/x86_64/lib/libc.a(__errno_location.o)
 .debug_info    0x000000000000189d       0xb0 0x1 /usr/local/popcorn/x86_64/lib/libc.a(exit.o)
 .debug_info    0x000000000000194d      0x32e 0x1 /usr/local/popcorn/x86_64/lib/libc.a(fcntl.o)
 .debug_info    0x0000000000001c7b      0x1b3 0x1 /usr/local/popcorn/x86_64/lib/libc.a(open.o)
 .debug_info    0x0000000000001e2e      0x13b 0x1 /usr/local/popcorn/x86_64/lib/libc.a(openat.o)
 .debug_info    0x0000000000001f69      0x1d7 0x1 /usr/local/popcorn/x86_64/lib/libc.a(libc.o)
 .debug_info    0x0000000000002140       0x62 0x1 /usr/local/popcorn/x86_64/lib/libc.a(syscall_ret.o)
 .debug_info    0x00000000000021a2      0x135 0x1 /usr/local/popcorn/x86_64/lib/libc.a(sendfile.o)
 .debug_info    0x00000000000022d7       0xc4 0x1 /usr/local/popcorn/x86_64/lib/libc.a(calloc.o)
 .debug_info    0x000000000000239b      0x12d 0x1 /usr/local/popcorn/x86_64/lib/libc.a(lite_malloc.o)
 .debug_info    0x00000000000024c8     0x14ab 0x1 /usr/local/popcorn/x86_64/lib/libc.a(malloc.o)
 .debug_info    0x0000000000003973     0x1887 0x1 /usr/local/popcorn/x86_64/lib/libc.a(popcorn_malloc.o)
 .debug_info    0x00000000000051fa       0xf4 0x1 /usr/local/popcorn/x86_64/lib/libc.a(madvise.o)
 .debug_info    0x00000000000052ee      0x195 0x1 /usr/local/popcorn/x86_64/lib/libc.a(mmap.o)
 .debug_info    0x0000000000005483      0x1d9 0x1 /usr/local/popcorn/x86_64/lib/libc.a(mremap.o)
 .debug_info    0x000000000000565c       0xf3 0x1 /usr/local/popcorn/x86_64/lib/libc.a(munmap.o)
 .debug_info    0x000000000000574f       0xf8 0x1 /usr/local/popcorn/x86_64/lib/libc.a(accept.o)
 .debug_info    0x0000000000005847      0x1be 0x1 /usr/local/popcorn/x86_64/lib/libc.a(bind.o)
 .debug_info    0x0000000000005a05       0xd2 0x1 /usr/local/popcorn/x86_64/lib/libc.a(htonl.o)
 .debug_info    0x0000000000005ad7       0xd2 0x1 /usr/local/popcorn/x86_64/lib/libc.a(htons.o)
 .debug_info    0x0000000000005ba9       0xce 0x1 /usr/local/popcorn/x86_64/lib/libc.a(inet_ntoa.o)
 .debug_info    0x0000000000005c77      0x149 0x1 /usr/local/popcorn/x86_64/lib/libc.a(listen.o)
 .debug_info    0x0000000000005dc0       0xd2 0x1 /usr/local/popcorn/x86_64/lib/libc.a(ntohs.o)
 .debug_info    0x0000000000005e92      0x171 0x1 /usr/local/popcorn/x86_64/lib/libc.a(setsockopt.o)
 .debug_info    0x0000000000006003      0x230 0x1 /usr/local/popcorn/x86_64/lib/libc.a(socket.o)
 .debug_info    0x0000000000006233      0x4a3 0x1 /usr/local/popcorn/x86_64/lib/libc.a(fork.o)
 .debug_info    0x00000000000066d6      0x1c9 0x1 /usr/local/popcorn/x86_64/lib/libc.a(block.o)
 .debug_info    0x000000000000689f      0x399 0x1 /usr/local/popcorn/x86_64/lib/libc.a(signal.o)
 .debug_info    0x0000000000006c38      0x2e5 0x1 /usr/local/popcorn/x86_64/lib/libc.a(fstat.o)
 .debug_info    0x0000000000006f1d      0x334 0x1 /usr/local/popcorn/x86_64/lib/libc.a(perror.o)
 .debug_info    0x0000000000007251      0x105 0x1 /usr/local/popcorn/x86_64/lib/libc.a(printf.o)
 .debug_info    0x0000000000007356      0x139 0x1 /usr/local/popcorn/x86_64/lib/libc.a(snprintf.o)
 .debug_info    0x000000000000748f      0x11a 0x1 /usr/local/popcorn/x86_64/lib/libc.a(sprintf.o)
 .debug_info    0x00000000000075a9      0x110 0x1 /usr/local/popcorn/x86_64/lib/libc.a(sscanf.o)
 .debug_info    0x00000000000076b9      0x336 0x1 /usr/local/popcorn/x86_64/lib/libc.a(stderr.o)
 .debug_info    0x00000000000079ef      0x337 0x1 /usr/local/popcorn/x86_64/lib/libc.a(stdout.o)
 .debug_info    0x0000000000007d26     0x111f 0x1 /usr/local/popcorn/x86_64/lib/libc.a(vfprintf.o)
 .debug_info    0x0000000000008e45      0x45a 0x1 /usr/local/popcorn/x86_64/lib/libc.a(vsnprintf.o)
 .debug_info    0x000000000000929f       0xdc 0x1 /usr/local/popcorn/x86_64/lib/libc.a(vsprintf.o)
 .debug_info    0x000000000000937b      0x3bb 0x1 /usr/local/popcorn/x86_64/lib/libc.a(vsscanf.o)
 .debug_info    0x0000000000009736       0xbc 0x1 /usr/local/popcorn/x86_64/lib/libc.a(atoi.o)
 .debug_info    0x00000000000097f2      0x5ba 0x1 /usr/local/popcorn/x86_64/lib/libc.a(strtol.o)
 .debug_info    0x0000000000009dac       0x87 0x1 /usr/local/popcorn/x86_64/lib/libc.a(strcmp.o)
 .debug_info    0x0000000000009e33       0xae 0x1 /usr/local/popcorn/x86_64/lib/libc.a(strlen.o)
 .debug_info    0x0000000000009ee1       0x95 0x1 /usr/local/popcorn/x86_64/lib/libc.a(strnlen.o)
 .debug_info    0x0000000000009f76       0x80 0x1 /usr/local/popcorn/x86_64/lib/libc.a(strrchr.o)
 .debug_info    0x0000000000009ff6       0xdb 0x1 /usr/local/popcorn/x86_64/lib/libc.a(memcpy.o)
 .debug_info    0x000000000000a0d1       0xbb 0x1 /usr/local/popcorn/x86_64/lib/libc.a(memset.o)
 .debug_info    0x000000000000a18c      0x1e9 0x1 /usr/local/popcorn/x86_64/lib/libc.a(__lock.o)
 .debug_info    0x000000000000a375      0x12a 0x1 /usr/local/popcorn/x86_64/lib/libc.a(__syscall_cp.o)
 .debug_info    0x000000000000a49f      0x1d5 0x1 /usr/local/popcorn/x86_64/lib/libc.a(__wait.o)
 .debug_info    0x000000000000a674      0x12d 0x1 /usr/local/popcorn/x86_64/lib/libc.a(localtime.o)
 .debug_info    0x000000000000a7a1      0x13a 0x1 /usr/local/popcorn/x86_64/lib/libc.a(localtime_r.o)
 .debug_info    0x000000000000a8db      0x723 0x1 /usr/local/popcorn/x86_64/lib/libc.a(strftime.o)
 .debug_info    0x000000000000affe       0xc8 0x1 /usr/local/popcorn/x86_64/lib/libc.a(chdir.o)
 .debug_info    0x000000000000b0c6       0x9a 0x1 /usr/local/popcorn/x86_64/lib/libc.a(close.o)
 .debug_info    0x000000000000b160      0x107 0x1 /usr/local/popcorn/x86_64/lib/libc.a(getcwd.o)
 .debug_info    0x000000000000b267       0xaa 0x1 /usr/local/popcorn/x86_64/lib/libc.a(getpid.o)
 .debug_info    0x000000000000b311       0x9e 0x1 /usr/local/popcorn/x86_64/lib/libc.a(read.o)
 .debug_info    0x000000000000b3af       0xa3 0x1 /usr/local/popcorn/x86_64/lib/libc.a(write.o)
 .debug_info    0x000000000000b452       0x45 0x1 /usr/local/popcorn/x86_64/lib/libc.a(__environ.o)
 .debug_info    0x000000000000b497      0x763 0x1 /usr/local/popcorn/x86_64/lib/libc.a(__init_tls.o)
 .debug_info    0x000000000000bbfa      0x498 0x1 /usr/local/popcorn/x86_64/lib/libc.a(strerror.o)
 .debug_info    0x000000000000c092       0xc7 0x1 /usr/local/popcorn/x86_64/lib/libc.a(_Exit.o)
 .debug_info    0x000000000000c159      0x3ce 0x1 /usr/local/popcorn/x86_64/lib/libc.a(intscan.o)
 .debug_info    0x000000000000c527       0x8e 0x1 /usr/local/popcorn/x86_64/lib/libc.a(procfdname.o)
 .debug_info    0x000000000000c5b5      0x340 0x1 /usr/local/popcorn/x86_64/lib/libc.a(shgetc.o)
 .debug_info    0x000000000000c8f5       0xbe 0x1 /usr/local/popcorn/x86_64/lib/libc.a(syscall.o)
 .debug_info    0x000000000000c9b3      0x469 0x1 /usr/local/popcorn/x86_64/lib/libc.a(__lctrans.o)
 .debug_info    0x000000000000ce1c      0x4f0 0x1 /usr/local/popcorn/x86_64/lib/libc.a(langinfo.o)
 .debug_info    0x000000000000d30c      0x590 0x1 /usr/local/popcorn/x86_64/lib/libc.a(expand_heap.o)
 .debug_info    0x000000000000d89c       0xed 0x1 /usr/local/popcorn/x86_64/lib/libc.a(__fpclassifyl.o)
 .debug_info    0x000000000000d989       0xd3 0x1 /usr/local/popcorn/x86_64/lib/libc.a(__signbitl.o)
 .debug_info    0x000000000000da5c       0xf2 0x1 /usr/local/popcorn/x86_64/lib/libc.a(frexpl.o)
 .debug_info    0x000000000000db4e       0x7f 0x1 /usr/local/popcorn/x86_64/lib/libc.a(wctomb.o)
 .debug_info    0x000000000000dbcd      0x5dd 0x1 /usr/local/popcorn/x86_64/lib/libc.a(sigaction.o)
 .debug_info    0x000000000000e1aa       0xc1 0x1 /usr/local/popcorn/x86_64/lib/libc.a(restore.o)
 .debug_info    0x000000000000e26b      0x783 0x1 /usr/local/popcorn/x86_64/lib/libc.a(__lockfile.o)
 .debug_info    0x000000000000e9ee      0x37b 0x1 /usr/local/popcorn/x86_64/lib/libc.a(__stdio_close.o)
 .debug_info    0x000000000000ed69      0x38d 0x1 /usr/local/popcorn/x86_64/lib/libc.a(__stdio_seek.o)
 .debug_info    0x000000000000f0f6      0x405 0x1 /usr/local/popcorn/x86_64/lib/libc.a(__stdio_write.o)
 .debug_info    0x000000000000f4fb      0x3d9 0x1 /usr/local/popcorn/x86_64/lib/libc.a(__stdout_write.o)
 .debug_info    0x000000000000f8d4      0x34c 0x1 /usr/local/popcorn/x86_64/lib/libc.a(__string_read.o)
 .debug_info    0x000000000000fc20      0x310 0x1 /usr/local/popcorn/x86_64/lib/libc.a(__uflow.o)
 .debug_info    0x000000000000ff30      0x310 0x1 /usr/local/popcorn/x86_64/lib/libc.a(fputc.o)
 .debug_info    0x0000000000010240      0x3dc 0x1 /usr/local/popcorn/x86_64/lib/libc.a(fwrite.o)
 .debug_info    0x000000000001061c      0x6bc 0x1 /usr/local/popcorn/x86_64/lib/libc.a(vfscanf.o)
 .debug_info    0x0000000000010cd8       0x5b 0x1 /usr/local/popcorn/x86_64/lib/libc.a(abs.o)
 .debug_info    0x0000000000010d33       0xf3 0x1 /usr/local/popcorn/x86_64/lib/libc.a(memchr.o)
 .debug_info    0x0000000000010e26       0xb2 0x1 /usr/local/popcorn/x86_64/lib/libc.a(memrchr.o)
 .debug_info    0x0000000000010ed8       0x9a 0x1 /usr/local/popcorn/x86_64/lib/libc.a(strdup.o)
 .debug_info    0x0000000000010f72       0xd0 0x1 /usr/local/popcorn/x86_64/lib/libc.a(__set_thread_area.o)
 .debug_info    0x0000000000011042      0x1fd 0x1 /usr/local/popcorn/x86_64/lib/libc.a(__secs_to_tm.o)
 .debug_info    0x000000000001123f      0x166 0x1 /usr/local/popcorn/x86_64/lib/libc.a(__tm_to_secs.o)
 .debug_info    0x00000000000113a5      0xab8 0x1 /usr/local/popcorn/x86_64/lib/libc.a(__tz.o)
 .debug_info    0x0000000000011e5d       0xd2 0x1 /usr/local/popcorn/x86_64/lib/libc.a(__year_to_secs.o)
 .debug_info    0x0000000000011f2f       0xad 0x1 /usr/local/popcorn/x86_64/lib/libc.a(getenv.o)
 .debug_info    0x0000000000011fdc      0x8ec 0x1 /usr/local/popcorn/x86_64/lib/libc.a(floatscan.o)
 .debug_info    0x00000000000128c8       0xea 0x1 /usr/local/popcorn/x86_64/lib/libc.a(copysignl.o)
 .debug_info    0x00000000000129b2       0xc7 0x1 /usr/local/popcorn/x86_64/lib/libc.a(scalbn.o)
 .debug_info    0x0000000000012a79       0xe6 0x1 /usr/local/popcorn/x86_64/lib/libc.a(scalbnl.o)
 .debug_info    0x0000000000012b5f       0xb7 0x1 /usr/local/popcorn/x86_64/lib/libc.a(fabs.o)
 .debug_info    0x0000000000012c16       0xb9 0x1 /usr/local/popcorn/x86_64/lib/libc.a(fmodl.o)
 .debug_info    0x0000000000012ccf      0x4f8 0x1 /usr/local/popcorn/x86_64/lib/libc.a(mbrtowc.o)
 .debug_info    0x00000000000131c7       0x9f 0x1 /usr/local/popcorn/x86_64/lib/libc.a(mbsinit.o)
 .debug_info    0x0000000000013266      0x462 0x1 /usr/local/popcorn/x86_64/lib/libc.a(wcrtomb.o)
 .debug_info    0x00000000000136c8      0x31f 0x1 /usr/local/popcorn/x86_64/lib/libc.a(__overflow.o)
 .debug_info    0x00000000000139e7      0x316 0x1 /usr/local/popcorn/x86_64/lib/libc.a(__toread.o)
 .debug_info    0x0000000000013cfd      0x314 0x1 /usr/local/popcorn/x86_64/lib/libc.a(__towrite.o)
 .debug_info    0x0000000000014011       0xc0 0x1 /usr/local/popcorn/x86_64/lib/libc.a(memcmp.o)
 .debug_info    0x00000000000140d1       0x99 0x1 /usr/local/popcorn/x86_64/lib/libc.a(strchr.o)
 .debug_info    0x000000000001416a       0xcd 0x1 /usr/local/popcorn/x86_64/lib/libc.a(strchrnul.o)
 .debug_info    0x0000000000014237       0xcc 0x1 /usr/local/popcorn/x86_64/lib/libc.a(strncmp.o)
 .debug_info    0x0000000000014303      0x32f 0x1 /usr/local/popcorn/x86_64/lib/libc.a(__map_file.o)
 .debug_info    0x0000000000014632       0xa6 0x1 /usr/local/popcorn/x86_64/lib/libc.a(__month_to_secs.o)
 .debug_info    0x00000000000146d8       0x5e 0x1 /usr/local/popcorn/x86_64/lib/libc.a(internal.o)
 .debug_info    0x0000000000014736      0x338 0x1 /usr/local/popcorn/x86_64/lib/libc.a(__stdio_exit.o)
 .debug_info    0x0000000000014a6e      0x341 0x1 /usr/local/popcorn/x86_64/lib/libc.a(ofl.o)
 .debug_info    0x0000000000014daf      0x474 0x1 /usr/local/popcorn/x86_64/lib/libmigrate.a(migrate.o)
 .debug_info    0x0000000000015223      0x2a6 0x1 /usr/local/popcorn/x86_64/lib/libmigrate.a(mapping.o)
 .debug_info    0x00000000000154c9      0xd34 0x1 /usr/local/popcorn/x86_64/lib/libstack-transform.a(userspace.o)
 .debug_info    0x00000000000161fd      0x8c3 0x1 /usr/local/popcorn/x86_64/lib/libstack-transform.a(init.o)
 .debug_info    0x0000000000016ac0     0x104b 0x1 /usr/local/popcorn/x86_64/lib/libstack-transform.a(rewrite.o)
 .debug_info    0x0000000000017b0b      0xd97 0x1 /usr/local/popcorn/x86_64/lib/libstack-transform.a(unwind.o)
 .debug_info    0x00000000000188a2      0xc85 0x1 /usr/local/popcorn/x86_64/lib/libstack-transform.a(util.o)
 .debug_info    0x0000000000019527      0x1f1 0x1 /usr/local/popcorn/x86_64/lib/libstack-transform.a(properties.o)
 .debug_info    0x0000000000019718      0x6a9 0x1 /usr/local/popcorn/x86_64/lib/libstack-transform.a(regs.o)
 .debug_info    0x0000000000019dc1      0x20c 0x1 /usr/local/popcorn/x86_64/lib/libstack-transform.a(properties.o)
 .debug_info    0x0000000000019fcd      0x6a0 0x1 /usr/local/popcorn/x86_64/lib/libstack-transform.a(regs.o)
 .debug_info    0x000000000001a66d      0x1f1 0x1 /usr/local/popcorn/x86_64/lib/libstack-transform.a(properties.o)
 .debug_info    0x000000000001a85e      0x7d9 0x1 /usr/local/popcorn/x86_64/lib/libstack-transform.a(regs.o)
 .debug_info    0x000000000001b037      0xf5e 0x1 /usr/local/popcorn/x86_64/lib/libstack-transform.a(data.o)
 .debug_info    0x000000000001bf95      0x1c4 0x1 /usr/local/popcorn/x86_64/lib/libc.a(arch_crash.o)
 .debug_info    0x000000000001c159       0x95 0x1 /usr/local/popcorn/x86_64/lib/libc.a(assert.o)
 .debug_info    0x000000000001c1ee      0x1c7 0x1 /usr/local/popcorn/x86_64/lib/libc.a(getrlimit.o)
 .debug_info    0x000000000001c3b5      0x204 0x1 /usr/local/popcorn/x86_64/lib/libc.a(syscall.o)
 .debug_info    0x000000000001c5b9      0x36f 0x1 /usr/local/popcorn/x86_64/lib/libc.a(fclose.o)
 .debug_info    0x000000000001c928      0x364 0x1 /usr/local/popcorn/x86_64/lib/libc.a(fflush.o)
 .debug_info    0x000000000001cc8c      0x450 0x1 /usr/local/popcorn/x86_64/lib/libc.a(fopen.o)
 .debug_info    0x000000000001d0dc      0x12b 0x1 /usr/local/popcorn/x86_64/lib/libc.a(fprintf.o)
 .debug_info    0x000000000001d207      0x12b 0x1 /usr/local/popcorn/x86_64/lib/libc.a(fscanf.o)
 .debug_info    0x000000000001d332      0x3c3 0x1 /usr/local/popcorn/x86_64/lib/libc.a(fseek.o)
 .debug_info    0x000000000001d6f5      0x30c 0x1 /usr/local/popcorn/x86_64/lib/libc.a(getc.o)
 .debug_info    0x000000000001da01       0xcd 0x1 /usr/local/popcorn/x86_64/lib/libc.a(getline.o)
 .debug_info    0x000000000001dace       0xef 0x1 /usr/local/popcorn/x86_64/lib/libc.a(bsearch.o)
 .debug_info    0x000000000001dbbd      0x61b 0x1 /usr/local/popcorn/x86_64/lib/libc.a(qsort.o)
 .debug_info    0x000000000001e1d8       0xbd 0x1 /usr/local/popcorn/x86_64/lib/libc.a(memmove.o)
 .debug_info    0x000000000001e295      0x599 0x1 /usr/local/popcorn/x86_64/lib/libc.a(pthread_attr_get.o)
 .debug_info    0x000000000001e82e      0x431 0x1 /usr/local/popcorn/x86_64/lib/libc.a(pthread_getattr_np.o)
 .debug_info    0x000000000001ec5f      0x3d3 0x1 /usr/local/popcorn/x86_64/lib/libc.a(pthread_getspecific.o)
 .debug_info    0x000000000001f032      0x590 0x1 /usr/local/popcorn/x86_64/lib/libc.a(pthread_key_create.o)
 .debug_info    0x000000000001f5c2      0x3b1 0x1 /usr/local/popcorn/x86_64/lib/libc.a(pthread_migrate.o)
 .debug_info    0x000000000001f973      0x3ac 0x1 /usr/local/popcorn/x86_64/lib/libc.a(pthread_self.o)
 .debug_info    0x000000000001fd1f      0x3e6 0x1 /usr/local/popcorn/x86_64/lib/libc.a(pthread_setspecific.o)
 .debug_info    0x0000000000020105       0xf5 0x1 /usr/local/popcorn/x86_64/lib/libc.a(lseek.o)
 .debug_info    0x00000000000201fa       0x5c 0x1 /usr/local/popcorn/x86_64/lib/libc.a(abort.o)
 .debug_info    0x0000000000020256      0x168 0x1 /usr/local/popcorn/x86_64/lib/libc.a(raise.o)
 .debug_info    0x00000000000203be      0x4d7 0x1 /usr/local/popcorn/x86_64/lib/libc.a(__fdopen.o)
 .debug_info    0x0000000000020895       0x7b 0x1 /usr/local/popcorn/x86_64/lib/libc.a(__fmodeflags.o)
 .debug_info    0x0000000000020910      0x3e4 0x1 /usr/local/popcorn/x86_64/lib/libc.a(__stdio_read.o)
 .debug_info    0x0000000000020cf4      0x3c9 0x1 /usr/local/popcorn/x86_64/lib/libc.a(getdelim.o)
 .debug_info    0x00000000000210bd      0x315 0x1 /usr/local/popcorn/x86_64/lib/libc.a(ofl_add.o)

.debug_ranges   0x0000000000000000     0x4df0
 .debug_ranges  0x0000000000000000      0x120 0x1 tiny_x86_64.o
 .debug_ranges  0x0000000000000120        0x0 0x1 /usr/local/popcorn/x86_64/lib/crt1.o
 .debug_ranges  0x0000000000000120        0x0 0x1 /usr/local/popcorn/x86_64/lib/libc.a(closedir.o)
 .debug_ranges  0x0000000000000120        0x0 0x1 /usr/local/popcorn/x86_64/lib/libc.a(fdopendir.o)
 .debug_ranges  0x0000000000000120       0x40 0x1 /usr/local/popcorn/x86_64/lib/libc.a(readdir.o)
 .debug_ranges  0x0000000000000160       0x60 0x1 /usr/local/popcorn/x86_64/lib/libc.a(__libc_start_main.o)
 .debug_ranges  0x00000000000001c0        0x0 0x1 /usr/local/popcorn/x86_64/lib/libc.a(__errno_location.o)
 .debug_ranges  0x00000000000001c0       0x40 0x1 /usr/local/popcorn/x86_64/lib/libc.a(exit.o)
 .debug_ranges  0x0000000000000200       0x70 0x1 /usr/local/popcorn/x86_64/lib/libc.a(fcntl.o)
 .debug_ranges  0x0000000000000270        0x0 0x1 /usr/local/popcorn/x86_64/lib/libc.a(open.o)
 .debug_ranges  0x0000000000000270        0x0 0x1 /usr/local/popcorn/x86_64/lib/libc.a(openat.o)
 .debug_ranges  0x0000000000000270        0x0 0x1 /usr/local/popcorn/x86_64/lib/libc.a(libc.o)
 .debug_ranges  0x0000000000000270        0x0 0x1 /usr/local/popcorn/x86_64/lib/libc.a(syscall_ret.o)
 .debug_ranges  0x0000000000000270        0x0 0x1 /usr/local/popcorn/x86_64/lib/libc.a(sendfile.o)
 .debug_ranges  0x0000000000000270       0x30 0x1 /usr/local/popcorn/x86_64/lib/libc.a(calloc.o)
 .debug_ranges  0x00000000000002a0       0x40 0x1 /usr/local/popcorn/x86_64/lib/libc.a(lite_malloc.o)
 .debug_ranges  0x00000000000002e0      0xc40 0x1 /usr/local/popcorn/x86_64/lib/libc.a(malloc.o)
 .debug_ranges  0x0000000000000f20      0xff0 0x1 /usr/local/popcorn/x86_64/lib/libc.a(popcorn_malloc.o)
 .debug_ranges  0x0000000000001f10        0x0 0x1 /usr/local/popcorn/x86_64/lib/libc.a(madvise.o)
 .debug_ranges  0x0000000000001f10       0x30 0x1 /usr/local/popcorn/x86_64/lib/libc.a(mmap.o)
 .debug_ranges  0x0000000000001f40       0x30 0x1 /usr/local/popcorn/x86_64/lib/libc.a(mremap.o)
 .debug_ranges  0x0000000000001f70       0x30 0x1 /usr/local/popcorn/x86_64/lib/libc.a(munmap.o)
 .debug_ranges  0x0000000000001fa0        0x0 0x1 /usr/local/popcorn/x86_64/lib/libc.a(accept.o)
 .debug_ranges  0x0000000000001fa0        0x0 0x1 /usr/local/popcorn/x86_64/lib/libc.a(bind.o)
 .debug_ranges  0x0000000000001fa0        0x0 0x1 /usr/local/popcorn/x86_64/lib/libc.a(htonl.o)
 .debug_ranges  0x0000000000001fa0        0x0 0x1 /usr/local/popcorn/x86_64/lib/libc.a(htons.o)
 .debug_ranges  0x0000000000001fa0        0x0 0x1 /usr/local/popcorn/x86_64/lib/libc.a(inet_ntoa.o)
 .debug_ranges  0x0000000000001fa0        0x0 0x1 /usr/local/popcorn/x86_64/lib/libc.a(listen.o)
 .debug_ranges  0x0000000000001fa0        0x0 0x1 /usr/local/popcorn/x86_64/lib/libc.a(ntohs.o)
 .debug_ranges  0x0000000000001fa0        0x0 0x1 /usr/local/popcorn/x86_64/lib/libc.a(setsockopt.o)
 .debug_ranges  0x0000000000001fa0        0x0 0x1 /usr/local/popcorn/x86_64/lib/libc.a(socket.o)
 .debug_ranges  0x0000000000001fa0       0x30 0x1 /usr/local/popcorn/x86_64/lib/libc.a(fork.o)
 .debug_ranges  0x0000000000001fd0       0x40 0x1 /usr/local/popcorn/x86_64/lib/libc.a(block.o)
 .debug_ranges  0x0000000000002010        0x0 0x1 /usr/local/popcorn/x86_64/lib/libc.a(signal.o)
 .debug_ranges  0x0000000000002010        0x0 0x1 /usr/local/popcorn/x86_64/lib/libc.a(fstat.o)
 .debug_ranges  0x0000000000002010        0x0 0x1 /usr/local/popcorn/x86_64/lib/libc.a(perror.o)
 .debug_ranges  0x0000000000002010        0x0 0x1 /usr/local/popcorn/x86_64/lib/libc.a(printf.o)
 .debug_ranges  0x0000000000002010        0x0 0x1 /usr/local/popcorn/x86_64/lib/libc.a(snprintf.o)
 .debug_ranges  0x0000000000002010        0x0 0x1 /usr/local/popcorn/x86_64/lib/libc.a(sprintf.o)
 .debug_ranges  0x0000000000002010        0x0 0x1 /usr/local/popcorn/x86_64/lib/libc.a(sscanf.o)
 .debug_ranges  0x0000000000002010        0x0 0x1 /usr/local/popcorn/x86_64/lib/libc.a(stderr.o)
 .debug_ranges  0x0000000000002010        0x0 0x1 /usr/local/popcorn/x86_64/lib/libc.a(stdout.o)
 .debug_ranges  0x0000000000002010      0xb90 0x1 /usr/local/popcorn/x86_64/lib/libc.a(vfprintf.o)
 .debug_ranges  0x0000000000002ba0       0x30 0x1 /usr/local/popcorn/x86_64/lib/libc.a(vsnprintf.o)
 .debug_ranges  0x0000000000002bd0        0x0 0x1 /usr/local/popcorn/x86_64/lib/libc.a(vsprintf.o)
 .debug_ranges  0x0000000000002bd0       0x30 0x1 /usr/local/popcorn/x86_64/lib/libc.a(vsscanf.o)
 .debug_ranges  0x0000000000002c00        0x0 0x1 /usr/local/popcorn/x86_64/lib/libc.a(atoi.o)
 .debug_ranges  0x0000000000002c00       0x80 0x1 /usr/local/popcorn/x86_64/lib/libc.a(strtol.o)
 .debug_ranges  0x0000000000002c80        0x0 0x1 /usr/local/popcorn/x86_64/lib/libc.a(strcmp.o)
 .debug_ranges  0x0000000000002c80        0x0 0x1 /usr/local/popcorn/x86_64/lib/libc.a(strlen.o)
 .debug_ranges  0x0000000000002c80        0x0 0x1 /usr/local/popcorn/x86_64/lib/libc.a(strnlen.o)
 .debug_ranges  0x0000000000002c80        0x0 0x1 /usr/local/popcorn/x86_64/lib/libc.a(strrchr.o)
 .debug_ranges  0x0000000000002c80       0x70 0x1 /usr/local/popcorn/x86_64/lib/libc.a(__lock.o)
 .debug_ranges  0x0000000000002cf0       0x30 0x1 /usr/local/popcorn/x86_64/lib/libc.a(__syscall_cp.o)
 .debug_ranges  0x0000000000002d20       0x30 0x1 /usr/local/popcorn/x86_64/lib/libc.a(__wait.o)
 .debug_ranges  0x0000000000002d50        0x0 0x1 /usr/local/popcorn/x86_64/lib/libc.a(localtime.o)
 .debug_ranges  0x0000000000002d50        0x0 0x1 /usr/local/popcorn/x86_64/lib/libc.a(localtime_r.o)
 .debug_ranges  0x0000000000002d50       0x50 0x1 /usr/local/popcorn/x86_64/lib/libc.a(strftime.o)
 .debug_ranges  0x0000000000002da0        0x0 0x1 /usr/local/popcorn/x86_64/lib/libc.a(chdir.o)
 .debug_ranges  0x0000000000002da0       0x30 0x1 /usr/local/popcorn/x86_64/lib/libc.a(close.o)
 .debug_ranges  0x0000000000002dd0        0x0 0x1 /usr/local/popcorn/x86_64/lib/libc.a(getcwd.o)
 .debug_ranges  0x0000000000002dd0        0x0 0x1 /usr/local/popcorn/x86_64/lib/libc.a(getpid.o)
 .debug_ranges  0x0000000000002dd0        0x0 0x1 /usr/local/popcorn/x86_64/lib/libc.a(read.o)
 .debug_ranges  0x0000000000002dd0        0x0 0x1 /usr/local/popcorn/x86_64/lib/libc.a(write.o)
 .debug_ranges  0x0000000000002dd0        0x0 0x1 /usr/local/popcorn/x86_64/lib/libc.a(__environ.o)
 .debug_ranges  0x0000000000002dd0       0x40 0x1 /usr/local/popcorn/x86_64/lib/libc.a(__init_tls.o)
 .debug_ranges  0x0000000000002e10       0x30 0x1 /usr/local/popcorn/x86_64/lib/libc.a(strerror.o)
 .debug_ranges  0x0000000000002e40        0x0 0x1 /usr/local/popcorn/x86_64/lib/libc.a(_Exit.o)
 .debug_ranges  0x0000000000002e40        0x0 0x1 /usr/local/popcorn/x86_64/lib/libc.a(intscan.o)
 .debug_ranges  0x0000000000002e40        0x0 0x1 /usr/local/popcorn/x86_64/lib/libc.a(procfdname.o)
 .debug_ranges  0x0000000000002e40       0x30 0x1 /usr/local/popcorn/x86_64/lib/libc.a(shgetc.o)
 .debug_ranges  0x0000000000002e70       0x40 0x1 /usr/local/popcorn/x86_64/lib/libc.a(__lctrans.o)
 .debug_ranges  0x0000000000002eb0       0x30 0x1 /usr/local/popcorn/x86_64/lib/libc.a(langinfo.o)
 .debug_ranges  0x0000000000002ee0       0xc0 0x1 /usr/local/popcorn/x86_64/lib/libc.a(expand_heap.o)
 .debug_ranges  0x0000000000002fa0        0x0 0x1 /usr/local/popcorn/x86_64/lib/libc.a(__fpclassifyl.o)
 .debug_ranges  0x0000000000002fa0        0x0 0x1 /usr/local/popcorn/x86_64/lib/libc.a(__signbitl.o)
 .debug_ranges  0x0000000000002fa0        0x0 0x1 /usr/local/popcorn/x86_64/lib/libc.a(frexpl.o)
 .debug_ranges  0x0000000000002fa0        0x0 0x1 /usr/local/popcorn/x86_64/lib/libc.a(wctomb.o)
 .debug_ranges  0x0000000000002fa0       0x40 0x1 /usr/local/popcorn/x86_64/lib/libc.a(sigaction.o)
 .debug_ranges  0x0000000000002fe0       0x60 0x1 /usr/local/popcorn/x86_64/lib/libc.a(__lockfile.o)
 .debug_ranges  0x0000000000003040       0x30 0x1 /usr/local/popcorn/x86_64/lib/libc.a(__stdio_close.o)
 .debug_ranges  0x0000000000003070        0x0 0x1 /usr/local/popcorn/x86_64/lib/libc.a(__stdio_seek.o)
 .debug_ranges  0x0000000000003070       0x30 0x1 /usr/local/popcorn/x86_64/lib/libc.a(__stdio_write.o)
 .debug_ranges  0x00000000000030a0        0x0 0x1 /usr/local/popcorn/x86_64/lib/libc.a(__stdout_write.o)
 .debug_ranges  0x00000000000030a0        0x0 0x1 /usr/local/popcorn/x86_64/lib/libc.a(__string_read.o)
 .debug_ranges  0x00000000000030a0        0x0 0x1 /usr/local/popcorn/x86_64/lib/libc.a(__uflow.o)
 .debug_ranges  0x00000000000030a0        0x0 0x1 /usr/local/popcorn/x86_64/lib/libc.a(fputc.o)
 .debug_ranges  0x00000000000030a0       0x30 0x1 /usr/local/popcorn/x86_64/lib/libc.a(fwrite.o)
 .debug_ranges  0x00000000000030d0       0x90 0x1 /usr/local/popcorn/x86_64/lib/libc.a(vfscanf.o)
 .debug_ranges  0x0000000000003160        0x0 0x1 /usr/local/popcorn/x86_64/lib/libc.a(abs.o)
 .debug_ranges  0x0000000000003160        0x0 0x1 /usr/local/popcorn/x86_64/lib/libc.a(memchr.o)
 .debug_ranges  0x0000000000003160        0x0 0x1 /usr/local/popcorn/x86_64/lib/libc.a(memrchr.o)
 .debug_ranges  0x0000000000003160        0x0 0x1 /usr/local/popcorn/x86_64/lib/libc.a(strdup.o)
 .debug_ranges  0x0000000000003160        0x0 0x1 /usr/local/popcorn/x86_64/lib/libc.a(__secs_to_tm.o)
 .debug_ranges  0x0000000000003160        0x0 0x1 /usr/local/popcorn/x86_64/lib/libc.a(__tm_to_secs.o)
 .debug_ranges  0x0000000000003160      0x300 0x1 /usr/local/popcorn/x86_64/lib/libc.a(__tz.o)
 .debug_ranges  0x0000000000003460       0x30 0x1 /usr/local/popcorn/x86_64/lib/libc.a(__year_to_secs.o)
 .debug_ranges  0x0000000000003490        0x0 0x1 /usr/local/popcorn/x86_64/lib/libc.a(getenv.o)
 .debug_ranges  0x0000000000003490      0x540 0x1 /usr/local/popcorn/x86_64/lib/libc.a(floatscan.o)
 .debug_ranges  0x00000000000039d0        0x0 0x1 /usr/local/popcorn/x86_64/lib/libc.a(copysignl.o)
 .debug_ranges  0x00000000000039d0        0x0 0x1 /usr/local/popcorn/x86_64/lib/libc.a(scalbn.o)
 .debug_ranges  0x00000000000039d0        0x0 0x1 /usr/local/popcorn/x86_64/lib/libc.a(scalbnl.o)
 .debug_ranges  0x00000000000039d0        0x0 0x1 /usr/local/popcorn/x86_64/lib/libc.a(mbrtowc.o)
 .debug_ranges  0x00000000000039d0        0x0 0x1 /usr/local/popcorn/x86_64/lib/libc.a(mbsinit.o)
 .debug_ranges  0x00000000000039d0        0x0 0x1 /usr/local/popcorn/x86_64/lib/libc.a(wcrtomb.o)
 .debug_ranges  0x00000000000039d0        0x0 0x1 /usr/local/popcorn/x86_64/lib/libc.a(__overflow.o)
 .debug_ranges  0x00000000000039d0       0x30 0x1 /usr/local/popcorn/x86_64/lib/libc.a(__toread.o)
 .debug_ranges  0x0000000000003a00       0x30 0x1 /usr/local/popcorn/x86_64/lib/libc.a(__towrite.o)
 .debug_ranges  0x0000000000003a30        0x0 0x1 /usr/local/popcorn/x86_64/lib/libc.a(memcmp.o)
 .debug_ranges  0x0000000000003a30        0x0 0x1 /usr/local/popcorn/x86_64/lib/libc.a(strchr.o)
 .debug_ranges  0x0000000000003a30        0x0 0x1 /usr/local/popcorn/x86_64/lib/libc.a(strchrnul.o)
 .debug_ranges  0x0000000000003a30        0x0 0x1 /usr/local/popcorn/x86_64/lib/libc.a(strncmp.o)
 .debug_ranges  0x0000000000003a30        0x0 0x1 /usr/local/popcorn/x86_64/lib/libc.a(__map_file.o)
 .debug_ranges  0x0000000000003a30        0x0 0x1 /usr/local/popcorn/x86_64/lib/libc.a(__month_to_secs.o)
 .debug_ranges  0x0000000000003a30        0x0 0x1 /usr/local/popcorn/x86_64/lib/libc.a(internal.o)
 .debug_ranges  0x0000000000003a30       0x30 0x1 /usr/local/popcorn/x86_64/lib/libc.a(__stdio_exit.o)
 .debug_ranges  0x0000000000003a60       0x30 0x1 /usr/local/popcorn/x86_64/lib/libc.a(ofl.o)
 .debug_ranges  0x0000000000003a90       0xd0 0x1 /usr/local/popcorn/x86_64/lib/libmigrate.a(migrate.o)
 .debug_ranges  0x0000000000003b60       0x70 0x1 /usr/local/popcorn/x86_64/lib/libmigrate.a(mapping.o)
 .debug_ranges  0x0000000000003bd0       0x80 0x1 /usr/local/popcorn/x86_64/lib/libstack-transform.a(userspace.o)
 .debug_ranges  0x0000000000003c50       0x50 0x1 /usr/local/popcorn/x86_64/lib/libstack-transform.a(init.o)
 .debug_ranges  0x0000000000003ca0      0x270 0x1 /usr/local/popcorn/x86_64/lib/libstack-transform.a(rewrite.o)
 .debug_ranges  0x0000000000003f10      0x190 0x1 /usr/local/popcorn/x86_64/lib/libstack-transform.a(unwind.o)
 .debug_ranges  0x00000000000040a0      0x100 0x1 /usr/local/popcorn/x86_64/lib/libstack-transform.a(util.o)
 .debug_ranges  0x00000000000041a0       0x40 0x1 /usr/local/popcorn/x86_64/lib/libstack-transform.a(properties.o)
 .debug_ranges  0x00000000000041e0      0x120 0x1 /usr/local/popcorn/x86_64/lib/libstack-transform.a(regs.o)
 .debug_ranges  0x0000000000004300       0x40 0x1 /usr/local/popcorn/x86_64/lib/libstack-transform.a(properties.o)
 .debug_ranges  0x0000000000004340      0x120 0x1 /usr/local/popcorn/x86_64/lib/libstack-transform.a(regs.o)
 .debug_ranges  0x0000000000004460       0x40 0x1 /usr/local/popcorn/x86_64/lib/libstack-transform.a(properties.o)
 .debug_ranges  0x00000000000044a0      0x120 0x1 /usr/local/popcorn/x86_64/lib/libstack-transform.a(regs.o)
 .debug_ranges  0x00000000000045c0      0x400 0x1 /usr/local/popcorn/x86_64/lib/libstack-transform.a(data.o)
 .debug_ranges  0x00000000000049c0       0x50 0x1 /usr/local/popcorn/x86_64/lib/libc.a(arch_crash.o)
 .debug_ranges  0x0000000000004a10        0x0 0x1 /usr/local/popcorn/x86_64/lib/libc.a(assert.o)
 .debug_ranges  0x0000000000004a10        0x0 0x1 /usr/local/popcorn/x86_64/lib/libc.a(getrlimit.o)
 .debug_ranges  0x0000000000004a10        0x0 0x1 /usr/local/popcorn/x86_64/lib/libc.a(syscall.o)
 .debug_ranges  0x0000000000004a10       0x30 0x1 /usr/local/popcorn/x86_64/lib/libc.a(fclose.o)
 .debug_ranges  0x0000000000004a40        0x0 0x1 /usr/local/popcorn/x86_64/lib/libc.a(fflush.o)
 .debug_ranges  0x0000000000004a40        0x0 0x1 /usr/local/popcorn/x86_64/lib/libc.a(fopen.o)
 .debug_ranges  0x0000000000004a40        0x0 0x1 /usr/local/popcorn/x86_64/lib/libc.a(fprintf.o)
 .debug_ranges  0x0000000000004a40        0x0 0x1 /usr/local/popcorn/x86_64/lib/libc.a(fscanf.o)
 .debug_ranges  0x0000000000004a40       0x40 0x1 /usr/local/popcorn/x86_64/lib/libc.a(fseek.o)
 .debug_ranges  0x0000000000004a80        0x0 0x1 /usr/local/popcorn/x86_64/lib/libc.a(getc.o)
 .debug_ranges  0x0000000000004a80        0x0 0x1 /usr/local/popcorn/x86_64/lib/libc.a(getline.o)
 .debug_ranges  0x0000000000004a80        0x0 0x1 /usr/local/popcorn/x86_64/lib/libc.a(bsearch.o)
 .debug_ranges  0x0000000000004a80      0x1e0 0x1 /usr/local/popcorn/x86_64/lib/libc.a(qsort.o)
 .debug_ranges  0x0000000000004c60      0x110 0x1 /usr/local/popcorn/x86_64/lib/libc.a(pthread_attr_get.o)
 .debug_ranges  0x0000000000004d70        0x0 0x1 /usr/local/popcorn/x86_64/lib/libc.a(pthread_getattr_np.o)
 .debug_ranges  0x0000000000004d70        0x0 0x1 /usr/local/popcorn/x86_64/lib/libc.a(pthread_getspecific.o)
 .debug_ranges  0x0000000000004d70       0x80 0x1 /usr/local/popcorn/x86_64/lib/libc.a(pthread_key_create.o)
 .debug_ranges  0x0000000000004df0        0x0 0x1 /usr/local/popcorn/x86_64/lib/libc.a(pthread_migrate.o)
 .debug_ranges  0x0000000000004df0        0x0 0x1 /usr/local/popcorn/x86_64/lib/libc.a(pthread_self.o)
 .debug_ranges  0x0000000000004df0        0x0 0x1 /usr/local/popcorn/x86_64/lib/libc.a(pthread_setspecific.o)
 .debug_ranges  0x0000000000004df0        0x0 0x1 /usr/local/popcorn/x86_64/lib/libc.a(lseek.o)
 .debug_ranges  0x0000000000004df0        0x0 0x1 /usr/local/popcorn/x86_64/lib/libc.a(abort.o)
 .debug_ranges  0x0000000000004df0        0x0 0x1 /usr/local/popcorn/x86_64/lib/libc.a(raise.o)
 .debug_ranges  0x0000000000004df0        0x0 0x1 /usr/local/popcorn/x86_64/lib/libc.a(__fdopen.o)
 .debug_ranges  0x0000000000004df0        0x0 0x1 /usr/local/popcorn/x86_64/lib/libc.a(__fmodeflags.o)
 .debug_ranges  0x0000000000004df0        0x0 0x1 /usr/local/popcorn/x86_64/lib/libc.a(__stdio_read.o)
 .debug_ranges  0x0000000000004df0        0x0 0x1 /usr/local/popcorn/x86_64/lib/libc.a(getdelim.o)
 .debug_ranges  0x0000000000004df0        0x0 0x1 /usr/local/popcorn/x86_64/lib/libc.a(ofl_add.o)

.debug_pubnames
                0x0000000000000000     0x3478
 .debug_pubnames
                0x0000000000000000      0x151 0x1 tiny_x86_64.o
 .debug_pubnames
                0x0000000000000151       0x1f 0x1 /usr/local/popcorn/x86_64/lib/crt1.o
 .debug_pubnames
                0x0000000000000170       0x1f 0x1 /usr/local/popcorn/x86_64/lib/libc.a(closedir.o)
 .debug_pubnames
                0x000000000000018f       0x20 0x1 /usr/local/popcorn/x86_64/lib/libc.a(fdopendir.o)
 .debug_pubnames
                0x00000000000001af       0x2d 0x1 /usr/local/popcorn/x86_64/lib/libc.a(readdir.o)
 .debug_pubnames
                0x00000000000001dc       0xa4 0x1 /usr/local/popcorn/x86_64/lib/libc.a(__libc_start_main.o)
 .debug_pubnames
                0x0000000000000280       0x3a 0x1 /usr/local/popcorn/x86_64/lib/libc.a(__errno_location.o)
 .debug_pubnames
                0x00000000000002ba       0x38 0x1 /usr/local/popcorn/x86_64/lib/libc.a(exit.o)
 .debug_pubnames
                0x00000000000002f2       0x3a 0x1 /usr/local/popcorn/x86_64/lib/libc.a(fcntl.o)
 .debug_pubnames
                0x000000000000032c       0x2a 0x1 /usr/local/popcorn/x86_64/lib/libc.a(open.o)
 .debug_pubnames
                0x0000000000000356       0x1d 0x1 /usr/local/popcorn/x86_64/lib/libc.a(openat.o)
 .debug_pubnames
                0x0000000000000373       0x5a 0x1 /usr/local/popcorn/x86_64/lib/libc.a(libc.o)
 .debug_pubnames
                0x00000000000003cd       0x24 0x1 /usr/local/popcorn/x86_64/lib/libc.a(syscall_ret.o)
 .debug_pubnames
                0x00000000000003f1       0x2e 0x1 /usr/local/popcorn/x86_64/lib/libc.a(sendfile.o)
 .debug_pubnames
                0x000000000000041f       0x30 0x1 /usr/local/popcorn/x86_64/lib/libc.a(calloc.o)
 .debug_pubnames
                0x000000000000044f       0x3f 0x1 /usr/local/popcorn/x86_64/lib/libc.a(lite_malloc.o)
 .debug_pubnames
                0x000000000000048e      0x185 0x1 /usr/local/popcorn/x86_64/lib/libc.a(malloc.o)
 .debug_pubnames
                0x0000000000000613      0x1a5 0x1 /usr/local/popcorn/x86_64/lib/libc.a(popcorn_malloc.o)
 .debug_pubnames
                0x00000000000007b8       0x2f 0x1 /usr/local/popcorn/x86_64/lib/libc.a(madvise.o)
 .debug_pubnames
                0x00000000000007e7       0x36 0x1 /usr/local/popcorn/x86_64/lib/libc.a(mmap.o)
 .debug_pubnames
                0x000000000000081d       0x38 0x1 /usr/local/popcorn/x86_64/lib/libc.a(mremap.o)
 .debug_pubnames
                0x0000000000000855       0x38 0x1 /usr/local/popcorn/x86_64/lib/libc.a(munmap.o)
 .debug_pubnames
                0x000000000000088d       0x1d 0x1 /usr/local/popcorn/x86_64/lib/libc.a(accept.o)
 .debug_pubnames
                0x00000000000008aa       0x2a 0x1 /usr/local/popcorn/x86_64/lib/libc.a(bind.o)
 .debug_pubnames
                0x00000000000008d4       0x2b 0x1 /usr/local/popcorn/x86_64/lib/libc.a(htonl.o)
 .debug_pubnames
                0x00000000000008ff       0x2b 0x1 /usr/local/popcorn/x86_64/lib/libc.a(htons.o)
 .debug_pubnames
                0x000000000000092a       0x28 0x1 /usr/local/popcorn/x86_64/lib/libc.a(inet_ntoa.o)
 .debug_pubnames
                0x0000000000000952       0x2c 0x1 /usr/local/popcorn/x86_64/lib/libc.a(listen.o)
 .debug_pubnames
                0x000000000000097e       0x2b 0x1 /usr/local/popcorn/x86_64/lib/libc.a(ntohs.o)
 .debug_pubnames
                0x00000000000009a9       0x30 0x1 /usr/local/popcorn/x86_64/lib/libc.a(setsockopt.o)
 .debug_pubnames
                0x00000000000009d9       0x3b 0x1 /usr/local/popcorn/x86_64/lib/libc.a(socket.o)
 .debug_pubnames
                0x0000000000000a14       0x47 0x1 /usr/local/popcorn/x86_64/lib/libc.a(fork.o)
 .debug_pubnames
                0x0000000000000a5b       0x78 0x1 /usr/local/popcorn/x86_64/lib/libc.a(block.o)
 .debug_pubnames
                0x0000000000000ad3       0x1d 0x1 /usr/local/popcorn/x86_64/lib/libc.a(signal.o)
 .debug_pubnames
                0x0000000000000af0       0x2b 0x1 /usr/local/popcorn/x86_64/lib/libc.a(fstat.o)
 .debug_pubnames
                0x0000000000000b1b       0x1d 0x1 /usr/local/popcorn/x86_64/lib/libc.a(perror.o)
 .debug_pubnames
                0x0000000000000b38       0x1d 0x1 /usr/local/popcorn/x86_64/lib/libc.a(printf.o)
 .debug_pubnames
                0x0000000000000b55       0x1f 0x1 /usr/local/popcorn/x86_64/lib/libc.a(snprintf.o)
 .debug_pubnames
                0x0000000000000b74       0x1e 0x1 /usr/local/popcorn/x86_64/lib/libc.a(sprintf.o)
 .debug_pubnames
                0x0000000000000b92       0x1d 0x1 /usr/local/popcorn/x86_64/lib/libc.a(sscanf.o)
 .debug_pubnames
                0x0000000000000baf       0x3d 0x1 /usr/local/popcorn/x86_64/lib/libc.a(stderr.o)
 .debug_pubnames
                0x0000000000000bec       0x3d 0x1 /usr/local/popcorn/x86_64/lib/libc.a(stdout.o)
 .debug_pubnames
                0x0000000000000c29       0xb9 0x1 /usr/local/popcorn/x86_64/lib/libc.a(vfprintf.o)
 .debug_pubnames
                0x0000000000000ce2       0x2d 0x1 /usr/local/popcorn/x86_64/lib/libc.a(vsnprintf.o)
 .debug_pubnames
                0x0000000000000d0f       0x1f 0x1 /usr/local/popcorn/x86_64/lib/libc.a(vsprintf.o)
 .debug_pubnames
                0x0000000000000d2e       0x2a 0x1 /usr/local/popcorn/x86_64/lib/libc.a(vsscanf.o)
 .debug_pubnames
                0x0000000000000d58       0x29 0x1 /usr/local/popcorn/x86_64/lib/libc.a(atoi.o)
 .debug_pubnames
                0x0000000000000d81       0x69 0x1 /usr/local/popcorn/x86_64/lib/libc.a(strtol.o)
 .debug_pubnames
                0x0000000000000dea       0x1d 0x1 /usr/local/popcorn/x86_64/lib/libc.a(strcmp.o)
 .debug_pubnames
                0x0000000000000e07       0x1d 0x1 /usr/local/popcorn/x86_64/lib/libc.a(strlen.o)
 .debug_pubnames
                0x0000000000000e24       0x1e 0x1 /usr/local/popcorn/x86_64/lib/libc.a(strnlen.o)
 .debug_pubnames
                0x0000000000000e42       0x1e 0x1 /usr/local/popcorn/x86_64/lib/libc.a(strrchr.o)
 .debug_pubnames
                0x0000000000000e60       0x5b 0x1 /usr/local/popcorn/x86_64/lib/libc.a(__lock.o)
 .debug_pubnames
                0x0000000000000ebb       0x2c 0x1 /usr/local/popcorn/x86_64/lib/libc.a(__syscall_cp.o)
 .debug_pubnames
                0x0000000000000ee7       0x4b 0x1 /usr/local/popcorn/x86_64/lib/libc.a(__wait.o)
 .debug_pubnames
                0x0000000000000f32       0x27 0x1 /usr/local/popcorn/x86_64/lib/libc.a(localtime.o)
 .debug_pubnames
                0x0000000000000f59       0x24 0x1 /usr/local/popcorn/x86_64/lib/libc.a(localtime_r.o)
 .debug_pubnames
                0x0000000000000f7d       0x71 0x1 /usr/local/popcorn/x86_64/lib/libc.a(strftime.o)
 .debug_pubnames
                0x0000000000000fee       0x2b 0x1 /usr/local/popcorn/x86_64/lib/libc.a(chdir.o)
 .debug_pubnames
                0x0000000000001019       0x26 0x1 /usr/local/popcorn/x86_64/lib/libc.a(close.o)
 .debug_pubnames
                0x000000000000103f       0x2c 0x1 /usr/local/popcorn/x86_64/lib/libc.a(getcwd.o)
 .debug_pubnames
                0x000000000000106b       0x2c 0x1 /usr/local/popcorn/x86_64/lib/libc.a(getpid.o)
 .debug_pubnames
                0x0000000000001097       0x1b 0x1 /usr/local/popcorn/x86_64/lib/libc.a(read.o)
 .debug_pubnames
                0x00000000000010b2       0x1c 0x1 /usr/local/popcorn/x86_64/lib/libc.a(write.o)
 .debug_pubnames
                0x00000000000010ce       0x20 0x1 /usr/local/popcorn/x86_64/lib/libc.a(__environ.o)
 .debug_pubnames
                0x00000000000010ee       0x8a 0x1 /usr/local/popcorn/x86_64/lib/libc.a(__init_tls.o)
 .debug_pubnames
                0x0000000000001178       0x58 0x1 /usr/local/popcorn/x86_64/lib/libc.a(strerror.o)
 .debug_pubnames
                0x00000000000011d0       0x2b 0x1 /usr/local/popcorn/x86_64/lib/libc.a(_Exit.o)
 .debug_pubnames
                0x00000000000011fb       0x38 0x1 /usr/local/popcorn/x86_64/lib/libc.a(intscan.o)
 .debug_pubnames
                0x0000000000001233       0x23 0x1 /usr/local/popcorn/x86_64/lib/libc.a(procfdname.o)
 .debug_pubnames
                0x0000000000001256       0x2b 0x1 /usr/local/popcorn/x86_64/lib/libc.a(shgetc.o)
 .debug_pubnames
                0x0000000000001281       0x4f 0x1 /usr/local/popcorn/x86_64/lib/libc.a(__lctrans.o)
 .debug_pubnames
                0x00000000000012d0       0x73 0x1 /usr/local/popcorn/x86_64/lib/libc.a(langinfo.o)
 .debug_pubnames
                0x0000000000001343      0x109 0x1 /usr/local/popcorn/x86_64/lib/libc.a(expand_heap.o)
 .debug_pubnames
                0x000000000000144c       0x24 0x1 /usr/local/popcorn/x86_64/lib/libc.a(__fpclassifyl.o)
 .debug_pubnames
                0x0000000000001470       0x21 0x1 /usr/local/popcorn/x86_64/lib/libc.a(__signbitl.o)
 .debug_pubnames
                0x0000000000001491       0x1d 0x1 /usr/local/popcorn/x86_64/lib/libc.a(frexpl.o)
 .debug_pubnames
                0x00000000000014ae       0x1d 0x1 /usr/local/popcorn/x86_64/lib/libc.a(wctomb.o)
 .debug_pubnames
                0x00000000000014cb       0x93 0x1 /usr/local/popcorn/x86_64/lib/libc.a(sigaction.o)
 .debug_pubnames
                0x000000000000155e       0x75 0x1 /usr/local/popcorn/x86_64/lib/libc.a(__lockfile.o)
 .debug_pubnames
                0x00000000000015d3       0x3d 0x1 /usr/local/popcorn/x86_64/lib/libc.a(__stdio_close.o)
 .debug_pubnames
                0x0000000000001610       0x32 0x1 /usr/local/popcorn/x86_64/lib/libc.a(__stdio_seek.o)
 .debug_pubnames
                0x0000000000001642       0x33 0x1 /usr/local/popcorn/x86_64/lib/libc.a(__stdio_write.o)
 .debug_pubnames
                0x0000000000001675       0x34 0x1 /usr/local/popcorn/x86_64/lib/libc.a(__stdout_write.o)
 .debug_pubnames
                0x00000000000016a9       0x24 0x1 /usr/local/popcorn/x86_64/lib/libc.a(__string_read.o)
 .debug_pubnames
                0x00000000000016cd       0x1e 0x1 /usr/local/popcorn/x86_64/lib/libc.a(__uflow.o)
 .debug_pubnames
                0x00000000000016eb       0x1c 0x1 /usr/local/popcorn/x86_64/lib/libc.a(fputc.o)
 .debug_pubnames
                0x0000000000001707       0x2b 0x1 /usr/local/popcorn/x86_64/lib/libc.a(fwrite.o)
 .debug_pubnames
                0x0000000000001732       0x44 0x1 /usr/local/popcorn/x86_64/lib/libc.a(vfscanf.o)
 .debug_pubnames
                0x0000000000001776       0x1a 0x1 /usr/local/popcorn/x86_64/lib/libc.a(abs.o)
 .debug_pubnames
                0x0000000000001790       0x1d 0x1 /usr/local/popcorn/x86_64/lib/libc.a(memchr.o)
 .debug_pubnames
                0x00000000000017ad       0x20 0x1 /usr/local/popcorn/x86_64/lib/libc.a(memrchr.o)
 .debug_pubnames
                0x00000000000017cd       0x1f 0x1 /usr/local/popcorn/x86_64/lib/libc.a(strdup.o)
 .debug_pubnames
                0x00000000000017ec       0x35 0x1 /usr/local/popcorn/x86_64/lib/libc.a(__secs_to_tm.o)
 .debug_pubnames
                0x0000000000001821       0x23 0x1 /usr/local/popcorn/x86_64/lib/libc.a(__tm_to_secs.o)
 .debug_pubnames
                0x0000000000001844      0x1c3 0x1 /usr/local/popcorn/x86_64/lib/libc.a(__tz.o)
 .debug_pubnames
                0x0000000000001a07       0x25 0x1 /usr/local/popcorn/x86_64/lib/libc.a(__year_to_secs.o)
 .debug_pubnames
                0x0000000000001a2c       0x1d 0x1 /usr/local/popcorn/x86_64/lib/libc.a(getenv.o)
 .debug_pubnames
                0x0000000000001a49       0x66 0x1 /usr/local/popcorn/x86_64/lib/libc.a(floatscan.o)
 .debug_pubnames
                0x0000000000001aaf       0x20 0x1 /usr/local/popcorn/x86_64/lib/libc.a(copysignl.o)
 .debug_pubnames
                0x0000000000001acf       0x1d 0x1 /usr/local/popcorn/x86_64/lib/libc.a(scalbn.o)
 .debug_pubnames
                0x0000000000001aec       0x1e 0x1 /usr/local/popcorn/x86_64/lib/libc.a(scalbnl.o)
 .debug_pubnames
                0x0000000000001b0a       0x44 0x1 /usr/local/popcorn/x86_64/lib/libc.a(mbrtowc.o)
 .debug_pubnames
                0x0000000000001b4e       0x1e 0x1 /usr/local/popcorn/x86_64/lib/libc.a(mbsinit.o)
 .debug_pubnames
                0x0000000000001b6c       0x31 0x1 /usr/local/popcorn/x86_64/lib/libc.a(wcrtomb.o)
 .debug_pubnames
                0x0000000000001b9d       0x21 0x1 /usr/local/popcorn/x86_64/lib/libc.a(__overflow.o)
 .debug_pubnames
                0x0000000000001bbe       0x3d 0x1 /usr/local/popcorn/x86_64/lib/libc.a(__toread.o)
 .debug_pubnames
                0x0000000000001bfb       0x3f 0x1 /usr/local/popcorn/x86_64/lib/libc.a(__towrite.o)
 .debug_pubnames
                0x0000000000001c3a       0x1d 0x1 /usr/local/popcorn/x86_64/lib/libc.a(memcmp.o)
 .debug_pubnames
                0x0000000000001c57       0x1d 0x1 /usr/local/popcorn/x86_64/lib/libc.a(strchr.o)
 .debug_pubnames
                0x0000000000001c74       0x22 0x1 /usr/local/popcorn/x86_64/lib/libc.a(strchrnul.o)
 .debug_pubnames
                0x0000000000001c96       0x1e 0x1 /usr/local/popcorn/x86_64/lib/libc.a(strncmp.o)
 .debug_pubnames
                0x0000000000001cb4       0x3f 0x1 /usr/local/popcorn/x86_64/lib/libc.a(__map_file.o)
 .debug_pubnames
                0x0000000000001cf3       0x3d 0x1 /usr/local/popcorn/x86_64/lib/libc.a(__month_to_secs.o)
 .debug_pubnames
                0x0000000000001d30       0x1e 0x1 /usr/local/popcorn/x86_64/lib/libc.a(internal.o)
 .debug_pubnames
                0x0000000000001d4e       0x41 0x1 /usr/local/popcorn/x86_64/lib/libc.a(__stdio_exit.o)
 .debug_pubnames
                0x0000000000001d8f       0x4c 0x1 /usr/local/popcorn/x86_64/lib/libc.a(ofl.o)
 .debug_pubnames
                0x0000000000001ddb       0xed 0x1 /usr/local/popcorn/x86_64/lib/libmigrate.a(migrate.o)
 .debug_pubnames
                0x0000000000001ec8       0xb4 0x1 /usr/local/popcorn/x86_64/lib/libmigrate.a(mapping.o)
 .debug_pubnames
                0x0000000000001f7c      0x183 0x1 /usr/local/popcorn/x86_64/lib/libstack-transform.a(userspace.o)
 .debug_pubnames
                0x00000000000020ff       0x49 0x1 /usr/local/popcorn/x86_64/lib/libstack-transform.a(init.o)
 .debug_pubnames
                0x0000000000002148      0x158 0x1 /usr/local/popcorn/x86_64/lib/libstack-transform.a(rewrite.o)
 .debug_pubnames
                0x00000000000022a0      0x129 0x1 /usr/local/popcorn/x86_64/lib/libstack-transform.a(unwind.o)
 .debug_pubnames
                0x00000000000023c9       0xda 0x1 /usr/local/popcorn/x86_64/lib/libstack-transform.a(util.o)
 .debug_pubnames
                0x00000000000024a3       0xad 0x1 /usr/local/popcorn/x86_64/lib/libstack-transform.a(properties.o)
 .debug_pubnames
                0x0000000000002550      0x189 0x1 /usr/local/popcorn/x86_64/lib/libstack-transform.a(regs.o)
 .debug_pubnames
                0x00000000000026d9       0xb9 0x1 /usr/local/popcorn/x86_64/lib/libstack-transform.a(properties.o)
 .debug_pubnames
                0x0000000000002792      0x1ad 0x1 /usr/local/popcorn/x86_64/lib/libstack-transform.a(regs.o)
 .debug_pubnames
                0x000000000000293f       0xa7 0x1 /usr/local/popcorn/x86_64/lib/libstack-transform.a(properties.o)
 .debug_pubnames
                0x00000000000029e6      0x177 0x1 /usr/local/popcorn/x86_64/lib/libstack-transform.a(regs.o)
 .debug_pubnames
                0x0000000000002b5d      0x113 0x1 /usr/local/popcorn/x86_64/lib/libstack-transform.a(data.o)
 .debug_pubnames
                0x0000000000002c70       0x5b 0x1 /usr/local/popcorn/x86_64/lib/libc.a(arch_crash.o)
 .debug_pubnames
                0x0000000000002ccb       0x24 0x1 /usr/local/popcorn/x86_64/lib/libc.a(assert.o)
 .debug_pubnames
                0x0000000000002cef       0x3e 0x1 /usr/local/popcorn/x86_64/lib/libc.a(getrlimit.o)
 .debug_pubnames
                0x0000000000002d2d       0x2d 0x1 /usr/local/popcorn/x86_64/lib/libc.a(syscall.o)
 .debug_pubnames
                0x0000000000002d5a       0x27 0x1 /usr/local/popcorn/x86_64/lib/libc.a(fclose.o)
 .debug_pubnames
                0x0000000000002d81       0x27 0x1 /usr/local/popcorn/x86_64/lib/libc.a(fflush.o)
 .debug_pubnames
                0x0000000000002da8       0x3a 0x1 /usr/local/popcorn/x86_64/lib/libc.a(fopen.o)
 .debug_pubnames
                0x0000000000002de2       0x1e 0x1 /usr/local/popcorn/x86_64/lib/libc.a(fprintf.o)
 .debug_pubnames
                0x0000000000002e00       0x1d 0x1 /usr/local/popcorn/x86_64/lib/libc.a(fscanf.o)
 .debug_pubnames
                0x0000000000002e1d       0x3f 0x1 /usr/local/popcorn/x86_64/lib/libc.a(fseek.o)
 .debug_pubnames
                0x0000000000002e5c       0x1b 0x1 /usr/local/popcorn/x86_64/lib/libc.a(getc.o)
 .debug_pubnames
                0x0000000000002e77       0x1e 0x1 /usr/local/popcorn/x86_64/lib/libc.a(getline.o)
 .debug_pubnames
                0x0000000000002e95       0x1e 0x1 /usr/local/popcorn/x86_64/lib/libc.a(bsearch.o)
 .debug_pubnames
                0x0000000000002eb3       0x7c 0x1 /usr/local/popcorn/x86_64/lib/libc.a(qsort.o)
 .debug_pubnames
                0x0000000000002f2f      0x206 0x1 /usr/local/popcorn/x86_64/lib/libc.a(pthread_attr_get.o)
 .debug_pubnames
                0x0000000000003135       0x29 0x1 /usr/local/popcorn/x86_64/lib/libc.a(pthread_getattr_np.o)
 .debug_pubnames
                0x000000000000315e       0x3f 0x1 /usr/local/popcorn/x86_64/lib/libc.a(pthread_getspecific.o)
 .debug_pubnames
                0x000000000000319d       0xc1 0x1 /usr/local/popcorn/x86_64/lib/libc.a(pthread_key_create.o)
 .debug_pubnames
                0x000000000000325e       0x3e 0x1 /usr/local/popcorn/x86_64/lib/libc.a(pthread_migrate.o)
 .debug_pubnames
                0x000000000000329c       0x41 0x1 /usr/local/popcorn/x86_64/lib/libc.a(pthread_self.o)
 .debug_pubnames
                0x00000000000032dd       0x3d 0x1 /usr/local/popcorn/x86_64/lib/libc.a(pthread_setspecific.o)
 .debug_pubnames
                0x000000000000331a       0x2b 0x1 /usr/local/popcorn/x86_64/lib/libc.a(lseek.o)
 .debug_pubnames
                0x0000000000003345       0x28 0x1 /usr/local/popcorn/x86_64/lib/libc.a(abort.o)
 .debug_pubnames
                0x000000000000336d       0x3a 0x1 /usr/local/popcorn/x86_64/lib/libc.a(raise.o)
 .debug_pubnames
                0x00000000000033a7       0x3d 0x1 /usr/local/popcorn/x86_64/lib/libc.a(__fdopen.o)
 .debug_pubnames
                0x00000000000033e4       0x23 0x1 /usr/local/popcorn/x86_64/lib/libc.a(__fmodeflags.o)
 .debug_pubnames
                0x0000000000003407       0x32 0x1 /usr/local/popcorn/x86_64/lib/libc.a(__stdio_read.o)
 .debug_pubnames
                0x0000000000003439       0x1f 0x1 /usr/local/popcorn/x86_64/lib/libc.a(getdelim.o)
 .debug_pubnames
                0x0000000000003458       0x20 0x1 /usr/local/popcorn/x86_64/lib/libc.a(ofl_add.o)

.debug_pubtypes
                0x0000000000000000     0x6089
 .debug_pubtypes
                0x0000000000000000      0x1ee 0x1 tiny_x86_64.o
 .debug_pubtypes
                0x00000000000001ee       0x30 0x1 /usr/local/popcorn/x86_64/lib/crt1.o
 .debug_pubtypes
                0x000000000000021e       0x52 0x1 /usr/local/popcorn/x86_64/lib/libc.a(closedir.o)
 .debug_pubtypes
                0x0000000000000270       0xf4 0x1 /usr/local/popcorn/x86_64/lib/libc.a(fdopendir.o)
 .debug_pubtypes
                0x0000000000000364       0xa2 0x1 /usr/local/popcorn/x86_64/lib/libc.a(readdir.o)
 .debug_pubtypes
                0x0000000000000406       0x74 0x1 /usr/local/popcorn/x86_64/lib/libc.a(__libc_start_main.o)
 .debug_pubtypes
                0x000000000000047a       0xb5 0x1 /usr/local/popcorn/x86_64/lib/libc.a(__errno_location.o)
 .debug_pubtypes
                0x000000000000052f       0x3e 0x1 /usr/local/popcorn/x86_64/lib/libc.a(exit.o)
 .debug_pubtypes
                0x000000000000056d       0x9b 0x1 /usr/local/popcorn/x86_64/lib/libc.a(fcntl.o)
 .debug_pubtypes
                0x0000000000000608       0x96 0x1 /usr/local/popcorn/x86_64/lib/libc.a(open.o)
 .debug_pubtypes
                0x000000000000069e       0x80 0x1 /usr/local/popcorn/x86_64/lib/libc.a(openat.o)
 .debug_pubtypes
                0x000000000000071e       0x72 0x1 /usr/local/popcorn/x86_64/lib/libc.a(libc.o)
 .debug_pubtypes
                0x0000000000000790       0x35 0x1 /usr/local/popcorn/x86_64/lib/libc.a(syscall_ret.o)
 .debug_pubtypes
                0x00000000000007c5       0x5e 0x1 /usr/local/popcorn/x86_64/lib/libc.a(sendfile.o)
 .debug_pubtypes
                0x0000000000000823       0x3b 0x1 /usr/local/popcorn/x86_64/lib/libc.a(calloc.o)
 .debug_pubtypes
                0x000000000000085e       0x52 0x1 /usr/local/popcorn/x86_64/lib/libc.a(lite_malloc.o)
 .debug_pubtypes
                0x00000000000008b0       0x90 0x1 /usr/local/popcorn/x86_64/lib/libc.a(malloc.o)
 .debug_pubtypes
                0x0000000000000940       0x90 0x1 /usr/local/popcorn/x86_64/lib/libc.a(popcorn_malloc.o)
 .debug_pubtypes
                0x00000000000009d0       0x48 0x1 /usr/local/popcorn/x86_64/lib/libc.a(madvise.o)
 .debug_pubtypes
                0x0000000000000a18       0x52 0x1 /usr/local/popcorn/x86_64/lib/libc.a(mmap.o)
 .debug_pubtypes
                0x0000000000000a6a       0x8d 0x1 /usr/local/popcorn/x86_64/lib/libc.a(mremap.o)
 .debug_pubtypes
                0x0000000000000af7       0x48 0x1 /usr/local/popcorn/x86_64/lib/libc.a(munmap.o)
 .debug_pubtypes
                0x0000000000000b3f       0x7f 0x1 /usr/local/popcorn/x86_64/lib/libc.a(accept.o)
 .debug_pubtypes
                0x0000000000000bbe       0x95 0x1 /usr/local/popcorn/x86_64/lib/libc.a(bind.o)
 .debug_pubtypes
                0x0000000000000c53       0x41 0x1 /usr/local/popcorn/x86_64/lib/libc.a(htonl.o)
 .debug_pubtypes
                0x0000000000000c94       0x43 0x1 /usr/local/popcorn/x86_64/lib/libc.a(htons.o)
 .debug_pubtypes
                0x0000000000000cd7       0x65 0x1 /usr/local/popcorn/x86_64/lib/libc.a(inet_ntoa.o)
 .debug_pubtypes
                0x0000000000000d3c       0x3d 0x1 /usr/local/popcorn/x86_64/lib/libc.a(listen.o)
 .debug_pubtypes
                0x0000000000000d79       0x43 0x1 /usr/local/popcorn/x86_64/lib/libc.a(ntohs.o)
 .debug_pubtypes
                0x0000000000000dbc       0x5c 0x1 /usr/local/popcorn/x86_64/lib/libc.a(setsockopt.o)
 .debug_pubtypes
                0x0000000000000e18       0x3d 0x1 /usr/local/popcorn/x86_64/lib/libc.a(socket.o)
 .debug_pubtypes
                0x0000000000000e55       0xdf 0x1 /usr/local/popcorn/x86_64/lib/libc.a(fork.o)
 .debug_pubtypes
                0x0000000000000f34       0x35 0x1 /usr/local/popcorn/x86_64/lib/libc.a(block.o)
 .debug_pubtypes
                0x0000000000000f69       0xc4 0x1 /usr/local/popcorn/x86_64/lib/libc.a(signal.o)
 .debug_pubtypes
                0x000000000000102d       0xdc 0x1 /usr/local/popcorn/x86_64/lib/libc.a(fstat.o)
 .debug_pubtypes
                0x0000000000001109       0xc2 0x1 /usr/local/popcorn/x86_64/lib/libc.a(perror.o)
 .debug_pubtypes
                0x00000000000011cb       0x68 0x1 /usr/local/popcorn/x86_64/lib/libc.a(printf.o)
 .debug_pubtypes
                0x0000000000001233       0x89 0x1 /usr/local/popcorn/x86_64/lib/libc.a(snprintf.o)
 .debug_pubtypes
                0x00000000000012bc       0x68 0x1 /usr/local/popcorn/x86_64/lib/libc.a(sprintf.o)
 .debug_pubtypes
                0x0000000000001324       0x68 0x1 /usr/local/popcorn/x86_64/lib/libc.a(sscanf.o)
 .debug_pubtypes
                0x000000000000138c       0xc2 0x1 /usr/local/popcorn/x86_64/lib/libc.a(stderr.o)
 .debug_pubtypes
                0x000000000000144e       0xc2 0x1 /usr/local/popcorn/x86_64/lib/libc.a(stdout.o)
 .debug_pubtypes
                0x0000000000001510      0x1a5 0x1 /usr/local/popcorn/x86_64/lib/libc.a(vfprintf.o)
 .debug_pubtypes
                0x00000000000016b5       0xdf 0x1 /usr/local/popcorn/x86_64/lib/libc.a(vsnprintf.o)
 .debug_pubtypes
                0x0000000000001794       0x46 0x1 /usr/local/popcorn/x86_64/lib/libc.a(vsprintf.o)
 .debug_pubtypes
                0x00000000000017da       0xd4 0x1 /usr/local/popcorn/x86_64/lib/libc.a(vsscanf.o)
 .debug_pubtypes
                0x00000000000018ae       0x34 0x1 /usr/local/popcorn/x86_64/lib/libc.a(atoi.o)
 .debug_pubtypes
                0x00000000000018e2      0x10a 0x1 /usr/local/popcorn/x86_64/lib/libc.a(strtol.o)
 .debug_pubtypes
                0x00000000000019ec       0x35 0x1 /usr/local/popcorn/x86_64/lib/libc.a(strcmp.o)
 .debug_pubtypes
                0x0000000000001a21       0x4a 0x1 /usr/local/popcorn/x86_64/lib/libc.a(strlen.o)
 .debug_pubtypes
                0x0000000000001a6b       0x3c 0x1 /usr/local/popcorn/x86_64/lib/libc.a(strnlen.o)
 .debug_pubtypes
                0x0000000000001aa7       0x23 0x1 /usr/local/popcorn/x86_64/lib/libc.a(strrchr.o)
 .debug_pubtypes
                0x0000000000001aca       0x3d 0x1 /usr/local/popcorn/x86_64/lib/libc.a(__lock.o)
 .debug_pubtypes
                0x0000000000001b07       0x31 0x1 /usr/local/popcorn/x86_64/lib/libc.a(__syscall_cp.o)
 .debug_pubtypes
                0x0000000000001b38       0x3d 0x1 /usr/local/popcorn/x86_64/lib/libc.a(__wait.o)
 .debug_pubtypes
                0x0000000000001b75       0x42 0x1 /usr/local/popcorn/x86_64/lib/libc.a(localtime.o)
 .debug_pubtypes
                0x0000000000001bb7       0x54 0x1 /usr/local/popcorn/x86_64/lib/libc.a(localtime_r.o)
 .debug_pubtypes
                0x0000000000001c0b       0xeb 0x1 /usr/local/popcorn/x86_64/lib/libc.a(strftime.o)
 .debug_pubtypes
                0x0000000000001cf6       0x46 0x1 /usr/local/popcorn/x86_64/lib/libc.a(chdir.o)
 .debug_pubtypes
                0x0000000000001d3c       0x27 0x1 /usr/local/popcorn/x86_64/lib/libc.a(close.o)
 .debug_pubtypes
                0x0000000000001d63       0x49 0x1 /usr/local/popcorn/x86_64/lib/libc.a(getcwd.o)
 .debug_pubtypes
                0x0000000000001dac       0x47 0x1 /usr/local/popcorn/x86_64/lib/libc.a(getpid.o)
 .debug_pubtypes
                0x0000000000001df3       0x54 0x1 /usr/local/popcorn/x86_64/lib/libc.a(read.o)
 .debug_pubtypes
                0x0000000000001e47       0x54 0x1 /usr/local/popcorn/x86_64/lib/libc.a(write.o)
 .debug_pubtypes
                0x0000000000001e9b       0x1b 0x1 /usr/local/popcorn/x86_64/lib/libc.a(__environ.o)
 .debug_pubtypes
                0x0000000000001eb6      0x161 0x1 /usr/local/popcorn/x86_64/lib/libc.a(__init_tls.o)
 .debug_pubtypes
                0x0000000000002017       0xc6 0x1 /usr/local/popcorn/x86_64/lib/libc.a(strerror.o)
 .debug_pubtypes
                0x00000000000020dd       0x3d 0x1 /usr/local/popcorn/x86_64/lib/libc.a(_Exit.o)
 .debug_pubtypes
                0x000000000000211a       0xdd 0x1 /usr/local/popcorn/x86_64/lib/libc.a(intscan.o)
 .debug_pubtypes
                0x00000000000021f7       0x2c 0x1 /usr/local/popcorn/x86_64/lib/libc.a(procfdname.o)
 .debug_pubtypes
                0x0000000000002223       0xc2 0x1 /usr/local/popcorn/x86_64/lib/libc.a(shgetc.o)
 .debug_pubtypes
                0x00000000000022e5       0xc6 0x1 /usr/local/popcorn/x86_64/lib/libc.a(__lctrans.o)
 .debug_pubtypes
                0x00000000000023ab       0xd2 0x1 /usr/local/popcorn/x86_64/lib/libc.a(langinfo.o)
 .debug_pubtypes
                0x000000000000247d       0x67 0x1 /usr/local/popcorn/x86_64/lib/libc.a(expand_heap.o)
 .debug_pubtypes
                0x00000000000024e4       0x79 0x1 /usr/local/popcorn/x86_64/lib/libc.a(__fpclassifyl.o)
 .debug_pubtypes
                0x000000000000255d       0x79 0x1 /usr/local/popcorn/x86_64/lib/libc.a(__signbitl.o)
 .debug_pubtypes
                0x00000000000025d6       0x79 0x1 /usr/local/popcorn/x86_64/lib/libc.a(frexpl.o)
 .debug_pubtypes
                0x000000000000264f       0x2f 0x1 /usr/local/popcorn/x86_64/lib/libc.a(wctomb.o)
 .debug_pubtypes
                0x000000000000267e       0xef 0x1 /usr/local/popcorn/x86_64/lib/libc.a(sigaction.o)
 .debug_pubtypes
                0x000000000000276d      0x100 0x1 /usr/local/popcorn/x86_64/lib/libc.a(__lockfile.o)
 .debug_pubtypes
                0x000000000000286d       0xc2 0x1 /usr/local/popcorn/x86_64/lib/libc.a(__stdio_close.o)
 .debug_pubtypes
                0x000000000000292f       0xc2 0x1 /usr/local/popcorn/x86_64/lib/libc.a(__stdio_seek.o)
 .debug_pubtypes
                0x00000000000029f1       0xd8 0x1 /usr/local/popcorn/x86_64/lib/libc.a(__stdio_write.o)
 .debug_pubtypes
                0x0000000000002ac9       0xe1 0x1 /usr/local/popcorn/x86_64/lib/libc.a(__stdout_write.o)
 .debug_pubtypes
                0x0000000000002baa       0xc2 0x1 /usr/local/popcorn/x86_64/lib/libc.a(__string_read.o)
 .debug_pubtypes
                0x0000000000002c6c       0xc2 0x1 /usr/local/popcorn/x86_64/lib/libc.a(__uflow.o)
 .debug_pubtypes
                0x0000000000002d2e       0xc2 0x1 /usr/local/popcorn/x86_64/lib/libc.a(fputc.o)
 .debug_pubtypes
                0x0000000000002df0       0xc2 0x1 /usr/local/popcorn/x86_64/lib/libc.a(fwrite.o)
 .debug_pubtypes
                0x0000000000002eb2      0x180 0x1 /usr/local/popcorn/x86_64/lib/libc.a(vfscanf.o)
 .debug_pubtypes
                0x0000000000003032       0x1a 0x1 /usr/local/popcorn/x86_64/lib/libc.a(abs.o)
 .debug_pubtypes
                0x000000000000304c       0x5b 0x1 /usr/local/popcorn/x86_64/lib/libc.a(memchr.o)
 .debug_pubtypes
                0x00000000000030a7       0x4d 0x1 /usr/local/popcorn/x86_64/lib/libc.a(memrchr.o)
 .debug_pubtypes
                0x00000000000030f4       0x3c 0x1 /usr/local/popcorn/x86_64/lib/libc.a(strdup.o)
 .debug_pubtypes
                0x0000000000003130       0x49 0x1 /usr/local/popcorn/x86_64/lib/libc.a(__secs_to_tm.o)
 .debug_pubtypes
                0x0000000000003179       0x49 0x1 /usr/local/popcorn/x86_64/lib/libc.a(__tm_to_secs.o)
 .debug_pubtypes
                0x00000000000031c2       0xcd 0x1 /usr/local/popcorn/x86_64/lib/libc.a(__tz.o)
 .debug_pubtypes
                0x000000000000328f       0x2c 0x1 /usr/local/popcorn/x86_64/lib/libc.a(__year_to_secs.o)
 .debug_pubtypes
                0x00000000000032bb       0x3c 0x1 /usr/local/popcorn/x86_64/lib/libc.a(getenv.o)
 .debug_pubtypes
                0x00000000000032f7       0xfe 0x1 /usr/local/popcorn/x86_64/lib/libc.a(floatscan.o)
 .debug_pubtypes
                0x00000000000033f5       0x71 0x1 /usr/local/popcorn/x86_64/lib/libc.a(copysignl.o)
 .debug_pubtypes
                0x0000000000003466       0x55 0x1 /usr/local/popcorn/x86_64/lib/libc.a(scalbn.o)
 .debug_pubtypes
                0x00000000000034bb       0x79 0x1 /usr/local/popcorn/x86_64/lib/libc.a(scalbnl.o)
 .debug_pubtypes
                0x0000000000003534      0x11d 0x1 /usr/local/popcorn/x86_64/lib/libc.a(mbrtowc.o)
 .debug_pubtypes
                0x0000000000003651       0x49 0x1 /usr/local/popcorn/x86_64/lib/libc.a(mbsinit.o)
 .debug_pubtypes
                0x000000000000369a      0x101 0x1 /usr/local/popcorn/x86_64/lib/libc.a(wcrtomb.o)
 .debug_pubtypes
                0x000000000000379b       0xc2 0x1 /usr/local/popcorn/x86_64/lib/libc.a(__overflow.o)
 .debug_pubtypes
                0x000000000000385d       0xc2 0x1 /usr/local/popcorn/x86_64/lib/libc.a(__toread.o)
 .debug_pubtypes
                0x000000000000391f       0xc2 0x1 /usr/local/popcorn/x86_64/lib/libc.a(__towrite.o)
 .debug_pubtypes
                0x00000000000039e1       0x4d 0x1 /usr/local/popcorn/x86_64/lib/libc.a(memcmp.o)
 .debug_pubtypes
                0x0000000000003a2e       0x35 0x1 /usr/local/popcorn/x86_64/lib/libc.a(strchr.o)
 .debug_pubtypes
                0x0000000000003a63       0x64 0x1 /usr/local/popcorn/x86_64/lib/libc.a(strchrnul.o)
 .debug_pubtypes
                0x0000000000003ac7       0x56 0x1 /usr/local/popcorn/x86_64/lib/libc.a(strncmp.o)
 .debug_pubtypes
                0x0000000000003b1d       0xf9 0x1 /usr/local/popcorn/x86_64/lib/libc.a(__map_file.o)
 .debug_pubtypes
                0x0000000000003c16       0x1a 0x1 /usr/local/popcorn/x86_64/lib/libc.a(__month_to_secs.o)
 .debug_pubtypes
                0x0000000000003c30       0x30 0x1 /usr/local/popcorn/x86_64/lib/libc.a(internal.o)
 .debug_pubtypes
                0x0000000000003c60       0xc2 0x1 /usr/local/popcorn/x86_64/lib/libc.a(__stdio_exit.o)
 .debug_pubtypes
                0x0000000000003d22       0xc2 0x1 /usr/local/popcorn/x86_64/lib/libc.a(ofl.o)
 .debug_pubtypes
                0x0000000000003de4       0x7d 0x1 /usr/local/popcorn/x86_64/lib/libmigrate.a(migrate.o)
 .debug_pubtypes
                0x0000000000003e61       0x67 0x1 /usr/local/popcorn/x86_64/lib/libmigrate.a(mapping.o)
 .debug_pubtypes
                0x0000000000003ec8      0x21e 0x1 /usr/local/popcorn/x86_64/lib/libstack-transform.a(userspace.o)
 .debug_pubtypes
                0x00000000000040e6      0x1ef 0x1 /usr/local/popcorn/x86_64/lib/libstack-transform.a(init.o)
 .debug_pubtypes
                0x00000000000042d5      0x20c 0x1 /usr/local/popcorn/x86_64/lib/libstack-transform.a(rewrite.o)
 .debug_pubtypes
                0x00000000000044e1      0x20c 0x1 /usr/local/popcorn/x86_64/lib/libstack-transform.a(unwind.o)
 .debug_pubtypes
                0x00000000000046ed      0x22e 0x1 /usr/local/popcorn/x86_64/lib/libstack-transform.a(util.o)
 .debug_pubtypes
                0x000000000000491b       0x8f 0x1 /usr/local/popcorn/x86_64/lib/libstack-transform.a(properties.o)
 .debug_pubtypes
                0x00000000000049aa       0xd7 0x1 /usr/local/popcorn/x86_64/lib/libstack-transform.a(regs.o)
 .debug_pubtypes
                0x0000000000004a81       0x8f 0x1 /usr/local/popcorn/x86_64/lib/libstack-transform.a(properties.o)
 .debug_pubtypes
                0x0000000000004b10       0xc5 0x1 /usr/local/popcorn/x86_64/lib/libstack-transform.a(regs.o)
 .debug_pubtypes
                0x0000000000004bd5       0x8f 0x1 /usr/local/popcorn/x86_64/lib/libstack-transform.a(properties.o)
 .debug_pubtypes
                0x0000000000004c64      0x103 0x1 /usr/local/popcorn/x86_64/lib/libstack-transform.a(regs.o)
 .debug_pubtypes
                0x0000000000004d67      0x22c 0x1 /usr/local/popcorn/x86_64/lib/libstack-transform.a(data.o)
 .debug_pubtypes
                0x0000000000004f93       0x29 0x1 /usr/local/popcorn/x86_64/lib/libc.a(arch_crash.o)
 .debug_pubtypes
                0x0000000000004fbc       0x23 0x1 /usr/local/popcorn/x86_64/lib/libc.a(assert.o)
 .debug_pubtypes
                0x0000000000004fdf       0x6e 0x1 /usr/local/popcorn/x86_64/lib/libc.a(getrlimit.o)
 .debug_pubtypes
                0x000000000000504d       0x8c 0x1 /usr/local/popcorn/x86_64/lib/libc.a(syscall.o)
 .debug_pubtypes
                0x00000000000050d9       0xc2 0x1 /usr/local/popcorn/x86_64/lib/libc.a(fclose.o)
 .debug_pubtypes
                0x000000000000519b       0xc2 0x1 /usr/local/popcorn/x86_64/lib/libc.a(fflush.o)
 .debug_pubtypes
                0x000000000000525d       0xc2 0x1 /usr/local/popcorn/x86_64/lib/libc.a(fopen.o)
 .debug_pubtypes
                0x000000000000531f       0x71 0x1 /usr/local/popcorn/x86_64/lib/libc.a(fprintf.o)
 .debug_pubtypes
                0x0000000000005390       0x71 0x1 /usr/local/popcorn/x86_64/lib/libc.a(fscanf.o)
 .debug_pubtypes
                0x0000000000005401       0xc2 0x1 /usr/local/popcorn/x86_64/lib/libc.a(fseek.o)
 .debug_pubtypes
                0x00000000000054c3       0xc2 0x1 /usr/local/popcorn/x86_64/lib/libc.a(getc.o)
 .debug_pubtypes
                0x0000000000005585       0x5e 0x1 /usr/local/popcorn/x86_64/lib/libc.a(getline.o)
 .debug_pubtypes
                0x00000000000055e3       0x44 0x1 /usr/local/popcorn/x86_64/lib/libc.a(bsearch.o)
 .debug_pubtypes
                0x0000000000005627       0x6e 0x1 /usr/local/popcorn/x86_64/lib/libc.a(qsort.o)
 .debug_pubtypes
                0x0000000000005695      0x104 0x1 /usr/local/popcorn/x86_64/lib/libc.a(pthread_attr_get.o)
 .debug_pubtypes
                0x0000000000005799       0xd6 0x1 /usr/local/popcorn/x86_64/lib/libc.a(pthread_getattr_np.o)
 .debug_pubtypes
                0x000000000000586f       0xd8 0x1 /usr/local/popcorn/x86_64/lib/libc.a(pthread_getspecific.o)
 .debug_pubtypes
                0x0000000000005947       0xe6 0x1 /usr/local/popcorn/x86_64/lib/libc.a(pthread_key_create.o)
 .debug_pubtypes
                0x0000000000005a2d       0xb5 0x1 /usr/local/popcorn/x86_64/lib/libc.a(pthread_migrate.o)
 .debug_pubtypes
                0x0000000000005ae2       0xc3 0x1 /usr/local/popcorn/x86_64/lib/libc.a(pthread_self.o)
 .debug_pubtypes
                0x0000000000005ba5       0xd8 0x1 /usr/local/popcorn/x86_64/lib/libc.a(pthread_setspecific.o)
 .debug_pubtypes
                0x0000000000005c7d       0x47 0x1 /usr/local/popcorn/x86_64/lib/libc.a(lseek.o)
 .debug_pubtypes
                0x0000000000005cc4       0x59 0x1 /usr/local/popcorn/x86_64/lib/libc.a(raise.o)
 .debug_pubtypes
                0x0000000000005d1d       0xe1 0x1 /usr/local/popcorn/x86_64/lib/libc.a(__fdopen.o)
 .debug_pubtypes
                0x0000000000005dfe       0x23 0x1 /usr/local/popcorn/x86_64/lib/libc.a(__fmodeflags.o)
 .debug_pubtypes
                0x0000000000005e21       0xd8 0x1 /usr/local/popcorn/x86_64/lib/libc.a(__stdio_read.o)
 .debug_pubtypes
                0x0000000000005ef9       0xce 0x1 /usr/local/popcorn/x86_64/lib/libc.a(getdelim.o)
 .debug_pubtypes
                0x0000000000005fc7       0xc2 0x1 /usr/local/popcorn/x86_64/lib/libc.a(ofl_add.o)

.comment        0x0000000000000000       0x35
 ** merge strings
                0x0000000000000000       0x35

.stack_transform.unwind
                0x0000000000000000      0x200
 .stack_transform.unwind
                0x0000000000000000      0x148 0x4 tiny_x86_64.o
 .stack_transform.unwind
                0x0000000000000148       0x18 0x4 /usr/local/popcorn/x86_64/lib/libc.a(__libc_start_main.o)
 .stack_transform.unwind
                0x0000000000000160       0x70 0x4 /usr/local/popcorn/x86_64/lib/libmigrate.a(migrate.o)
 .stack_transform.unwind
                0x00000000000001d0       0x30 0x4 /usr/local/popcorn/x86_64/lib/libmigrate.a(mapping.o)

.stack_transform.unwind_arange
                0x0000000000000000      0x1c0
 .stack_transform.unwind_arange
                0x0000000000000000      0x110 0x8 tiny_x86_64.o
 .stack_transform.unwind_arange
                0x0000000000000110       0x10 0x8 /usr/local/popcorn/x86_64/lib/libc.a(__libc_start_main.o)
 .stack_transform.unwind_arange
                0x0000000000000120       0x70 0x8 /usr/local/popcorn/x86_64/lib/libmigrate.a(migrate.o)
 .stack_transform.unwind_arange
                0x0000000000000190       0x30 0x8 /usr/local/popcorn/x86_64/lib/libmigrate.a(mapping.o)

.debug_line     0x0000000000000000    0x10767
 .debug_line    0x0000000000000000      0xbbb 0x1 tiny_x86_64.o
 .debug_line    0x0000000000000bbb       0x48 0x1 /usr/local/popcorn/x86_64/lib/crt1.o
 .debug_line    0x0000000000000c03       0x97 0x1 /usr/local/popcorn/x86_64/lib/libc.a(closedir.o)
 .debug_line    0x0000000000000c9a       0xd4 0x1 /usr/local/popcorn/x86_64/lib/libc.a(fdopendir.o)
 .debug_line    0x0000000000000d6e       0xf1 0x1 /usr/local/popcorn/x86_64/lib/libc.a(readdir.o)
 .debug_line    0x0000000000000e5f      0x245 0x1 /usr/local/popcorn/x86_64/lib/libc.a(__libc_start_main.o)
 .debug_line    0x00000000000010a4       0xde 0x1 /usr/local/popcorn/x86_64/lib/libc.a(__errno_location.o)
 .debug_line    0x0000000000001182       0xb1 0x1 /usr/local/popcorn/x86_64/lib/libc.a(exit.o)
 .debug_line    0x0000000000001233      0x187 0x1 /usr/local/popcorn/x86_64/lib/libc.a(fcntl.o)
 .debug_line    0x00000000000013ba       0xc1 0x1 /usr/local/popcorn/x86_64/lib/libc.a(open.o)
 .debug_line    0x000000000000147b       0x91 0x1 /usr/local/popcorn/x86_64/lib/libc.a(openat.o)
 .debug_line    0x000000000000150c       0x6c 0x1 /usr/local/popcorn/x86_64/lib/libc.a(libc.o)
 .debug_line    0x0000000000001578       0x5e 0x1 /usr/local/popcorn/x86_64/lib/libc.a(syscall_ret.o)
 .debug_line    0x00000000000015d6       0x97 0x1 /usr/local/popcorn/x86_64/lib/libc.a(sendfile.o)
 .debug_line    0x000000000000166d       0xbf 0x1 /usr/local/popcorn/x86_64/lib/libc.a(calloc.o)
 .debug_line    0x000000000000172c       0xd6 0x1 /usr/local/popcorn/x86_64/lib/libc.a(lite_malloc.o)
 .debug_line    0x0000000000001802      0xc81 0x1 /usr/local/popcorn/x86_64/lib/libc.a(malloc.o)
 .debug_line    0x0000000000002483      0xdee 0x1 /usr/local/popcorn/x86_64/lib/libc.a(popcorn_malloc.o)
 .debug_line    0x0000000000003271       0x95 0x1 /usr/local/popcorn/x86_64/lib/libc.a(madvise.o)
 .debug_line    0x0000000000003306       0xe7 0x1 /usr/local/popcorn/x86_64/lib/libc.a(mmap.o)
 .debug_line    0x00000000000033ed       0xe1 0x1 /usr/local/popcorn/x86_64/lib/libc.a(mremap.o)
 .debug_line    0x00000000000034ce       0xa7 0x1 /usr/local/popcorn/x86_64/lib/libc.a(munmap.o)
 .debug_line    0x0000000000003575       0x83 0x1 /usr/local/popcorn/x86_64/lib/libc.a(accept.o)
 .debug_line    0x00000000000035f8       0xaf 0x1 /usr/local/popcorn/x86_64/lib/libc.a(bind.o)
 .debug_line    0x00000000000036a7       0x8b 0x1 /usr/local/popcorn/x86_64/lib/libc.a(htonl.o)
 .debug_line    0x0000000000003732       0x87 0x1 /usr/local/popcorn/x86_64/lib/libc.a(htons.o)
 .debug_line    0x00000000000037b9       0x93 0x1 /usr/local/popcorn/x86_64/lib/libc.a(inet_ntoa.o)
 .debug_line    0x000000000000384c       0x79 0x1 /usr/local/popcorn/x86_64/lib/libc.a(listen.o)
 .debug_line    0x00000000000038c5       0x87 0x1 /usr/local/popcorn/x86_64/lib/libc.a(ntohs.o)
 .debug_line    0x000000000000394c       0x9b 0x1 /usr/local/popcorn/x86_64/lib/libc.a(setsockopt.o)
 .debug_line    0x00000000000039e7       0xd7 0x1 /usr/local/popcorn/x86_64/lib/libc.a(socket.o)
 .debug_line    0x0000000000003abe      0x128 0x1 /usr/local/popcorn/x86_64/lib/libc.a(fork.o)
 .debug_line    0x0000000000003be6       0xb0 0x1 /usr/local/popcorn/x86_64/lib/libc.a(block.o)
 .debug_line    0x0000000000003c96       0x96 0x1 /usr/local/popcorn/x86_64/lib/libc.a(signal.o)
 .debug_line    0x0000000000003d2c       0xd4 0x1 /usr/local/popcorn/x86_64/lib/libc.a(fstat.o)
 .debug_line    0x0000000000003e00       0xd2 0x1 /usr/local/popcorn/x86_64/lib/libc.a(perror.o)
 .debug_line    0x0000000000003ed2       0x76 0x1 /usr/local/popcorn/x86_64/lib/libc.a(printf.o)
 .debug_line    0x0000000000003f48       0x73 0x1 /usr/local/popcorn/x86_64/lib/libc.a(snprintf.o)
 .debug_line    0x0000000000003fbb       0x72 0x1 /usr/local/popcorn/x86_64/lib/libc.a(sprintf.o)
 .debug_line    0x000000000000402d       0x71 0x1 /usr/local/popcorn/x86_64/lib/libc.a(sscanf.o)
 .debug_line    0x000000000000409e       0x7b 0x1 /usr/local/popcorn/x86_64/lib/libc.a(stderr.o)
 .debug_line    0x0000000000004119       0x7b 0x1 /usr/local/popcorn/x86_64/lib/libc.a(stdout.o)
 .debug_line    0x0000000000004194     0x13f2 0x1 /usr/local/popcorn/x86_64/lib/libc.a(vfprintf.o)
 .debug_line    0x0000000000005586      0x136 0x1 /usr/local/popcorn/x86_64/lib/libc.a(vsnprintf.o)
 .debug_line    0x00000000000056bc       0x4a 0x1 /usr/local/popcorn/x86_64/lib/libc.a(vsprintf.o)
 .debug_line    0x0000000000005706       0xb6 0x1 /usr/local/popcorn/x86_64/lib/libc.a(vsscanf.o)
 .debug_line    0x00000000000057bc       0xc7 0x1 /usr/local/popcorn/x86_64/lib/libc.a(atoi.o)
 .debug_line    0x0000000000005883      0x169 0x1 /usr/local/popcorn/x86_64/lib/libc.a(strtol.o)
 .debug_line    0x00000000000059ec       0x76 0x1 /usr/local/popcorn/x86_64/lib/libc.a(strcmp.o)
 .debug_line    0x0000000000005a62       0xb2 0x1 /usr/local/popcorn/x86_64/lib/libc.a(strlen.o)
 .debug_line    0x0000000000005b14       0x73 0x1 /usr/local/popcorn/x86_64/lib/libc.a(strnlen.o)
 .debug_line    0x0000000000005b87       0x51 0x1 /usr/local/popcorn/x86_64/lib/libc.a(strrchr.o)
 .debug_line    0x0000000000005bd8       0x4e 0x1 /usr/local/popcorn/x86_64/lib/libc.a(memcpy.o)
 .debug_line    0x0000000000005c26       0x72 0x1 /usr/local/popcorn/x86_64/lib/libc.a(memset.o)
 .debug_line    0x0000000000005c98      0x114 0x1 /usr/local/popcorn/x86_64/lib/libc.a(__lock.o)
 .debug_line    0x0000000000005dac       0x88 0x1 /usr/local/popcorn/x86_64/lib/libc.a(__syscall_cp.o)
 .debug_line    0x0000000000005e34       0xfb 0x1 /usr/local/popcorn/x86_64/lib/libc.a(__wait.o)
 .debug_line    0x0000000000005f2f       0x7f 0x1 /usr/local/popcorn/x86_64/lib/libc.a(localtime.o)
 .debug_line    0x0000000000005fae       0xa5 0x1 /usr/local/popcorn/x86_64/lib/libc.a(localtime_r.o)
 .debug_line    0x0000000000006053      0x4a4 0x1 /usr/local/popcorn/x86_64/lib/libc.a(strftime.o)
 .debug_line    0x00000000000064f7       0x73 0x1 /usr/local/popcorn/x86_64/lib/libc.a(chdir.o)
 .debug_line    0x000000000000656a       0x6d 0x1 /usr/local/popcorn/x86_64/lib/libc.a(close.o)
 .debug_line    0x00000000000065d7       0xae 0x1 /usr/local/popcorn/x86_64/lib/libc.a(getcwd.o)
 .debug_line    0x0000000000006685       0x8d 0x1 /usr/local/popcorn/x86_64/lib/libc.a(getpid.o)
 .debug_line    0x0000000000006712       0x66 0x1 /usr/local/popcorn/x86_64/lib/libc.a(read.o)
 .debug_line    0x0000000000006778       0x67 0x1 /usr/local/popcorn/x86_64/lib/libc.a(write.o)
 .debug_line    0x00000000000067df       0x34 0x1 /usr/local/popcorn/x86_64/lib/libc.a(__environ.o)
 .debug_line    0x0000000000006813      0x249 0x1 /usr/local/popcorn/x86_64/lib/libc.a(__init_tls.o)
 .debug_line    0x0000000000006a5c      0x136 0x1 /usr/local/popcorn/x86_64/lib/libc.a(strerror.o)
 .debug_line    0x0000000000006b92       0x71 0x1 /usr/local/popcorn/x86_64/lib/libc.a(_Exit.o)
 .debug_line    0x0000000000006c03      0x388 0x1 /usr/local/popcorn/x86_64/lib/libc.a(intscan.o)
 .debug_line    0x0000000000006f8b       0x9f 0x1 /usr/local/popcorn/x86_64/lib/libc.a(procfdname.o)
 .debug_line    0x000000000000702a      0x12e 0x1 /usr/local/popcorn/x86_64/lib/libc.a(shgetc.o)
 .debug_line    0x0000000000007158       0x43 0x1 /usr/local/popcorn/x86_64/lib/libc.a(syscall.o)
 .debug_line    0x000000000000719b      0x11b 0x1 /usr/local/popcorn/x86_64/lib/libc.a(__lctrans.o)
 .debug_line    0x00000000000072b6      0x17f 0x1 /usr/local/popcorn/x86_64/lib/libc.a(langinfo.o)
 .debug_line    0x0000000000007435      0x33d 0x1 /usr/local/popcorn/x86_64/lib/libc.a(expand_heap.o)
 .debug_line    0x0000000000007772       0xae 0x1 /usr/local/popcorn/x86_64/lib/libc.a(__fpclassifyl.o)
 .debug_line    0x0000000000007820       0x87 0x1 /usr/local/popcorn/x86_64/lib/libc.a(__signbitl.o)
 .debug_line    0x00000000000078a7       0xa5 0x1 /usr/local/popcorn/x86_64/lib/libc.a(frexpl.o)
 .debug_line    0x000000000000794c       0x71 0x1 /usr/local/popcorn/x86_64/lib/libc.a(wctomb.o)
 .debug_line    0x00000000000079bd      0x1bb 0x1 /usr/local/popcorn/x86_64/lib/libc.a(sigaction.o)
 .debug_line    0x0000000000007b78       0x3c 0x1 /usr/local/popcorn/x86_64/lib/libc.a(restore.o)
 .debug_line    0x0000000000007bb4      0x175 0x1 /usr/local/popcorn/x86_64/lib/libc.a(__lockfile.o)
 .debug_line    0x0000000000007d29       0xd8 0x1 /usr/local/popcorn/x86_64/lib/libc.a(__stdio_close.o)
 .debug_line    0x0000000000007e01       0xc4 0x1 /usr/local/popcorn/x86_64/lib/libc.a(__stdio_seek.o)
 .debug_line    0x0000000000007ec5      0x142 0x1 /usr/local/popcorn/x86_64/lib/libc.a(__stdio_write.o)
 .debug_line    0x0000000000008007      0x107 0x1 /usr/local/popcorn/x86_64/lib/libc.a(__stdout_write.o)
 .debug_line    0x000000000000810e       0xc8 0x1 /usr/local/popcorn/x86_64/lib/libc.a(__string_read.o)
 .debug_line    0x00000000000081d6       0xaa 0x1 /usr/local/popcorn/x86_64/lib/libc.a(__uflow.o)
 .debug_line    0x0000000000008280       0xc9 0x1 /usr/local/popcorn/x86_64/lib/libc.a(fputc.o)
 .debug_line    0x0000000000008349      0x138 0x1 /usr/local/popcorn/x86_64/lib/libc.a(fwrite.o)
 .debug_line    0x0000000000008481      0x663 0x1 /usr/local/popcorn/x86_64/lib/libc.a(vfscanf.o)
 .debug_line    0x0000000000008ae4       0x4a 0x1 /usr/local/popcorn/x86_64/lib/libc.a(abs.o)
 .debug_line    0x0000000000008b2e       0xf5 0x1 /usr/local/popcorn/x86_64/lib/libc.a(memchr.o)
 .debug_line    0x0000000000008c23       0x80 0x1 /usr/local/popcorn/x86_64/lib/libc.a(memrchr.o)
 .debug_line    0x0000000000008ca3       0x79 0x1 /usr/local/popcorn/x86_64/lib/libc.a(strdup.o)
 .debug_line    0x0000000000008d1c       0x49 0x1 /usr/local/popcorn/x86_64/lib/libc.a(__set_thread_area.o)
 .debug_line    0x0000000000008d65      0x185 0x1 /usr/local/popcorn/x86_64/lib/libc.a(__secs_to_tm.o)
 .debug_line    0x0000000000008eea       0xbd 0x1 /usr/local/popcorn/x86_64/lib/libc.a(__tm_to_secs.o)
 .debug_line    0x0000000000008fa7      0xa8c 0x1 /usr/local/popcorn/x86_64/lib/libc.a(__tz.o)
 .debug_line    0x0000000000009a33       0xfe 0x1 /usr/local/popcorn/x86_64/lib/libc.a(__year_to_secs.o)
 .debug_line    0x0000000000009b31       0x9b 0x1 /usr/local/popcorn/x86_64/lib/libc.a(getenv.o)
 .debug_line    0x0000000000009bcc      0xd74 0x1 /usr/local/popcorn/x86_64/lib/libc.a(floatscan.o)
 .debug_line    0x000000000000a940       0x93 0x1 /usr/local/popcorn/x86_64/lib/libc.a(copysignl.o)
 .debug_line    0x000000000000a9d3       0xa4 0x1 /usr/local/popcorn/x86_64/lib/libc.a(scalbn.o)
 .debug_line    0x000000000000aa77       0xbb 0x1 /usr/local/popcorn/x86_64/lib/libc.a(scalbnl.o)
 .debug_line    0x000000000000ab32       0x3d 0x1 /usr/local/popcorn/x86_64/lib/libc.a(fabs.o)
 .debug_line    0x000000000000ab6f       0x40 0x1 /usr/local/popcorn/x86_64/lib/libc.a(fmodl.o)
 .debug_line    0x000000000000abaf      0x194 0x1 /usr/local/popcorn/x86_64/lib/libc.a(mbrtowc.o)
 .debug_line    0x000000000000ad43       0x7e 0x1 /usr/local/popcorn/x86_64/lib/libc.a(mbsinit.o)
 .debug_line    0x000000000000adc1      0x181 0x1 /usr/local/popcorn/x86_64/lib/libc.a(wcrtomb.o)
 .debug_line    0x000000000000af42       0xd7 0x1 /usr/local/popcorn/x86_64/lib/libc.a(__overflow.o)
 .debug_line    0x000000000000b019       0xe4 0x1 /usr/local/popcorn/x86_64/lib/libc.a(__toread.o)
 .debug_line    0x000000000000b0fd       0xdd 0x1 /usr/local/popcorn/x86_64/lib/libc.a(__towrite.o)
 .debug_line    0x000000000000b1da       0x9a 0x1 /usr/local/popcorn/x86_64/lib/libc.a(memcmp.o)
 .debug_line    0x000000000000b274       0x59 0x1 /usr/local/popcorn/x86_64/lib/libc.a(strchr.o)
 .debug_line    0x000000000000b2cd       0xe4 0x1 /usr/local/popcorn/x86_64/lib/libc.a(strchrnul.o)
 .debug_line    0x000000000000b3b1       0x96 0x1 /usr/local/popcorn/x86_64/lib/libc.a(strncmp.o)
 .debug_line    0x000000000000b447       0xe9 0x1 /usr/local/popcorn/x86_64/lib/libc.a(__map_file.o)
 .debug_line    0x000000000000b530       0x6c 0x1 /usr/local/popcorn/x86_64/lib/libc.a(__month_to_secs.o)
 .debug_line    0x000000000000b59c       0x58 0x1 /usr/local/popcorn/x86_64/lib/libc.a(internal.o)
 .debug_line    0x000000000000b5f4       0xf5 0x1 /usr/local/popcorn/x86_64/lib/libc.a(__stdio_exit.o)
 .debug_line    0x000000000000b6e9       0xa9 0x1 /usr/local/popcorn/x86_64/lib/libc.a(ofl.o)
 .debug_line    0x000000000000b792      0x35d 0x1 /usr/local/popcorn/x86_64/lib/libmigrate.a(migrate.o)
 .debug_line    0x000000000000baef      0x34a 0x1 /usr/local/popcorn/x86_64/lib/libmigrate.a(mapping.o)
 .debug_line    0x000000000000be39      0x475 0x1 /usr/local/popcorn/x86_64/lib/libstack-transform.a(userspace.o)
 .debug_line    0x000000000000c2ae      0x2e3 0x1 /usr/local/popcorn/x86_64/lib/libstack-transform.a(init.o)
 .debug_line    0x000000000000c591      0x882 0x1 /usr/local/popcorn/x86_64/lib/libstack-transform.a(rewrite.o)
 .debug_line    0x000000000000ce13      0x460 0x1 /usr/local/popcorn/x86_64/lib/libstack-transform.a(unwind.o)
 .debug_line    0x000000000000d273      0x3c9 0x1 /usr/local/popcorn/x86_64/lib/libstack-transform.a(util.o)
 .debug_line    0x000000000000d63c       0xeb 0x1 /usr/local/popcorn/x86_64/lib/libstack-transform.a(properties.o)
 .debug_line    0x000000000000d727      0x2f5 0x1 /usr/local/popcorn/x86_64/lib/libstack-transform.a(regs.o)
 .debug_line    0x000000000000da1c       0xf6 0x1 /usr/local/popcorn/x86_64/lib/libstack-transform.a(properties.o)
 .debug_line    0x000000000000db12      0x301 0x1 /usr/local/popcorn/x86_64/lib/libstack-transform.a(regs.o)
 .debug_line    0x000000000000de13       0xe4 0x1 /usr/local/popcorn/x86_64/lib/libstack-transform.a(properties.o)
 .debug_line    0x000000000000def7      0x2cf 0x1 /usr/local/popcorn/x86_64/lib/libstack-transform.a(regs.o)
 .debug_line    0x000000000000e1c6      0x6c1 0x1 /usr/local/popcorn/x86_64/lib/libstack-transform.a(data.o)
 .debug_line    0x000000000000e887       0x9b 0x1 /usr/local/popcorn/x86_64/lib/libc.a(arch_crash.o)
 .debug_line    0x000000000000e922       0x4e 0x1 /usr/local/popcorn/x86_64/lib/libc.a(assert.o)
 .debug_line    0x000000000000e970       0xfe 0x1 /usr/local/popcorn/x86_64/lib/libc.a(getrlimit.o)
 .debug_line    0x000000000000ea6e      0x172 0x1 /usr/local/popcorn/x86_64/lib/libc.a(syscall.o)
 .debug_line    0x000000000000ebe0      0x10c 0x1 /usr/local/popcorn/x86_64/lib/libc.a(fclose.o)
 .debug_line    0x000000000000ecec      0x12e 0x1 /usr/local/popcorn/x86_64/lib/libc.a(fflush.o)
 .debug_line    0x000000000000ee1a       0xf4 0x1 /usr/local/popcorn/x86_64/lib/libc.a(fopen.o)
 .debug_line    0x000000000000ef0e       0x72 0x1 /usr/local/popcorn/x86_64/lib/libc.a(fprintf.o)
 .debug_line    0x000000000000ef80       0x71 0x1 /usr/local/popcorn/x86_64/lib/libc.a(fscanf.o)
 .debug_line    0x000000000000eff1      0x113 0x1 /usr/local/popcorn/x86_64/lib/libc.a(fseek.o)
 .debug_line    0x000000000000f104       0xbe 0x1 /usr/local/popcorn/x86_64/lib/libc.a(getc.o)
 .debug_line    0x000000000000f1c2       0x68 0x1 /usr/local/popcorn/x86_64/lib/libc.a(getline.o)
 .debug_line    0x000000000000f22a       0x92 0x1 /usr/local/popcorn/x86_64/lib/libc.a(bsearch.o)
 .debug_line    0x000000000000f2bc      0x40e 0x1 /usr/local/popcorn/x86_64/lib/libc.a(qsort.o)
 .debug_line    0x000000000000f6ca       0x47 0x1 /usr/local/popcorn/x86_64/lib/libc.a(memmove.o)
 .debug_line    0x000000000000f711      0x27d 0x1 /usr/local/popcorn/x86_64/lib/libc.a(pthread_attr_get.o)
 .debug_line    0x000000000000f98e      0x119 0x1 /usr/local/popcorn/x86_64/lib/libc.a(pthread_getattr_np.o)
 .debug_line    0x000000000000faa7       0xe8 0x1 /usr/local/popcorn/x86_64/lib/libc.a(pthread_getspecific.o)
 .debug_line    0x000000000000fb8f      0x1d3 0x1 /usr/local/popcorn/x86_64/lib/libc.a(pthread_key_create.o)
 .debug_line    0x000000000000fd62       0xde 0x1 /usr/local/popcorn/x86_64/lib/libc.a(pthread_migrate.o)
 .debug_line    0x000000000000fe40       0xd5 0x1 /usr/local/popcorn/x86_64/lib/libc.a(pthread_self.o)
 .debug_line    0x000000000000ff15       0xf2 0x1 /usr/local/popcorn/x86_64/lib/libc.a(pthread_setspecific.o)
 .debug_line    0x0000000000010007       0x95 0x1 /usr/local/popcorn/x86_64/lib/libc.a(lseek.o)
 .debug_line    0x000000000001009c       0x73 0x1 /usr/local/popcorn/x86_64/lib/libc.a(abort.o)
 .debug_line    0x000000000001010f       0xa2 0x1 /usr/local/popcorn/x86_64/lib/libc.a(raise.o)
 .debug_line    0x00000000000101b1      0x18b 0x1 /usr/local/popcorn/x86_64/lib/libc.a(__fdopen.o)
 .debug_line    0x000000000001033c       0xb7 0x1 /usr/local/popcorn/x86_64/lib/libc.a(__fmodeflags.o)
 .debug_line    0x00000000000103f3      0x121 0x1 /usr/local/popcorn/x86_64/lib/libc.a(__stdio_read.o)
 .debug_line    0x0000000000010514      0x1ab 0x1 /usr/local/popcorn/x86_64/lib/libc.a(getdelim.o)
 .debug_line    0x00000000000106bf       0xa8 0x1 /usr/local/popcorn/x86_64/lib/libc.a(ofl_add.o)

.debug_frame    0x0000000000000000     0x2d98
 .debug_frame   0x0000000000000000       0x38 0x8 /usr/local/popcorn/x86_64/lib/crt1.o
 .debug_frame   0x0000000000000038       0x40 0x8 /usr/local/popcorn/x86_64/lib/libc.a(closedir.o)
 .debug_frame   0x0000000000000078       0x40 0x8 /usr/local/popcorn/x86_64/lib/libc.a(fdopendir.o)
 .debug_frame   0x00000000000000b8       0x38 0x8 /usr/local/popcorn/x86_64/lib/libc.a(readdir.o)
 .debug_frame   0x00000000000000f0       0xd0 0x8 /usr/local/popcorn/x86_64/lib/libc.a(__libc_start_main.o)
 .debug_frame   0x00000000000001c0       0x30 0x8 /usr/local/popcorn/x86_64/lib/libc.a(__errno_location.o)
 .debug_frame   0x00000000000001f0       0x78 0x8 /usr/local/popcorn/x86_64/lib/libc.a(exit.o)
 .debug_frame   0x0000000000000268       0x38 0x8 /usr/local/popcorn/x86_64/lib/libc.a(fcntl.o)
 .debug_frame   0x00000000000002a0       0x40 0x8 /usr/local/popcorn/x86_64/lib/libc.a(open.o)
 .debug_frame   0x00000000000002e0       0x38 0x8 /usr/local/popcorn/x86_64/lib/libc.a(openat.o)
 .debug_frame   0x0000000000000318       0x38 0x8 /usr/local/popcorn/x86_64/lib/libc.a(syscall_ret.o)
 .debug_frame   0x0000000000000350       0x30 0x8 /usr/local/popcorn/x86_64/lib/libc.a(sendfile.o)
 .debug_frame   0x0000000000000380       0x58 0x8 /usr/local/popcorn/x86_64/lib/libc.a(calloc.o)
 .debug_frame   0x00000000000003d8       0x48 0x8 /usr/local/popcorn/x86_64/lib/libc.a(lite_malloc.o)
 .debug_frame   0x0000000000000420      0x188 0x8 /usr/local/popcorn/x86_64/lib/libc.a(malloc.o)
 .debug_frame   0x00000000000005a8       0xf8 0x8 /usr/local/popcorn/x86_64/lib/libc.a(popcorn_malloc.o)
 .debug_frame   0x00000000000006a0       0x30 0x8 /usr/local/popcorn/x86_64/lib/libc.a(madvise.o)
 .debug_frame   0x00000000000006d0       0x70 0x8 /usr/local/popcorn/x86_64/lib/libc.a(mmap.o)
 .debug_frame   0x0000000000000740       0x68 0x8 /usr/local/popcorn/x86_64/lib/libc.a(mremap.o)
 .debug_frame   0x00000000000007a8       0x58 0x8 /usr/local/popcorn/x86_64/lib/libc.a(munmap.o)
 .debug_frame   0x0000000000000800       0x38 0x8 /usr/local/popcorn/x86_64/lib/libc.a(accept.o)
 .debug_frame   0x0000000000000838       0x30 0x8 /usr/local/popcorn/x86_64/lib/libc.a(bind.o)
 .debug_frame   0x0000000000000868       0x30 0x8 /usr/local/popcorn/x86_64/lib/libc.a(htonl.o)
 .debug_frame   0x0000000000000898       0x30 0x8 /usr/local/popcorn/x86_64/lib/libc.a(htons.o)
 .debug_frame   0x00000000000008c8       0x38 0x8 /usr/local/popcorn/x86_64/lib/libc.a(inet_ntoa.o)
 .debug_frame   0x0000000000000900       0x30 0x8 /usr/local/popcorn/x86_64/lib/libc.a(listen.o)
 .debug_frame   0x0000000000000930       0x30 0x8 /usr/local/popcorn/x86_64/lib/libc.a(ntohs.o)
 .debug_frame   0x0000000000000960       0x30 0x8 /usr/local/popcorn/x86_64/lib/libc.a(setsockopt.o)
 .debug_frame   0x0000000000000990       0x48 0x8 /usr/local/popcorn/x86_64/lib/libc.a(socket.o)
 .debug_frame   0x00000000000009d8       0x60 0x8 /usr/local/popcorn/x86_64/lib/libc.a(fork.o)
 .debug_frame   0x0000000000000a38       0x60 0x8 /usr/local/popcorn/x86_64/lib/libc.a(block.o)
 .debug_frame   0x0000000000000a98       0x48 0x8 /usr/local/popcorn/x86_64/lib/libc.a(signal.o)
 .debug_frame   0x0000000000000ae0       0x40 0x8 /usr/local/popcorn/x86_64/lib/libc.a(fstat.o)
 .debug_frame   0x0000000000000b20       0x48 0x8 /usr/local/popcorn/x86_64/lib/libc.a(perror.o)
 .debug_frame   0x0000000000000b68       0x38 0x8 /usr/local/popcorn/x86_64/lib/libc.a(printf.o)
 .debug_frame   0x0000000000000ba0       0x38 0x8 /usr/local/popcorn/x86_64/lib/libc.a(snprintf.o)
 .debug_frame   0x0000000000000bd8       0x38 0x8 /usr/local/popcorn/x86_64/lib/libc.a(sprintf.o)
 .debug_frame   0x0000000000000c10       0x38 0x8 /usr/local/popcorn/x86_64/lib/libc.a(sscanf.o)
 .debug_frame   0x0000000000000c48      0x108 0x8 /usr/local/popcorn/x86_64/lib/libc.a(vfprintf.o)
 .debug_frame   0x0000000000000d50       0x90 0x8 /usr/local/popcorn/x86_64/lib/libc.a(vsnprintf.o)
 .debug_frame   0x0000000000000de0       0x30 0x8 /usr/local/popcorn/x86_64/lib/libc.a(vsprintf.o)
 .debug_frame   0x0000000000000e10       0x60 0x8 /usr/local/popcorn/x86_64/lib/libc.a(vsscanf.o)
 .debug_frame   0x0000000000000e70       0x30 0x8 /usr/local/popcorn/x86_64/lib/libc.a(atoi.o)
 .debug_frame   0x0000000000000ea0       0xe0 0x8 /usr/local/popcorn/x86_64/lib/libc.a(strtol.o)
 .debug_frame   0x0000000000000f80       0x30 0x8 /usr/local/popcorn/x86_64/lib/libc.a(strcmp.o)
 .debug_frame   0x0000000000000fb0       0x30 0x8 /usr/local/popcorn/x86_64/lib/libc.a(strlen.o)
 .debug_frame   0x0000000000000fe0       0x40 0x8 /usr/local/popcorn/x86_64/lib/libc.a(strnlen.o)
 .debug_frame   0x0000000000001020       0x40 0x8 /usr/local/popcorn/x86_64/lib/libc.a(strrchr.o)
 .debug_frame   0x0000000000001060       0x58 0x8 /usr/local/popcorn/x86_64/lib/libc.a(__lock.o)
 .debug_frame   0x00000000000010b8       0x50 0x8 /usr/local/popcorn/x86_64/lib/libc.a(__syscall_cp.o)
 .debug_frame   0x0000000000001108       0x38 0x8 /usr/local/popcorn/x86_64/lib/libc.a(__wait.o)
 .debug_frame   0x0000000000001140       0x30 0x8 /usr/local/popcorn/x86_64/lib/libc.a(localtime.o)
 .debug_frame   0x0000000000001170       0x40 0x8 /usr/local/popcorn/x86_64/lib/libc.a(localtime_r.o)
 .debug_frame   0x00000000000011b0       0xc8 0x8 /usr/local/popcorn/x86_64/lib/libc.a(strftime.o)
 .debug_frame   0x0000000000001278       0x30 0x8 /usr/local/popcorn/x86_64/lib/libc.a(chdir.o)
 .debug_frame   0x00000000000012a8       0x50 0x8 /usr/local/popcorn/x86_64/lib/libc.a(close.o)
 .debug_frame   0x00000000000012f8       0x40 0x8 /usr/local/popcorn/x86_64/lib/libc.a(getcwd.o)
 .debug_frame   0x0000000000001338       0x30 0x8 /usr/local/popcorn/x86_64/lib/libc.a(getpid.o)
 .debug_frame   0x0000000000001368       0x38 0x8 /usr/local/popcorn/x86_64/lib/libc.a(read.o)
 .debug_frame   0x00000000000013a0       0x38 0x8 /usr/local/popcorn/x86_64/lib/libc.a(write.o)
 .debug_frame   0x00000000000013d8       0x88 0x8 /usr/local/popcorn/x86_64/lib/libc.a(__init_tls.o)
 .debug_frame   0x0000000000001460       0x48 0x8 /usr/local/popcorn/x86_64/lib/libc.a(strerror.o)
 .debug_frame   0x00000000000014a8       0x30 0x8 /usr/local/popcorn/x86_64/lib/libc.a(_Exit.o)
 .debug_frame   0x00000000000014d8       0x58 0x8 /usr/local/popcorn/x86_64/lib/libc.a(intscan.o)
 .debug_frame   0x0000000000001530       0x30 0x8 /usr/local/popcorn/x86_64/lib/libc.a(procfdname.o)
 .debug_frame   0x0000000000001560       0x50 0x8 /usr/local/popcorn/x86_64/lib/libc.a(shgetc.o)
 .debug_frame   0x00000000000015b0       0x60 0x8 /usr/local/popcorn/x86_64/lib/libc.a(__lctrans.o)
 .debug_frame   0x0000000000001610       0x50 0x8 /usr/local/popcorn/x86_64/lib/libc.a(langinfo.o)
 .debug_frame   0x0000000000001660       0x98 0x8 /usr/local/popcorn/x86_64/lib/libc.a(expand_heap.o)
 .debug_frame   0x00000000000016f8       0x30 0x8 /usr/local/popcorn/x86_64/lib/libc.a(__fpclassifyl.o)
 .debug_frame   0x0000000000001728       0x30 0x8 /usr/local/popcorn/x86_64/lib/libc.a(__signbitl.o)
 .debug_frame   0x0000000000001758       0x38 0x8 /usr/local/popcorn/x86_64/lib/libc.a(frexpl.o)
 .debug_frame   0x0000000000001790       0x38 0x8 /usr/local/popcorn/x86_64/lib/libc.a(wctomb.o)
 .debug_frame   0x00000000000017c8       0x80 0x8 /usr/local/popcorn/x86_64/lib/libc.a(sigaction.o)
 .debug_frame   0x0000000000001848       0x60 0x8 /usr/local/popcorn/x86_64/lib/libc.a(__lockfile.o)
 .debug_frame   0x00000000000018a8       0x50 0x8 /usr/local/popcorn/x86_64/lib/libc.a(__stdio_close.o)
 .debug_frame   0x00000000000018f8       0x30 0x8 /usr/local/popcorn/x86_64/lib/libc.a(__stdio_seek.o)
 .debug_frame   0x0000000000001928       0x58 0x8 /usr/local/popcorn/x86_64/lib/libc.a(__stdio_write.o)
 .debug_frame   0x0000000000001980       0x38 0x8 /usr/local/popcorn/x86_64/lib/libc.a(__stdout_write.o)
 .debug_frame   0x00000000000019b8       0x58 0x8 /usr/local/popcorn/x86_64/lib/libc.a(__string_read.o)
 .debug_frame   0x0000000000001a10       0x40 0x8 /usr/local/popcorn/x86_64/lib/libc.a(__uflow.o)
 .debug_frame   0x0000000000001a50       0x40 0x8 /usr/local/popcorn/x86_64/lib/libc.a(fputc.o)
 .debug_frame   0x0000000000001a90       0x90 0x8 /usr/local/popcorn/x86_64/lib/libc.a(fwrite.o)
 .debug_frame   0x0000000000001b20       0x58 0x8 /usr/local/popcorn/x86_64/lib/libc.a(vfscanf.o)
 .debug_frame   0x0000000000001b78       0x30 0x8 /usr/local/popcorn/x86_64/lib/libc.a(abs.o)
 .debug_frame   0x0000000000001ba8       0x30 0x8 /usr/local/popcorn/x86_64/lib/libc.a(memchr.o)
 .debug_frame   0x0000000000001bd8       0x30 0x8 /usr/local/popcorn/x86_64/lib/libc.a(memrchr.o)
 .debug_frame   0x0000000000001c08       0x40 0x8 /usr/local/popcorn/x86_64/lib/libc.a(strdup.o)
 .debug_frame   0x0000000000001c48       0x48 0x8 /usr/local/popcorn/x86_64/lib/libc.a(__secs_to_tm.o)
 .debug_frame   0x0000000000001c90       0x48 0x8 /usr/local/popcorn/x86_64/lib/libc.a(__tm_to_secs.o)
 .debug_frame   0x0000000000001cd8      0x160 0x8 /usr/local/popcorn/x86_64/lib/libc.a(__tz.o)
 .debug_frame   0x0000000000001e38       0x30 0x8 /usr/local/popcorn/x86_64/lib/libc.a(__year_to_secs.o)
 .debug_frame   0x0000000000001e68       0x48 0x8 /usr/local/popcorn/x86_64/lib/libc.a(getenv.o)
 .debug_frame   0x0000000000001eb0       0x98 0x8 /usr/local/popcorn/x86_64/lib/libc.a(floatscan.o)
 .debug_frame   0x0000000000001f48       0x30 0x8 /usr/local/popcorn/x86_64/lib/libc.a(copysignl.o)
 .debug_frame   0x0000000000001f78       0x30 0x8 /usr/local/popcorn/x86_64/lib/libc.a(scalbn.o)
 .debug_frame   0x0000000000001fa8       0x30 0x8 /usr/local/popcorn/x86_64/lib/libc.a(scalbnl.o)
 .debug_frame   0x0000000000001fd8       0x40 0x8 /usr/local/popcorn/x86_64/lib/libc.a(mbrtowc.o)
 .debug_frame   0x0000000000002018       0x30 0x8 /usr/local/popcorn/x86_64/lib/libc.a(mbsinit.o)
 .debug_frame   0x0000000000002048       0x38 0x8 /usr/local/popcorn/x86_64/lib/libc.a(wcrtomb.o)
 .debug_frame   0x0000000000002080       0x40 0x8 /usr/local/popcorn/x86_64/lib/libc.a(__overflow.o)
 .debug_frame   0x00000000000020c0       0x58 0x8 /usr/local/popcorn/x86_64/lib/libc.a(__toread.o)
 .debug_frame   0x0000000000002118       0x48 0x8 /usr/local/popcorn/x86_64/lib/libc.a(__towrite.o)
 .debug_frame   0x0000000000002160       0x30 0x8 /usr/local/popcorn/x86_64/lib/libc.a(memcmp.o)
 .debug_frame   0x0000000000002190       0x38 0x8 /usr/local/popcorn/x86_64/lib/libc.a(strchr.o)
 .debug_frame   0x00000000000021c8       0x38 0x8 /usr/local/popcorn/x86_64/lib/libc.a(strchrnul.o)
 .debug_frame   0x0000000000002200       0x30 0x8 /usr/local/popcorn/x86_64/lib/libc.a(strncmp.o)
 .debug_frame   0x0000000000002230       0x48 0x8 /usr/local/popcorn/x86_64/lib/libc.a(__map_file.o)
 .debug_frame   0x0000000000002278       0x30 0x8 /usr/local/popcorn/x86_64/lib/libc.a(__month_to_secs.o)
 .debug_frame   0x00000000000022a8       0x58 0x8 /usr/local/popcorn/x86_64/lib/libc.a(__stdio_exit.o)
 .debug_frame   0x0000000000002300       0x50 0x8 /usr/local/popcorn/x86_64/lib/libc.a(ofl.o)
 .debug_frame   0x0000000000002350       0x88 0x8 /usr/local/popcorn/x86_64/lib/libc.a(arch_crash.o)
 .debug_frame   0x00000000000023d8       0x38 0x8 /usr/local/popcorn/x86_64/lib/libc.a(assert.o)
 .debug_frame   0x0000000000002410       0x48 0x8 /usr/local/popcorn/x86_64/lib/libc.a(getrlimit.o)
 .debug_frame   0x0000000000002458       0x40 0x8 /usr/local/popcorn/x86_64/lib/libc.a(syscall.o)
 .debug_frame   0x0000000000002498       0x68 0x8 /usr/local/popcorn/x86_64/lib/libc.a(fclose.o)
 .debug_frame   0x0000000000002500       0x48 0x8 /usr/local/popcorn/x86_64/lib/libc.a(fflush.o)
 .debug_frame   0x0000000000002548       0x40 0x8 /usr/local/popcorn/x86_64/lib/libc.a(fopen.o)
 .debug_frame   0x0000000000002588       0x38 0x8 /usr/local/popcorn/x86_64/lib/libc.a(fprintf.o)
 .debug_frame   0x00000000000025c0       0x38 0x8 /usr/local/popcorn/x86_64/lib/libc.a(fscanf.o)
 .debug_frame   0x00000000000025f8       0x90 0x8 /usr/local/popcorn/x86_64/lib/libc.a(fseek.o)
 .debug_frame   0x0000000000002688       0x40 0x8 /usr/local/popcorn/x86_64/lib/libc.a(getc.o)
 .debug_frame   0x00000000000026c8       0x30 0x8 /usr/local/popcorn/x86_64/lib/libc.a(getline.o)
 .debug_frame   0x00000000000026f8       0x58 0x8 /usr/local/popcorn/x86_64/lib/libc.a(bsearch.o)
 .debug_frame   0x0000000000002750      0x118 0x8 /usr/local/popcorn/x86_64/lib/libc.a(qsort.o)
 .debug_frame   0x0000000000002868      0x198 0x8 /usr/local/popcorn/x86_64/lib/libc.a(pthread_attr_get.o)
 .debug_frame   0x0000000000002a00       0x48 0x8 /usr/local/popcorn/x86_64/lib/libc.a(pthread_getattr_np.o)
 .debug_frame   0x0000000000002a48       0x30 0x8 /usr/local/popcorn/x86_64/lib/libc.a(pthread_getspecific.o)
 .debug_frame   0x0000000000002a78       0x88 0x8 /usr/local/popcorn/x86_64/lib/libc.a(pthread_key_create.o)
 .debug_frame   0x0000000000002b00       0x30 0x8 /usr/local/popcorn/x86_64/lib/libc.a(pthread_migrate.o)
 .debug_frame   0x0000000000002b30       0x30 0x8 /usr/local/popcorn/x86_64/lib/libc.a(pthread_self.o)
 .debug_frame   0x0000000000002b60       0x30 0x8 /usr/local/popcorn/x86_64/lib/libc.a(pthread_setspecific.o)
 .debug_frame   0x0000000000002b90       0x30 0x8 /usr/local/popcorn/x86_64/lib/libc.a(lseek.o)
 .debug_frame   0x0000000000002bc0       0x38 0x8 /usr/local/popcorn/x86_64/lib/libc.a(abort.o)
 .debug_frame   0x0000000000002bf8       0x40 0x8 /usr/local/popcorn/x86_64/lib/libc.a(raise.o)
 .debug_frame   0x0000000000002c38       0x48 0x8 /usr/local/popcorn/x86_64/lib/libc.a(__fdopen.o)
 .debug_frame   0x0000000000002c80       0x40 0x8 /usr/local/popcorn/x86_64/lib/libc.a(__fmodeflags.o)
 .debug_frame   0x0000000000002cc0       0x48 0x8 /usr/local/popcorn/x86_64/lib/libc.a(__stdio_read.o)
 .debug_frame   0x0000000000002d08       0x58 0x8 /usr/local/popcorn/x86_64/lib/libc.a(getdelim.o)
 .debug_frame   0x0000000000002d60       0x38 0x8 /usr/local/popcorn/x86_64/lib/libc.a(ofl_add.o)

.debug_aranges  0x0000000000000000      0x180
 .debug_aranges
                0x0000000000000000       0x30 0x1 /usr/local/popcorn/x86_64/lib/libc.a(memcpy.o)
 .debug_aranges
                0x0000000000000030       0x30 0x1 /usr/local/popcorn/x86_64/lib/libc.a(memset.o)
 .debug_aranges
                0x0000000000000060       0x30 0x1 /usr/local/popcorn/x86_64/lib/libc.a(syscall.o)
 .debug_aranges
                0x0000000000000090       0x30 0x1 /usr/local/popcorn/x86_64/lib/libc.a(restore.o)
 .debug_aranges
                0x00000000000000c0       0x30 0x1 /usr/local/popcorn/x86_64/lib/libc.a(__set_thread_area.o)
 .debug_aranges
                0x00000000000000f0       0x30 0x1 /usr/local/popcorn/x86_64/lib/libc.a(fabs.o)
 .debug_aranges
                0x0000000000000120       0x30 0x1 /usr/local/popcorn/x86_64/lib/libc.a(fmodl.o)
 .debug_aranges
                0x0000000000000150       0x30 0x1 /usr/local/popcorn/x86_64/lib/libc.a(memmove.o)

.note.gnu.gold-version
                0x0000000000000000       0x1c
 ** note header
                0x0000000000000000       0x10
 ** fill        0x0000000000000010        0x9
 ** zero fill   0x0000000000000019        0x3

.symtab         0x0000000000000000     0x6ae0
 ** symtab      0x0000000000000000     0x6ae0

.strtab         0x0000000000000000     0x48ca
 ** string table
                0x0000000000000000     0x48ca

.shstrtab       0x0000000000000000      0x17f
 ** string table
                0x0000000000000000      0x17f
