Archive member included because of file (symbol)

/usr/local/popcorn/aarch64/lib/libc.a(closedir.o)
                              tiny_aarch64.o (closedir)
/usr/local/popcorn/aarch64/lib/libc.a(fdopendir.o)
                              tiny_aarch64.o (fdopendir)
/usr/local/popcorn/aarch64/lib/libc.a(readdir.o)
                              tiny_aarch64.o (readdir)
/usr/local/popcorn/aarch64/lib/libc.a(__libc_start_main.o)
                              /usr/local/popcorn/aarch64/lib/crt1.o (__libc_start_main)
/usr/local/popcorn/aarch64/lib/libc.a(__errno_location.o)
                              tiny_aarch64.o (__errno_location)
/usr/local/popcorn/aarch64/lib/libc.a(exit.o)
                              tiny_aarch64.o (exit)
/usr/local/popcorn/aarch64/lib/libc.a(fcntl.o)
                              /usr/local/popcorn/aarch64/lib/libc.a(fdopendir.o) (fcntl)
/usr/local/popcorn/aarch64/lib/libc.a(open.o)
                              tiny_aarch64.o (open)
/usr/local/popcorn/aarch64/lib/libc.a(openat.o)
                              tiny_aarch64.o (openat)
/usr/local/popcorn/aarch64/lib/libc.a(libc.o)
                              /usr/local/popcorn/aarch64/lib/libc.a(__libc_start_main.o) (__hwcap)
/usr/local/popcorn/aarch64/lib/libc.a(syscall_ret.o)
                              /usr/local/popcorn/aarch64/lib/libc.a(fcntl.o) (__syscall_ret)
/usr/local/popcorn/aarch64/lib/libc.a(sendfile.o)
                              tiny_aarch64.o (sendfile)
/usr/local/popcorn/aarch64/lib/libc.a(calloc.o)
                              /usr/local/popcorn/aarch64/lib/libc.a(fdopendir.o) (calloc)
/usr/local/popcorn/aarch64/lib/libc.a(lite_malloc.o)
                              /usr/local/popcorn/aarch64/lib/libc.a(calloc.o) (__malloc0)
/usr/local/popcorn/aarch64/lib/libc.a(malloc.o)
                              /usr/local/popcorn/aarch64/lib/libc.a(closedir.o) (free)
/usr/local/popcorn/aarch64/lib/libc.a(popcorn_malloc.o)
                              /usr/local/popcorn/aarch64/lib/libc.a(calloc.o) (__popcorn_malloc0)
/usr/local/popcorn/aarch64/lib/libc.a(madvise.o)
                              /usr/local/popcorn/aarch64/lib/libc.a(malloc.o) (__madvise)
/usr/local/popcorn/aarch64/lib/libc.a(mmap.o)
                              /usr/local/popcorn/aarch64/lib/libc.a(malloc.o) (__mmap)
/usr/local/popcorn/aarch64/lib/libc.a(mremap.o)
                              /usr/local/popcorn/aarch64/lib/libc.a(malloc.o) (__mremap)
/usr/local/popcorn/aarch64/lib/libc.a(munmap.o)
                              /usr/local/popcorn/aarch64/lib/libc.a(malloc.o) (__munmap)
/usr/local/popcorn/aarch64/lib/libc.a(accept.o)
                              tiny_aarch64.o (accept)
/usr/local/popcorn/aarch64/lib/libc.a(bind.o)
                              tiny_aarch64.o (bind)
/usr/local/popcorn/aarch64/lib/libc.a(htonl.o)
                              tiny_aarch64.o (htonl)
/usr/local/popcorn/aarch64/lib/libc.a(htons.o)
                              tiny_aarch64.o (htons)
/usr/local/popcorn/aarch64/lib/libc.a(inet_ntoa.o)
                              tiny_aarch64.o (inet_ntoa)
/usr/local/popcorn/aarch64/lib/libc.a(listen.o)
                              tiny_aarch64.o (listen)
/usr/local/popcorn/aarch64/lib/libc.a(ntohs.o)
                              tiny_aarch64.o (ntohs)
/usr/local/popcorn/aarch64/lib/libc.a(setsockopt.o)
                              tiny_aarch64.o (setsockopt)
/usr/local/popcorn/aarch64/lib/libc.a(socket.o)
                              tiny_aarch64.o (socket)
/usr/local/popcorn/aarch64/lib/libc.a(fork.o)
                              tiny_aarch64.o (fork)
/usr/local/popcorn/aarch64/lib/libc.a(block.o)
                              /usr/local/popcorn/aarch64/lib/libc.a(fork.o) (__block_all_sigs)
/usr/local/popcorn/aarch64/lib/libc.a(signal.o)
                              tiny_aarch64.o (signal)
/usr/local/popcorn/aarch64/lib/libc.a(fstat.o)
                              tiny_aarch64.o (fstat)
/usr/local/popcorn/aarch64/lib/libc.a(perror.o)
                              tiny_aarch64.o (perror)
/usr/local/popcorn/aarch64/lib/libc.a(printf.o)
                              tiny_aarch64.o (printf)
/usr/local/popcorn/aarch64/lib/libc.a(snprintf.o)
                              /usr/local/popcorn/aarch64/lib/libc.a(inet_ntoa.o) (snprintf)
/usr/local/popcorn/aarch64/lib/libc.a(sprintf.o)
                              tiny_aarch64.o (sprintf)
/usr/local/popcorn/aarch64/lib/libc.a(sscanf.o)
                              tiny_aarch64.o (sscanf)
/usr/local/popcorn/aarch64/lib/libc.a(stderr.o)
                              /usr/local/popcorn/aarch64/lib/libc.a(perror.o) (stderr)
/usr/local/popcorn/aarch64/lib/libc.a(stdout.o)
                              /usr/local/popcorn/aarch64/lib/libc.a(printf.o) (stdout)
/usr/local/popcorn/aarch64/lib/libc.a(vfprintf.o)
                              /usr/local/popcorn/aarch64/lib/libc.a(printf.o) (vfprintf)
/usr/local/popcorn/aarch64/lib/libc.a(vsnprintf.o)
                              /usr/local/popcorn/aarch64/lib/libc.a(snprintf.o) (vsnprintf)
/usr/local/popcorn/aarch64/lib/libc.a(vsprintf.o)
                              /usr/local/popcorn/aarch64/lib/libc.a(sprintf.o) (vsprintf)
/usr/local/popcorn/aarch64/lib/libc.a(vsscanf.o)
                              /usr/local/popcorn/aarch64/lib/libc.a(sscanf.o) (vsscanf)
/usr/local/popcorn/aarch64/lib/libc.a(atoi.o)
                              tiny_aarch64.o (atoi)
/usr/local/popcorn/aarch64/lib/libc.a(strtol.o)
                              tiny_aarch64.o (strtoul)
/usr/local/popcorn/aarch64/lib/libc.a(memcpy.o)
                              tiny_aarch64.o (memcpy)
/usr/local/popcorn/aarch64/lib/libc.a(memset.o)
                              /usr/local/popcorn/aarch64/lib/libc.a(__libc_start_main.o) (memset)
/usr/local/popcorn/aarch64/lib/libc.a(strcmp.o)
                              tiny_aarch64.o (strcmp)
/usr/local/popcorn/aarch64/lib/libc.a(strlen.o)
                              tiny_aarch64.o (strlen)
/usr/local/popcorn/aarch64/lib/libc.a(strnlen.o)
                              /usr/local/popcorn/aarch64/lib/libc.a(vfprintf.o) (strnlen)
/usr/local/popcorn/aarch64/lib/libc.a(strrchr.o)
                              tiny_aarch64.o (strrchr)
/usr/local/popcorn/aarch64/lib/libc.a(__lock.o)
                              /usr/local/popcorn/aarch64/lib/libc.a(lite_malloc.o) (__lock)
/usr/local/popcorn/aarch64/lib/libc.a(__syscall_cp.o)
                              /usr/local/popcorn/aarch64/lib/libc.a(fcntl.o) (__syscall_cp)
/usr/local/popcorn/aarch64/lib/libc.a(__wait.o)
                              /usr/local/popcorn/aarch64/lib/libc.a(malloc.o) (__wait)
/usr/local/popcorn/aarch64/lib/libc.a(localtime.o)
                              tiny_aarch64.o (localtime)
/usr/local/popcorn/aarch64/lib/libc.a(localtime_r.o)
                              /usr/local/popcorn/aarch64/lib/libc.a(localtime.o) (__localtime_r)
/usr/local/popcorn/aarch64/lib/libc.a(strftime.o)
                              tiny_aarch64.o (strftime)
/usr/local/popcorn/aarch64/lib/libc.a(chdir.o)
                              tiny_aarch64.o (chdir)
/usr/local/popcorn/aarch64/lib/libc.a(close.o)
                              tiny_aarch64.o (close)
/usr/local/popcorn/aarch64/lib/libc.a(getcwd.o)
                              tiny_aarch64.o (getcwd)
/usr/local/popcorn/aarch64/lib/libc.a(getpid.o)
                              tiny_aarch64.o (getpid)
/usr/local/popcorn/aarch64/lib/libc.a(read.o)
                              tiny_aarch64.o (read)
/usr/local/popcorn/aarch64/lib/libc.a(write.o)
                              tiny_aarch64.o (write)
/usr/local/popcorn/aarch64/lib/libc.a(__environ.o)
                              /usr/local/popcorn/aarch64/lib/libc.a(__libc_start_main.o) (__environ)
/usr/local/popcorn/aarch64/lib/libc.a(__init_tls.o)
                              /usr/local/popcorn/aarch64/lib/libc.a(__libc_start_main.o) (__init_tls)
/usr/local/popcorn/aarch64/lib/libc.a(strerror.o)
                              /usr/local/popcorn/aarch64/lib/libc.a(perror.o) (strerror)
/usr/local/popcorn/aarch64/lib/libc.a(_Exit.o)
                              /usr/local/popcorn/aarch64/lib/libc.a(exit.o) (_Exit)
/usr/local/popcorn/aarch64/lib/libc.a(syscall.o)
                              /usr/local/popcorn/aarch64/lib/libc.a(__syscall_cp.o) (__syscall)
/usr/local/popcorn/aarch64/lib/libc.a(intscan.o)
                              /usr/local/popcorn/aarch64/lib/libc.a(strtol.o) (__intscan)
/usr/local/popcorn/aarch64/lib/libc.a(procfdname.o)
                              /usr/local/popcorn/aarch64/lib/libc.a(fstat.o) (__procfdname)
/usr/local/popcorn/aarch64/lib/libc.a(shgetc.o)
                              /usr/local/popcorn/aarch64/lib/libc.a(intscan.o) (__shgetc)
/usr/local/popcorn/aarch64/lib/libc.a(__lctrans.o)
                              /usr/local/popcorn/aarch64/lib/libc.a(strerror.o) (__lctrans)
/usr/local/popcorn/aarch64/lib/libc.a(langinfo.o)
                              /usr/local/popcorn/aarch64/lib/libc.a(strftime.o) (__nl_langinfo_l)
/usr/local/popcorn/aarch64/lib/libc.a(expand_heap.o)
                              /usr/local/popcorn/aarch64/lib/libc.a(lite_malloc.o) (__expand_heap)
/usr/local/popcorn/aarch64/lib/libc.a(__fpclassifyl.o)
                              /usr/local/popcorn/aarch64/lib/libc.a(vfprintf.o) (__fpclassifyl)
/usr/local/popcorn/aarch64/lib/libc.a(__signbitl.o)
                              /usr/local/popcorn/aarch64/lib/libc.a(vfprintf.o) (__signbitl)
/usr/local/popcorn/aarch64/lib/libc.a(frexpl.o)
                              /usr/local/popcorn/aarch64/lib/libc.a(vfprintf.o) (frexpl)
/usr/local/popcorn/aarch64/lib/libc.a(wctomb.o)
                              /usr/local/popcorn/aarch64/lib/libc.a(vfprintf.o) (wctomb)
/usr/local/popcorn/aarch64/lib/libc.a(sigaction.o)
                              /usr/local/popcorn/aarch64/lib/libc.a(signal.o) (__sigaction)
/usr/local/popcorn/aarch64/lib/libc.a(__lockfile.o)
                              /usr/local/popcorn/aarch64/lib/libc.a(perror.o) (__lockfile)
/usr/local/popcorn/aarch64/lib/libc.a(__stdio_close.o)
                              /usr/local/popcorn/aarch64/lib/libc.a(stderr.o) (__stdio_close)
/usr/local/popcorn/aarch64/lib/libc.a(__stdio_seek.o)
                              /usr/local/popcorn/aarch64/lib/libc.a(stderr.o) (__stdio_seek)
/usr/local/popcorn/aarch64/lib/libc.a(__stdio_write.o)
                              /usr/local/popcorn/aarch64/lib/libc.a(stderr.o) (__stdio_write)
/usr/local/popcorn/aarch64/lib/libc.a(__stdout_write.o)
                              /usr/local/popcorn/aarch64/lib/libc.a(stdout.o) (__stdout_write)
/usr/local/popcorn/aarch64/lib/libc.a(__string_read.o)
                              /usr/local/popcorn/aarch64/lib/libc.a(vsscanf.o) (__string_read)
/usr/local/popcorn/aarch64/lib/libc.a(__uflow.o)
                              /usr/local/popcorn/aarch64/lib/libc.a(shgetc.o) (__uflow)
/usr/local/popcorn/aarch64/lib/libc.a(fputc.o)
                              /usr/local/popcorn/aarch64/lib/libc.a(perror.o) (fputc)
/usr/local/popcorn/aarch64/lib/libc.a(fwrite.o)
                              /usr/local/popcorn/aarch64/lib/libc.a(vfprintf.o) (__fwritex)
/usr/local/popcorn/aarch64/lib/libc.a(vfscanf.o)
                              /usr/local/popcorn/aarch64/lib/libc.a(vsscanf.o) (vfscanf)
/usr/local/popcorn/aarch64/lib/libc.a(abs.o)
                              /usr/local/popcorn/aarch64/lib/libc.a(strftime.o) (abs)
/usr/local/popcorn/aarch64/lib/libc.a(memchr.o)
                              /usr/local/popcorn/aarch64/lib/libc.a(strnlen.o) (memchr)
/usr/local/popcorn/aarch64/lib/libc.a(memrchr.o)
                              /usr/local/popcorn/aarch64/lib/libc.a(strrchr.o) (__memrchr)
/usr/local/popcorn/aarch64/lib/libc.a(strdup.o)
                              /usr/local/popcorn/aarch64/lib/libc.a(getcwd.o) (strdup)
/usr/local/popcorn/aarch64/lib/libc.a(__set_thread_area.o)
                              /usr/local/popcorn/aarch64/lib/libc.a(__init_tls.o) (__set_thread_area)
/usr/local/popcorn/aarch64/lib/libc.a(__secs_to_tm.o)
                              /usr/local/popcorn/aarch64/lib/libc.a(localtime_r.o) (__secs_to_tm)
/usr/local/popcorn/aarch64/lib/libc.a(__tm_to_secs.o)
                              /usr/local/popcorn/aarch64/lib/libc.a(strftime.o) (__tm_to_secs)
/usr/local/popcorn/aarch64/lib/libc.a(__tz.o)
                              /usr/local/popcorn/aarch64/lib/libc.a(localtime_r.o) (__secs_to_zone)
/usr/local/popcorn/aarch64/lib/libc.a(__year_to_secs.o)
                              /usr/local/popcorn/aarch64/lib/libc.a(__tm_to_secs.o) (__year_to_secs)
/usr/local/popcorn/aarch64/lib/libc.a(getenv.o)
                              /usr/local/popcorn/aarch64/lib/libc.a(__tz.o) (getenv)
/usr/local/popcorn/aarch64/lib/libc.a(floatscan.o)
                              /usr/local/popcorn/aarch64/lib/libc.a(vfscanf.o) (__floatscan)
/usr/local/popcorn/aarch64/lib/libc.a(fabs.o)
                              /usr/local/popcorn/aarch64/lib/libc.a(floatscan.o) (fabs)
/usr/local/popcorn/aarch64/lib/libc.a(copysignl.o)
                              /usr/local/popcorn/aarch64/lib/libc.a(floatscan.o) (copysignl)
/usr/local/popcorn/aarch64/lib/libc.a(fmodl.o)
                              /usr/local/popcorn/aarch64/lib/libc.a(floatscan.o) (fmodl)
/usr/local/popcorn/aarch64/lib/libc.a(scalbn.o)
                              /usr/local/popcorn/aarch64/lib/libc.a(floatscan.o) (scalbn)
/usr/local/popcorn/aarch64/lib/libc.a(scalbnl.o)
                              /usr/local/popcorn/aarch64/lib/libc.a(floatscan.o) (scalbnl)
/usr/local/popcorn/aarch64/lib/libc.a(mbrtowc.o)
                              /usr/local/popcorn/aarch64/lib/libc.a(vfscanf.o) (mbrtowc)
/usr/local/popcorn/aarch64/lib/libc.a(mbsinit.o)
                              /usr/local/popcorn/aarch64/lib/libc.a(vfscanf.o) (mbsinit)
/usr/local/popcorn/aarch64/lib/libc.a(wcrtomb.o)
                              /usr/local/popcorn/aarch64/lib/libc.a(wctomb.o) (wcrtomb)
/usr/local/popcorn/aarch64/lib/libc.a(restore.o)
                              /usr/local/popcorn/aarch64/lib/libc.a(sigaction.o) (__restore)
/usr/local/popcorn/aarch64/lib/libc.a(__overflow.o)
                              /usr/local/popcorn/aarch64/lib/libc.a(fputc.o) (__overflow)
/usr/local/popcorn/aarch64/lib/libc.a(__toread.o)
                              /usr/local/popcorn/aarch64/lib/libc.a(__uflow.o) (__toread)
/usr/local/popcorn/aarch64/lib/libc.a(__towrite.o)
                              /usr/local/popcorn/aarch64/lib/libc.a(fwrite.o) (__towrite)
/usr/local/popcorn/aarch64/lib/libc.a(memcmp.o)
                              /usr/local/popcorn/aarch64/lib/libc.a(__tz.o) (memcmp)
/usr/local/popcorn/aarch64/lib/libc.a(strchr.o)
                              /usr/local/popcorn/aarch64/lib/libc.a(__tz.o) (strchr)
/usr/local/popcorn/aarch64/lib/libc.a(strchrnul.o)
                              /usr/local/popcorn/aarch64/lib/libc.a(getenv.o) (__strchrnul)
/usr/local/popcorn/aarch64/lib/libc.a(strncmp.o)
                              /usr/local/popcorn/aarch64/lib/libc.a(getenv.o) (strncmp)
/usr/local/popcorn/aarch64/lib/libc.a(__map_file.o)
                              /usr/local/popcorn/aarch64/lib/libc.a(__tz.o) (__map_file)
/usr/local/popcorn/aarch64/lib/libc.a(__month_to_secs.o)
                              /usr/local/popcorn/aarch64/lib/libc.a(__tm_to_secs.o) (__month_to_secs)
/usr/local/popcorn/aarch64/lib/libc.a(internal.o)
                              /usr/local/popcorn/aarch64/lib/libc.a(mbrtowc.o) (__fsmu8)
/usr/local/popcorn/aarch64/lib/libc.a(__stdio_exit.o)
                              /usr/local/popcorn/aarch64/lib/libc.a(__toread.o) (__stdio_exit_needed)
/usr/local/popcorn/aarch64/lib/libc.a(ofl.o)
                              /usr/local/popcorn/aarch64/lib/libc.a(__stdio_exit.o) (__ofl_lock)
/usr/local/popcorn/aarch64/lib/libmigrate.a(migrate.o)
                              tiny_aarch64.o (check_migrate)
/usr/local/popcorn/aarch64/lib/libmigrate.a(migrate_x86_64.o)
                              /usr/local/popcorn/aarch64/lib/libmigrate.a(migrate.o) (__migrate_fixup_x86_64)
/usr/local/popcorn/aarch64/lib/libmigrate.a(migrate_powerpc64.o)
                              /usr/local/popcorn/aarch64/lib/libmigrate.a(migrate.o) (__migrate_fixup_powerpc64)
/usr/local/popcorn/aarch64/lib/libmigrate.a(migrate_aarch64.o)
                              /usr/local/popcorn/aarch64/lib/libmigrate.a(migrate.o) (__migrate_fixup_aarch64)
/usr/local/popcorn/aarch64/lib/libmigrate.a(mapping.o)
                              /usr/local/popcorn/aarch64/lib/libmigrate.a(migrate.o) (get_node_mapping)
/usr/local/popcorn/aarch64/lib/libstack-transform.a(userspace.o)
                              /usr/local/popcorn/aarch64/lib/libmigrate.a(migrate.o) (st_userspace_rewrite)
/usr/local/popcorn/aarch64/lib/libstack-transform.a(init.o)
                              /usr/local/popcorn/aarch64/lib/libstack-transform.a(userspace.o) (st_destroy)
/usr/local/popcorn/aarch64/lib/libstack-transform.a(rewrite.o)
                              /usr/local/popcorn/aarch64/lib/libstack-transform.a(userspace.o) (st_rewrite_stack)
/usr/local/popcorn/aarch64/lib/libstack-transform.a(unwind.o)
                              /usr/local/popcorn/aarch64/lib/libstack-transform.a(rewrite.o) (bootstrap_first_frame)
/usr/local/popcorn/aarch64/lib/libstack-transform.a(util.o)
                              /usr/local/popcorn/aarch64/lib/libstack-transform.a(rewrite.o) (get_function_address)
/usr/local/popcorn/aarch64/lib/libstack-transform.a(properties.o)
                              /usr/local/popcorn/aarch64/lib/libstack-transform.a(util.o) (properties_aarch64)
/usr/local/popcorn/aarch64/lib/libstack-transform.a(regs.o)
                              /usr/local/popcorn/aarch64/lib/libstack-transform.a(util.o) (regs_aarch64)
/usr/local/popcorn/aarch64/lib/libstack-transform.a(properties.o)
                              /usr/local/popcorn/aarch64/lib/libstack-transform.a(util.o) (properties_powerpc64)
/usr/local/popcorn/aarch64/lib/libstack-transform.a(regs.o)
                              /usr/local/popcorn/aarch64/lib/libstack-transform.a(util.o) (regs_powerpc64)
/usr/local/popcorn/aarch64/lib/libstack-transform.a(properties.o)
                              /usr/local/popcorn/aarch64/lib/libstack-transform.a(util.o) (properties_x86_64)
/usr/local/popcorn/aarch64/lib/libstack-transform.a(regs.o)
                              /usr/local/popcorn/aarch64/lib/libstack-transform.a(util.o) (regs_x86_64)
/usr/local/popcorn/aarch64/lib/libstack-transform.a(data.o)
                              /usr/local/popcorn/aarch64/lib/libstack-transform.a(rewrite.o) (get_savedfbp_loc)
/usr/local/popcorn/aarch64/lib/libelf.a(begin.o)
                              /usr/local/popcorn/aarch64/lib/libstack-transform.a(init.o) (elf_begin)
/usr/local/popcorn/aarch64/lib/libelf.a(end.o)
                              /usr/local/popcorn/aarch64/lib/libstack-transform.a(init.o) (elf_end)
/usr/local/popcorn/aarch64/lib/libelf.a(getdata.o)
                              /usr/local/popcorn/aarch64/lib/libstack-transform.a(util.o) (elf_getdata)
/usr/local/popcorn/aarch64/lib/libelf.a(getident.o)
                              /usr/local/popcorn/aarch64/lib/libstack-transform.a(init.o) (elf_getident)
/usr/local/popcorn/aarch64/lib/libelf.a(nextscn.o)
                              /usr/local/popcorn/aarch64/lib/libstack-transform.a(util.o) (elf_nextscn)
/usr/local/popcorn/aarch64/lib/libelf.a(strptr.o)
                              /usr/local/popcorn/aarch64/lib/libstack-transform.a(util.o) (elf_strptr)
/usr/local/popcorn/aarch64/lib/libelf.a(version.o)
                              /usr/local/popcorn/aarch64/lib/libstack-transform.a(userspace.o) (elf_version)
/usr/local/popcorn/aarch64/lib/libelf.a(32.getehdr.o)
                              /usr/local/popcorn/aarch64/lib/libstack-transform.a(init.o) (elf64_getehdr)
/usr/local/popcorn/aarch64/lib/libelf.a(32.xlatetof.o)
                              /usr/local/popcorn/aarch64/lib/libelf.a(getdata.o) (_elf32_xltsize)
/usr/local/popcorn/aarch64/lib/libelf.a(cook.o)
                              /usr/local/popcorn/aarch64/lib/libelf.a(getident.o) (_elf_cook)
/usr/local/popcorn/aarch64/lib/libelf.a(data.o)
                              /usr/local/popcorn/aarch64/lib/libelf.a(begin.o) (_elf_errno)
/usr/local/popcorn/aarch64/lib/libelf.a(input.o)
                              /usr/local/popcorn/aarch64/lib/libelf.a(begin.o) (_elf_read)
/usr/local/popcorn/aarch64/lib/libelf.a(x.elfext.o)
                              /usr/local/popcorn/aarch64/lib/libstack-transform.a(util.o) (elf_getshdrstrndx)
/usr/local/popcorn/aarch64/lib/libelf.a(64.xlatetof.o)
                              /usr/local/popcorn/aarch64/lib/libelf.a(getdata.o) (_elf64_xltsize)
/usr/local/popcorn/aarch64/lib/libelf.a(gelfshdr.o)
                              /usr/local/popcorn/aarch64/lib/libstack-transform.a(util.o) (gelf_getshdr)
/usr/local/popcorn/aarch64/lib/libelf.a(swap64.o)
                              /usr/local/popcorn/aarch64/lib/libelf.a(64.xlatetof.o) (_elf_load_i64L)
/usr/local/popcorn/aarch64/lib/libelf.a(verdef_32_tof.o)
                              /usr/local/popcorn/aarch64/lib/libelf.a(32.xlatetof.o) (_elf_verdef_32L11_tof)
/usr/local/popcorn/aarch64/lib/libelf.a(verdef_32_tom.o)
                              /usr/local/popcorn/aarch64/lib/libelf.a(32.xlatetof.o) (_elf_verdef_32L11_tom)
/usr/local/popcorn/aarch64/lib/libelf.a(verdef_64_tof.o)
                              /usr/local/popcorn/aarch64/lib/libelf.a(64.xlatetof.o) (_elf_verdef_64L11_tof)
/usr/local/popcorn/aarch64/lib/libelf.a(verdef_64_tom.o)
                              /usr/local/popcorn/aarch64/lib/libelf.a(64.xlatetof.o) (_elf_verdef_64L11_tom)
/usr/local/popcorn/aarch64/lib/libelf.a(getscn.o)
                              /usr/local/popcorn/aarch64/lib/libelf.a(strptr.o) (elf_getscn)
/usr/local/popcorn/aarch64/lib/libelf.a(newscn.o)
                              /usr/local/popcorn/aarch64/lib/libelf.a(x.elfext.o) (_elf_first_scn)
/usr/local/popcorn/aarch64/lib/libelf.a(32.fsize.o)
                              /usr/local/popcorn/aarch64/lib/libelf.a(cook.o) (_elf_fmsize)
/usr/local/popcorn/aarch64/lib/libc.a(arch_crash.o)
                              /usr/local/popcorn/aarch64/lib/libmigrate.a(migrate_aarch64.o) (crash_aarch64)
/usr/local/popcorn/aarch64/lib/libc.a(assert.o)
                              /usr/local/popcorn/aarch64/lib/libmigrate.a(migrate.o) (__assert_fail)
/usr/local/popcorn/aarch64/lib/libc.a(getrlimit.o)
                              /usr/local/popcorn/aarch64/lib/libstack-transform.a(userspace.o) (getrlimit)
/usr/local/popcorn/aarch64/lib/libc.a(syscall.o)
                              /usr/local/popcorn/aarch64/lib/libmigrate.a(migrate.o) (syscall)
/usr/local/popcorn/aarch64/lib/libc.a(fclose.o)
                              /usr/local/popcorn/aarch64/lib/libmigrate.a(mapping.o) (fclose)
/usr/local/popcorn/aarch64/lib/libc.a(fflush.o)
                              /usr/local/popcorn/aarch64/lib/libc.a(assert.o) (fflush)
/usr/local/popcorn/aarch64/lib/libc.a(fopen.o)
                              /usr/local/popcorn/aarch64/lib/libmigrate.a(mapping.o) (fopen)
/usr/local/popcorn/aarch64/lib/libc.a(fprintf.o)
                              /usr/local/popcorn/aarch64/lib/libstack-transform.a(rewrite.o) (fprintf)
/usr/local/popcorn/aarch64/lib/libc.a(fscanf.o)
                              /usr/local/popcorn/aarch64/lib/libmigrate.a(mapping.o) (fscanf)
/usr/local/popcorn/aarch64/lib/libc.a(fseek.o)
                              /usr/local/popcorn/aarch64/lib/libmigrate.a(mapping.o) (fseek)
/usr/local/popcorn/aarch64/lib/libc.a(getc.o)
                              /usr/local/popcorn/aarch64/lib/libmigrate.a(mapping.o) (getc)
/usr/local/popcorn/aarch64/lib/libc.a(getline.o)
                              /usr/local/popcorn/aarch64/lib/libstack-transform.a(userspace.o) (getline)
/usr/local/popcorn/aarch64/lib/libc.a(bsearch.o)
                              /usr/local/popcorn/aarch64/lib/libmigrate.a(mapping.o) (bsearch)
/usr/local/popcorn/aarch64/lib/libc.a(qsort.o)
                              /usr/local/popcorn/aarch64/lib/libmigrate.a(mapping.o) (qsort)
/usr/local/popcorn/aarch64/lib/libc.a(pthread_attr_get.o)
                              /usr/local/popcorn/aarch64/lib/libstack-transform.a(userspace.o) (pthread_attr_getstack)
/usr/local/popcorn/aarch64/lib/libc.a(pthread_getattr_np.o)
                              /usr/local/popcorn/aarch64/lib/libstack-transform.a(userspace.o) (pthread_getattr_np)
/usr/local/popcorn/aarch64/lib/libc.a(pthread_getspecific.o)
                              /usr/local/popcorn/aarch64/lib/libstack-transform.a(userspace.o) (pthread_getspecific)
/usr/local/popcorn/aarch64/lib/libc.a(pthread_key_create.o)
                              /usr/local/popcorn/aarch64/lib/libstack-transform.a(userspace.o) (pthread_key_create)
/usr/local/popcorn/aarch64/lib/libc.a(pthread_migrate.o)
                              /usr/local/popcorn/aarch64/lib/libmigrate.a(migrate.o) (pthread_migrate_args)
/usr/local/popcorn/aarch64/lib/libc.a(pthread_self.o)
                              /usr/local/popcorn/aarch64/lib/libstack-transform.a(userspace.o) (pthread_self)
/usr/local/popcorn/aarch64/lib/libc.a(pthread_setspecific.o)
                              /usr/local/popcorn/aarch64/lib/libstack-transform.a(userspace.o) (pthread_setspecific)
/usr/local/popcorn/aarch64/lib/libc.a(lseek.o)
                              /usr/local/popcorn/aarch64/lib/libelf.a(begin.o) (lseek)
/usr/local/popcorn/aarch64/lib/libc.a(abort.o)
                              /usr/local/popcorn/aarch64/lib/libc.a(assert.o) (abort)
/usr/local/popcorn/aarch64/lib/libc.a(raise.o)
                              /usr/local/popcorn/aarch64/lib/libc.a(abort.o) (raise)
/usr/local/popcorn/aarch64/lib/libc.a(__fdopen.o)
                              /usr/local/popcorn/aarch64/lib/libc.a(fopen.o) (__fdopen)
/usr/local/popcorn/aarch64/lib/libc.a(__fmodeflags.o)
                              /usr/local/popcorn/aarch64/lib/libc.a(fopen.o) (__fmodeflags)
/usr/local/popcorn/aarch64/lib/libc.a(__stdio_read.o)
                              /usr/local/popcorn/aarch64/lib/libc.a(__fdopen.o) (__stdio_read)
/usr/local/popcorn/aarch64/lib/libc.a(getdelim.o)
                              /usr/local/popcorn/aarch64/lib/libc.a(getline.o) (getdelim)
/usr/local/popcorn/aarch64/lib/libc.a(ofl_add.o)
                              /usr/local/popcorn/aarch64/lib/libc.a(__fdopen.o) (__ofl_add)
/usr/lib/gcc-cross/aarch64-linux-gnu/6/libgcc.a(addtf3.o)
                              /usr/local/popcorn/aarch64/lib/libc.a(vfprintf.o) (__addtf3)
/usr/lib/gcc-cross/aarch64-linux-gnu/6/libgcc.a(divtf3.o)
                              /usr/local/popcorn/aarch64/lib/libc.a(floatscan.o) (__divtf3)
/usr/lib/gcc-cross/aarch64-linux-gnu/6/libgcc.a(eqtf2.o)
                              /usr/local/popcorn/aarch64/lib/libc.a(vfprintf.o) (__eqtf2)
/usr/lib/gcc-cross/aarch64-linux-gnu/6/libgcc.a(getf2.o)
                              /usr/local/popcorn/aarch64/lib/libc.a(fmodl.o) (__gttf2)
/usr/lib/gcc-cross/aarch64-linux-gnu/6/libgcc.a(letf2.o)
                              /usr/local/popcorn/aarch64/lib/libc.a(floatscan.o) (__lttf2)
/usr/lib/gcc-cross/aarch64-linux-gnu/6/libgcc.a(multf3.o)
                              /usr/local/popcorn/aarch64/lib/libc.a(vfprintf.o) (__multf3)
/usr/lib/gcc-cross/aarch64-linux-gnu/6/libgcc.a(subtf3.o)
                              /usr/local/popcorn/aarch64/lib/libc.a(vfprintf.o) (__subtf3)
/usr/lib/gcc-cross/aarch64-linux-gnu/6/libgcc.a(unordtf2.o)
                              /usr/local/popcorn/aarch64/lib/libc.a(vfprintf.o) (__unordtf2)
/usr/lib/gcc-cross/aarch64-linux-gnu/6/libgcc.a(fixtfsi.o)
                              /usr/local/popcorn/aarch64/lib/libc.a(vfprintf.o) (__fixtfsi)
/usr/lib/gcc-cross/aarch64-linux-gnu/6/libgcc.a(fixunstfsi.o)
                              /usr/local/popcorn/aarch64/lib/libc.a(vfprintf.o) (__fixunstfsi)
/usr/lib/gcc-cross/aarch64-linux-gnu/6/libgcc.a(floatsitf.o)
                              /usr/local/popcorn/aarch64/lib/libc.a(vfprintf.o) (__floatsitf)
/usr/lib/gcc-cross/aarch64-linux-gnu/6/libgcc.a(floatunsitf.o)
                              /usr/local/popcorn/aarch64/lib/libc.a(vfprintf.o) (__floatunsitf)
/usr/lib/gcc-cross/aarch64-linux-gnu/6/libgcc.a(extendsftf2.o)
                              /usr/local/popcorn/aarch64/lib/libc.a(floatscan.o) (__extendsftf2)
/usr/lib/gcc-cross/aarch64-linux-gnu/6/libgcc.a(extenddftf2.o)
                              /usr/local/popcorn/aarch64/lib/libc.a(vfprintf.o) (__extenddftf2)
/usr/lib/gcc-cross/aarch64-linux-gnu/6/libgcc.a(trunctfsf2.o)
                              /usr/local/popcorn/aarch64/lib/libc.a(vfscanf.o) (__trunctfsf2)
/usr/lib/gcc-cross/aarch64-linux-gnu/6/libgcc.a(trunctfdf2.o)
                              /usr/local/popcorn/aarch64/lib/libc.a(vfscanf.o) (__trunctfdf2)
/usr/lib/gcc-cross/aarch64-linux-gnu/6/libgcc.a(sfp-exceptions.o)
                              /usr/lib/gcc-cross/aarch64-linux-gnu/6/libgcc.a(addtf3.o) (__sfp_handle_exceptions)

Allocating common symbols
Common symbol       size              file

__libc              0x70              /usr/local/popcorn/aarch64/lib/libc.a(libc.o)
status              0x10              /usr/local/popcorn/aarch64/lib/libmigrate.a(migrate.o)
__hwcap             0x8               /usr/local/popcorn/aarch64/lib/libc.a(libc.o)
__sysinfo           0x8               /usr/local/popcorn/aarch64/lib/libc.a(libc.o)

Discarded input sections

 .note.GNU-stack
                0x0000000000000000        0x0 0x1 tiny_aarch64.o
 .note.GNU-stack
                0x0000000000000000        0x0 0x1 /usr/local/popcorn/aarch64/lib/crt1.o
 .note.GNU-stack
                0x0000000000000000        0x0 0x1 /usr/local/popcorn/aarch64/lib/libc.a(closedir.o)
 .note.GNU-stack
                0x0000000000000000        0x0 0x1 /usr/local/popcorn/aarch64/lib/libc.a(fdopendir.o)
 .note.GNU-stack
                0x0000000000000000        0x0 0x1 /usr/local/popcorn/aarch64/lib/libc.a(readdir.o)
 .note.GNU-stack
                0x0000000000000000        0x0 0x1 /usr/local/popcorn/aarch64/lib/libc.a(__libc_start_main.o)
 .note.GNU-stack
                0x0000000000000000        0x0 0x1 /usr/local/popcorn/aarch64/lib/libc.a(__errno_location.o)
 .note.GNU-stack
                0x0000000000000000        0x0 0x1 /usr/local/popcorn/aarch64/lib/libc.a(exit.o)
 .note.GNU-stack
                0x0000000000000000        0x0 0x1 /usr/local/popcorn/aarch64/lib/libc.a(fcntl.o)
 .note.GNU-stack
                0x0000000000000000        0x0 0x1 /usr/local/popcorn/aarch64/lib/libc.a(open.o)
 .note.GNU-stack
                0x0000000000000000        0x0 0x1 /usr/local/popcorn/aarch64/lib/libc.a(openat.o)
 .note.GNU-stack
                0x0000000000000000        0x0 0x1 /usr/local/popcorn/aarch64/lib/libc.a(libc.o)
 .note.GNU-stack
                0x0000000000000000        0x0 0x1 /usr/local/popcorn/aarch64/lib/libc.a(syscall_ret.o)
 .note.GNU-stack
                0x0000000000000000        0x0 0x1 /usr/local/popcorn/aarch64/lib/libc.a(sendfile.o)
 .note.GNU-stack
                0x0000000000000000        0x0 0x1 /usr/local/popcorn/aarch64/lib/libc.a(calloc.o)
 .note.GNU-stack
                0x0000000000000000        0x0 0x1 /usr/local/popcorn/aarch64/lib/libc.a(lite_malloc.o)
 .note.GNU-stack
                0x0000000000000000        0x0 0x1 /usr/local/popcorn/aarch64/lib/libc.a(malloc.o)
 .note.GNU-stack
                0x0000000000000000        0x0 0x1 /usr/local/popcorn/aarch64/lib/libc.a(popcorn_malloc.o)
 .note.GNU-stack
                0x0000000000000000        0x0 0x1 /usr/local/popcorn/aarch64/lib/libc.a(madvise.o)
 .note.GNU-stack
                0x0000000000000000        0x0 0x1 /usr/local/popcorn/aarch64/lib/libc.a(mmap.o)
 .note.GNU-stack
                0x0000000000000000        0x0 0x1 /usr/local/popcorn/aarch64/lib/libc.a(mremap.o)
 .note.GNU-stack
                0x0000000000000000        0x0 0x1 /usr/local/popcorn/aarch64/lib/libc.a(munmap.o)
 .note.GNU-stack
                0x0000000000000000        0x0 0x1 /usr/local/popcorn/aarch64/lib/libc.a(accept.o)
 .note.GNU-stack
                0x0000000000000000        0x0 0x1 /usr/local/popcorn/aarch64/lib/libc.a(bind.o)
 .note.GNU-stack
                0x0000000000000000        0x0 0x1 /usr/local/popcorn/aarch64/lib/libc.a(htonl.o)
 .note.GNU-stack
                0x0000000000000000        0x0 0x1 /usr/local/popcorn/aarch64/lib/libc.a(htons.o)
 .note.GNU-stack
                0x0000000000000000        0x0 0x1 /usr/local/popcorn/aarch64/lib/libc.a(inet_ntoa.o)
 .note.GNU-stack
                0x0000000000000000        0x0 0x1 /usr/local/popcorn/aarch64/lib/libc.a(listen.o)
 .note.GNU-stack
                0x0000000000000000        0x0 0x1 /usr/local/popcorn/aarch64/lib/libc.a(ntohs.o)
 .note.GNU-stack
                0x0000000000000000        0x0 0x1 /usr/local/popcorn/aarch64/lib/libc.a(setsockopt.o)
 .note.GNU-stack
                0x0000000000000000        0x0 0x1 /usr/local/popcorn/aarch64/lib/libc.a(socket.o)
 .note.GNU-stack
                0x0000000000000000        0x0 0x1 /usr/local/popcorn/aarch64/lib/libc.a(fork.o)
 .note.GNU-stack
                0x0000000000000000        0x0 0x1 /usr/local/popcorn/aarch64/lib/libc.a(block.o)
 .note.GNU-stack
                0x0000000000000000        0x0 0x1 /usr/local/popcorn/aarch64/lib/libc.a(signal.o)
 .note.GNU-stack
                0x0000000000000000        0x0 0x1 /usr/local/popcorn/aarch64/lib/libc.a(fstat.o)
 .note.GNU-stack
                0x0000000000000000        0x0 0x1 /usr/local/popcorn/aarch64/lib/libc.a(perror.o)
 .note.GNU-stack
                0x0000000000000000        0x0 0x1 /usr/local/popcorn/aarch64/lib/libc.a(printf.o)
 .note.GNU-stack
                0x0000000000000000        0x0 0x1 /usr/local/popcorn/aarch64/lib/libc.a(snprintf.o)
 .note.GNU-stack
                0x0000000000000000        0x0 0x1 /usr/local/popcorn/aarch64/lib/libc.a(sprintf.o)
 .note.GNU-stack
                0x0000000000000000        0x0 0x1 /usr/local/popcorn/aarch64/lib/libc.a(sscanf.o)
 .note.GNU-stack
                0x0000000000000000        0x0 0x1 /usr/local/popcorn/aarch64/lib/libc.a(stderr.o)
 .note.GNU-stack
                0x0000000000000000        0x0 0x1 /usr/local/popcorn/aarch64/lib/libc.a(stdout.o)
 .note.GNU-stack
                0x0000000000000000        0x0 0x1 /usr/local/popcorn/aarch64/lib/libc.a(vfprintf.o)
 .note.GNU-stack
                0x0000000000000000        0x0 0x1 /usr/local/popcorn/aarch64/lib/libc.a(vsnprintf.o)
 .note.GNU-stack
                0x0000000000000000        0x0 0x1 /usr/local/popcorn/aarch64/lib/libc.a(vsprintf.o)
 .note.GNU-stack
                0x0000000000000000        0x0 0x1 /usr/local/popcorn/aarch64/lib/libc.a(vsscanf.o)
 .note.GNU-stack
                0x0000000000000000        0x0 0x1 /usr/local/popcorn/aarch64/lib/libc.a(atoi.o)
 .note.GNU-stack
                0x0000000000000000        0x0 0x1 /usr/local/popcorn/aarch64/lib/libc.a(strtol.o)
 .note.GNU-stack
                0x0000000000000000        0x0 0x1 /usr/local/popcorn/aarch64/lib/libc.a(memcpy.o)
 .note.GNU-stack
                0x0000000000000000        0x0 0x1 /usr/local/popcorn/aarch64/lib/libc.a(memset.o)
 .note.GNU-stack
                0x0000000000000000        0x0 0x1 /usr/local/popcorn/aarch64/lib/libc.a(strcmp.o)
 .note.GNU-stack
                0x0000000000000000        0x0 0x1 /usr/local/popcorn/aarch64/lib/libc.a(strlen.o)
 .note.GNU-stack
                0x0000000000000000        0x0 0x1 /usr/local/popcorn/aarch64/lib/libc.a(strnlen.o)
 .note.GNU-stack
                0x0000000000000000        0x0 0x1 /usr/local/popcorn/aarch64/lib/libc.a(strrchr.o)
 .note.GNU-stack
                0x0000000000000000        0x0 0x1 /usr/local/popcorn/aarch64/lib/libc.a(__lock.o)
 .note.GNU-stack
                0x0000000000000000        0x0 0x1 /usr/local/popcorn/aarch64/lib/libc.a(__syscall_cp.o)
 .note.GNU-stack
                0x0000000000000000        0x0 0x1 /usr/local/popcorn/aarch64/lib/libc.a(__wait.o)
 .note.GNU-stack
                0x0000000000000000        0x0 0x1 /usr/local/popcorn/aarch64/lib/libc.a(localtime.o)
 .note.GNU-stack
                0x0000000000000000        0x0 0x1 /usr/local/popcorn/aarch64/lib/libc.a(localtime_r.o)
 .note.GNU-stack
                0x0000000000000000        0x0 0x1 /usr/local/popcorn/aarch64/lib/libc.a(strftime.o)
 .note.GNU-stack
                0x0000000000000000        0x0 0x1 /usr/local/popcorn/aarch64/lib/libc.a(chdir.o)
 .note.GNU-stack
                0x0000000000000000        0x0 0x1 /usr/local/popcorn/aarch64/lib/libc.a(close.o)
 .note.GNU-stack
                0x0000000000000000        0x0 0x1 /usr/local/popcorn/aarch64/lib/libc.a(getcwd.o)
 .note.GNU-stack
                0x0000000000000000        0x0 0x1 /usr/local/popcorn/aarch64/lib/libc.a(getpid.o)
 .note.GNU-stack
                0x0000000000000000        0x0 0x1 /usr/local/popcorn/aarch64/lib/libc.a(read.o)
 .note.GNU-stack
                0x0000000000000000        0x0 0x1 /usr/local/popcorn/aarch64/lib/libc.a(write.o)
 .note.GNU-stack
                0x0000000000000000        0x0 0x1 /usr/local/popcorn/aarch64/lib/libc.a(__environ.o)
 .note.GNU-stack
                0x0000000000000000        0x0 0x1 /usr/local/popcorn/aarch64/lib/libc.a(__init_tls.o)
 .note.GNU-stack
                0x0000000000000000        0x0 0x1 /usr/local/popcorn/aarch64/lib/libc.a(strerror.o)
 .note.GNU-stack
                0x0000000000000000        0x0 0x1 /usr/local/popcorn/aarch64/lib/libc.a(_Exit.o)
 .note.GNU-stack
                0x0000000000000000        0x0 0x1 /usr/local/popcorn/aarch64/lib/libc.a(syscall.o)
 .note.GNU-stack
                0x0000000000000000        0x0 0x1 /usr/local/popcorn/aarch64/lib/libc.a(intscan.o)
 .note.GNU-stack
                0x0000000000000000        0x0 0x1 /usr/local/popcorn/aarch64/lib/libc.a(procfdname.o)
 .note.GNU-stack
                0x0000000000000000        0x0 0x1 /usr/local/popcorn/aarch64/lib/libc.a(shgetc.o)
 .note.GNU-stack
                0x0000000000000000        0x0 0x1 /usr/local/popcorn/aarch64/lib/libc.a(__lctrans.o)
 .note.GNU-stack
                0x0000000000000000        0x0 0x1 /usr/local/popcorn/aarch64/lib/libc.a(langinfo.o)
 .note.GNU-stack
                0x0000000000000000        0x0 0x1 /usr/local/popcorn/aarch64/lib/libc.a(expand_heap.o)
 .note.GNU-stack
                0x0000000000000000        0x0 0x1 /usr/local/popcorn/aarch64/lib/libc.a(__fpclassifyl.o)
 .note.GNU-stack
                0x0000000000000000        0x0 0x1 /usr/local/popcorn/aarch64/lib/libc.a(__signbitl.o)
 .note.GNU-stack
                0x0000000000000000        0x0 0x1 /usr/local/popcorn/aarch64/lib/libc.a(frexpl.o)
 .note.GNU-stack
                0x0000000000000000        0x0 0x1 /usr/local/popcorn/aarch64/lib/libc.a(wctomb.o)
 .note.GNU-stack
                0x0000000000000000        0x0 0x1 /usr/local/popcorn/aarch64/lib/libc.a(sigaction.o)
 .note.GNU-stack
                0x0000000000000000        0x0 0x1 /usr/local/popcorn/aarch64/lib/libc.a(__lockfile.o)
 .note.GNU-stack
                0x0000000000000000        0x0 0x1 /usr/local/popcorn/aarch64/lib/libc.a(__stdio_close.o)
 .note.GNU-stack
                0x0000000000000000        0x0 0x1 /usr/local/popcorn/aarch64/lib/libc.a(__stdio_seek.o)
 .note.GNU-stack
                0x0000000000000000        0x0 0x1 /usr/local/popcorn/aarch64/lib/libc.a(__stdio_write.o)
 .note.GNU-stack
                0x0000000000000000        0x0 0x1 /usr/local/popcorn/aarch64/lib/libc.a(__stdout_write.o)
 .note.GNU-stack
                0x0000000000000000        0x0 0x1 /usr/local/popcorn/aarch64/lib/libc.a(__string_read.o)
 .note.GNU-stack
                0x0000000000000000        0x0 0x1 /usr/local/popcorn/aarch64/lib/libc.a(__uflow.o)
 .note.GNU-stack
                0x0000000000000000        0x0 0x1 /usr/local/popcorn/aarch64/lib/libc.a(fputc.o)
 .note.GNU-stack
                0x0000000000000000        0x0 0x1 /usr/local/popcorn/aarch64/lib/libc.a(fwrite.o)
 .note.GNU-stack
                0x0000000000000000        0x0 0x1 /usr/local/popcorn/aarch64/lib/libc.a(vfscanf.o)
 .note.GNU-stack
                0x0000000000000000        0x0 0x1 /usr/local/popcorn/aarch64/lib/libc.a(abs.o)
 .note.GNU-stack
                0x0000000000000000        0x0 0x1 /usr/local/popcorn/aarch64/lib/libc.a(memchr.o)
 .note.GNU-stack
                0x0000000000000000        0x0 0x1 /usr/local/popcorn/aarch64/lib/libc.a(memrchr.o)
 .note.GNU-stack
                0x0000000000000000        0x0 0x1 /usr/local/popcorn/aarch64/lib/libc.a(strdup.o)
 .note.GNU-stack
                0x0000000000000000        0x0 0x1 /usr/local/popcorn/aarch64/lib/libc.a(__set_thread_area.o)
 .note.GNU-stack
                0x0000000000000000        0x0 0x1 /usr/local/popcorn/aarch64/lib/libc.a(__secs_to_tm.o)
 .note.GNU-stack
                0x0000000000000000        0x0 0x1 /usr/local/popcorn/aarch64/lib/libc.a(__tm_to_secs.o)
 .note.GNU-stack
                0x0000000000000000        0x0 0x1 /usr/local/popcorn/aarch64/lib/libc.a(__tz.o)
 .note.GNU-stack
                0x0000000000000000        0x0 0x1 /usr/local/popcorn/aarch64/lib/libc.a(__year_to_secs.o)
 .note.GNU-stack
                0x0000000000000000        0x0 0x1 /usr/local/popcorn/aarch64/lib/libc.a(getenv.o)
 .note.GNU-stack
                0x0000000000000000        0x0 0x1 /usr/local/popcorn/aarch64/lib/libc.a(floatscan.o)
 .note.GNU-stack
                0x0000000000000000        0x0 0x1 /usr/local/popcorn/aarch64/lib/libc.a(fabs.o)
 .note.GNU-stack
                0x0000000000000000        0x0 0x1 /usr/local/popcorn/aarch64/lib/libc.a(copysignl.o)
 .note.GNU-stack
                0x0000000000000000        0x0 0x1 /usr/local/popcorn/aarch64/lib/libc.a(fmodl.o)
 .note.GNU-stack
                0x0000000000000000        0x0 0x1 /usr/local/popcorn/aarch64/lib/libc.a(scalbn.o)
 .note.GNU-stack
                0x0000000000000000        0x0 0x1 /usr/local/popcorn/aarch64/lib/libc.a(scalbnl.o)
 .note.GNU-stack
                0x0000000000000000        0x0 0x1 /usr/local/popcorn/aarch64/lib/libc.a(mbrtowc.o)
 .note.GNU-stack
                0x0000000000000000        0x0 0x1 /usr/local/popcorn/aarch64/lib/libc.a(mbsinit.o)
 .note.GNU-stack
                0x0000000000000000        0x0 0x1 /usr/local/popcorn/aarch64/lib/libc.a(wcrtomb.o)
 .note.GNU-stack
                0x0000000000000000        0x0 0x1 /usr/local/popcorn/aarch64/lib/libc.a(restore.o)
 .note.GNU-stack
                0x0000000000000000        0x0 0x1 /usr/local/popcorn/aarch64/lib/libc.a(__overflow.o)
 .note.GNU-stack
                0x0000000000000000        0x0 0x1 /usr/local/popcorn/aarch64/lib/libc.a(__toread.o)
 .note.GNU-stack
                0x0000000000000000        0x0 0x1 /usr/local/popcorn/aarch64/lib/libc.a(__towrite.o)
 .note.GNU-stack
                0x0000000000000000        0x0 0x1 /usr/local/popcorn/aarch64/lib/libc.a(memcmp.o)
 .note.GNU-stack
                0x0000000000000000        0x0 0x1 /usr/local/popcorn/aarch64/lib/libc.a(strchr.o)
 .note.GNU-stack
                0x0000000000000000        0x0 0x1 /usr/local/popcorn/aarch64/lib/libc.a(strchrnul.o)
 .note.GNU-stack
                0x0000000000000000        0x0 0x1 /usr/local/popcorn/aarch64/lib/libc.a(strncmp.o)
 .note.GNU-stack
                0x0000000000000000        0x0 0x1 /usr/local/popcorn/aarch64/lib/libc.a(__map_file.o)
 .note.GNU-stack
                0x0000000000000000        0x0 0x1 /usr/local/popcorn/aarch64/lib/libc.a(__month_to_secs.o)
 .note.GNU-stack
                0x0000000000000000        0x0 0x1 /usr/local/popcorn/aarch64/lib/libc.a(internal.o)
 .note.GNU-stack
                0x0000000000000000        0x0 0x1 /usr/local/popcorn/aarch64/lib/libc.a(__stdio_exit.o)
 .note.GNU-stack
                0x0000000000000000        0x0 0x1 /usr/local/popcorn/aarch64/lib/libc.a(ofl.o)
 .note.GNU-stack
                0x0000000000000000        0x0 0x1 /usr/local/popcorn/aarch64/lib/libmigrate.a(migrate.o)
 .note.GNU-stack
                0x0000000000000000        0x0 0x1 /usr/local/popcorn/aarch64/lib/libmigrate.a(mapping.o)
 .note.GNU-stack
                0x0000000000000000        0x0 0x1 /usr/local/popcorn/aarch64/lib/libstack-transform.a(userspace.o)
 .note.GNU-stack
                0x0000000000000000        0x0 0x1 /usr/local/popcorn/aarch64/lib/libstack-transform.a(init.o)
 .note.GNU-stack
                0x0000000000000000        0x0 0x1 /usr/local/popcorn/aarch64/lib/libstack-transform.a(rewrite.o)
 .note.GNU-stack
                0x0000000000000000        0x0 0x1 /usr/local/popcorn/aarch64/lib/libstack-transform.a(unwind.o)
 .note.GNU-stack
                0x0000000000000000        0x0 0x1 /usr/local/popcorn/aarch64/lib/libstack-transform.a(util.o)
 .note.GNU-stack
                0x0000000000000000        0x0 0x1 /usr/local/popcorn/aarch64/lib/libstack-transform.a(properties.o)
 .note.GNU-stack
                0x0000000000000000        0x0 0x1 /usr/local/popcorn/aarch64/lib/libstack-transform.a(regs.o)
 .note.GNU-stack
                0x0000000000000000        0x0 0x1 /usr/local/popcorn/aarch64/lib/libstack-transform.a(properties.o)
 .note.GNU-stack
                0x0000000000000000        0x0 0x1 /usr/local/popcorn/aarch64/lib/libstack-transform.a(regs.o)
 .note.GNU-stack
                0x0000000000000000        0x0 0x1 /usr/local/popcorn/aarch64/lib/libstack-transform.a(properties.o)
 .note.GNU-stack
                0x0000000000000000        0x0 0x1 /usr/local/popcorn/aarch64/lib/libstack-transform.a(regs.o)
 .note.GNU-stack
                0x0000000000000000        0x0 0x1 /usr/local/popcorn/aarch64/lib/libstack-transform.a(data.o)
 .note.GNU-stack
                0x0000000000000000        0x0 0x1 /usr/local/popcorn/aarch64/lib/libelf.a(begin.o)
 .note.GNU-stack
                0x0000000000000000        0x0 0x1 /usr/local/popcorn/aarch64/lib/libelf.a(end.o)
 .note.GNU-stack
                0x0000000000000000        0x0 0x1 /usr/local/popcorn/aarch64/lib/libelf.a(getdata.o)
 .note.GNU-stack
                0x0000000000000000        0x0 0x1 /usr/local/popcorn/aarch64/lib/libelf.a(getident.o)
 .note.GNU-stack
                0x0000000000000000        0x0 0x1 /usr/local/popcorn/aarch64/lib/libelf.a(nextscn.o)
 .note.GNU-stack
                0x0000000000000000        0x0 0x1 /usr/local/popcorn/aarch64/lib/libelf.a(strptr.o)
 .note.GNU-stack
                0x0000000000000000        0x0 0x1 /usr/local/popcorn/aarch64/lib/libelf.a(version.o)
 .note.GNU-stack
                0x0000000000000000        0x0 0x1 /usr/local/popcorn/aarch64/lib/libelf.a(32.getehdr.o)
 .note.GNU-stack
                0x0000000000000000        0x0 0x1 /usr/local/popcorn/aarch64/lib/libelf.a(32.xlatetof.o)
 .note.GNU-stack
                0x0000000000000000        0x0 0x1 /usr/local/popcorn/aarch64/lib/libelf.a(cook.o)
 .note.GNU-stack
                0x0000000000000000        0x0 0x1 /usr/local/popcorn/aarch64/lib/libelf.a(data.o)
 .note.GNU-stack
                0x0000000000000000        0x0 0x1 /usr/local/popcorn/aarch64/lib/libelf.a(input.o)
 .note.GNU-stack
                0x0000000000000000        0x0 0x1 /usr/local/popcorn/aarch64/lib/libelf.a(x.elfext.o)
 .note.GNU-stack
                0x0000000000000000        0x0 0x1 /usr/local/popcorn/aarch64/lib/libelf.a(64.xlatetof.o)
 .note.GNU-stack
                0x0000000000000000        0x0 0x1 /usr/local/popcorn/aarch64/lib/libelf.a(gelfshdr.o)
 .note.GNU-stack
                0x0000000000000000        0x0 0x1 /usr/local/popcorn/aarch64/lib/libelf.a(swap64.o)
 .note.GNU-stack
                0x0000000000000000        0x0 0x1 /usr/local/popcorn/aarch64/lib/libelf.a(verdef_32_tof.o)
 .note.GNU-stack
                0x0000000000000000        0x0 0x1 /usr/local/popcorn/aarch64/lib/libelf.a(verdef_32_tom.o)
 .note.GNU-stack
                0x0000000000000000        0x0 0x1 /usr/local/popcorn/aarch64/lib/libelf.a(verdef_64_tof.o)
 .note.GNU-stack
                0x0000000000000000        0x0 0x1 /usr/local/popcorn/aarch64/lib/libelf.a(verdef_64_tom.o)
 .note.GNU-stack
                0x0000000000000000        0x0 0x1 /usr/local/popcorn/aarch64/lib/libelf.a(getscn.o)
 .note.GNU-stack
                0x0000000000000000        0x0 0x1 /usr/local/popcorn/aarch64/lib/libelf.a(newscn.o)
 .note.GNU-stack
                0x0000000000000000        0x0 0x1 /usr/local/popcorn/aarch64/lib/libelf.a(32.fsize.o)
 .note.GNU-stack
                0x0000000000000000        0x0 0x1 /usr/local/popcorn/aarch64/lib/libc.a(arch_crash.o)
 .note.GNU-stack
                0x0000000000000000        0x0 0x1 /usr/local/popcorn/aarch64/lib/libc.a(assert.o)
 .note.GNU-stack
                0x0000000000000000        0x0 0x1 /usr/local/popcorn/aarch64/lib/libc.a(getrlimit.o)
 .note.GNU-stack
                0x0000000000000000        0x0 0x1 /usr/local/popcorn/aarch64/lib/libc.a(syscall.o)
 .note.GNU-stack
                0x0000000000000000        0x0 0x1 /usr/local/popcorn/aarch64/lib/libc.a(fclose.o)
 .note.GNU-stack
                0x0000000000000000        0x0 0x1 /usr/local/popcorn/aarch64/lib/libc.a(fflush.o)
 .note.GNU-stack
                0x0000000000000000        0x0 0x1 /usr/local/popcorn/aarch64/lib/libc.a(fopen.o)
 .note.GNU-stack
                0x0000000000000000        0x0 0x1 /usr/local/popcorn/aarch64/lib/libc.a(fprintf.o)
 .note.GNU-stack
                0x0000000000000000        0x0 0x1 /usr/local/popcorn/aarch64/lib/libc.a(fscanf.o)
 .note.GNU-stack
                0x0000000000000000        0x0 0x1 /usr/local/popcorn/aarch64/lib/libc.a(fseek.o)
 .note.GNU-stack
                0x0000000000000000        0x0 0x1 /usr/local/popcorn/aarch64/lib/libc.a(getc.o)
 .note.GNU-stack
                0x0000000000000000        0x0 0x1 /usr/local/popcorn/aarch64/lib/libc.a(getline.o)
 .note.GNU-stack
                0x0000000000000000        0x0 0x1 /usr/local/popcorn/aarch64/lib/libc.a(bsearch.o)
 .note.GNU-stack
                0x0000000000000000        0x0 0x1 /usr/local/popcorn/aarch64/lib/libc.a(qsort.o)
 .note.GNU-stack
                0x0000000000000000        0x0 0x1 /usr/local/popcorn/aarch64/lib/libc.a(pthread_attr_get.o)
 .note.GNU-stack
                0x0000000000000000        0x0 0x1 /usr/local/popcorn/aarch64/lib/libc.a(pthread_getattr_np.o)
 .note.GNU-stack
                0x0000000000000000        0x0 0x1 /usr/local/popcorn/aarch64/lib/libc.a(pthread_getspecific.o)
 .note.GNU-stack
                0x0000000000000000        0x0 0x1 /usr/local/popcorn/aarch64/lib/libc.a(pthread_key_create.o)
 .note.GNU-stack
                0x0000000000000000        0x0 0x1 /usr/local/popcorn/aarch64/lib/libc.a(pthread_migrate.o)
 .note.GNU-stack
                0x0000000000000000        0x0 0x1 /usr/local/popcorn/aarch64/lib/libc.a(pthread_self.o)
 .note.GNU-stack
                0x0000000000000000        0x0 0x1 /usr/local/popcorn/aarch64/lib/libc.a(pthread_setspecific.o)
 .note.GNU-stack
                0x0000000000000000        0x0 0x1 /usr/local/popcorn/aarch64/lib/libc.a(lseek.o)
 .note.GNU-stack
                0x0000000000000000        0x0 0x1 /usr/local/popcorn/aarch64/lib/libc.a(abort.o)
 .note.GNU-stack
                0x0000000000000000        0x0 0x1 /usr/local/popcorn/aarch64/lib/libc.a(raise.o)
 .note.GNU-stack
                0x0000000000000000        0x0 0x1 /usr/local/popcorn/aarch64/lib/libc.a(__fdopen.o)
 .note.GNU-stack
                0x0000000000000000        0x0 0x1 /usr/local/popcorn/aarch64/lib/libc.a(__fmodeflags.o)
 .note.GNU-stack
                0x0000000000000000        0x0 0x1 /usr/local/popcorn/aarch64/lib/libc.a(__stdio_read.o)
 .note.GNU-stack
                0x0000000000000000        0x0 0x1 /usr/local/popcorn/aarch64/lib/libc.a(getdelim.o)
 .note.GNU-stack
                0x0000000000000000        0x0 0x1 /usr/local/popcorn/aarch64/lib/libc.a(ofl_add.o)
 .note.GNU-stack
                0x0000000000000000        0x0 0x1 /usr/lib/gcc-cross/aarch64-linux-gnu/6/libgcc.a(addtf3.o)
 .note.GNU-stack
                0x0000000000000000        0x0 0x1 /usr/lib/gcc-cross/aarch64-linux-gnu/6/libgcc.a(divtf3.o)
 .note.GNU-stack
                0x0000000000000000        0x0 0x1 /usr/lib/gcc-cross/aarch64-linux-gnu/6/libgcc.a(eqtf2.o)
 .note.GNU-stack
                0x0000000000000000        0x0 0x1 /usr/lib/gcc-cross/aarch64-linux-gnu/6/libgcc.a(getf2.o)
 .note.GNU-stack
                0x0000000000000000        0x0 0x1 /usr/lib/gcc-cross/aarch64-linux-gnu/6/libgcc.a(letf2.o)
 .note.GNU-stack
                0x0000000000000000        0x0 0x1 /usr/lib/gcc-cross/aarch64-linux-gnu/6/libgcc.a(multf3.o)
 .note.GNU-stack
                0x0000000000000000        0x0 0x1 /usr/lib/gcc-cross/aarch64-linux-gnu/6/libgcc.a(subtf3.o)
 .note.GNU-stack
                0x0000000000000000        0x0 0x1 /usr/lib/gcc-cross/aarch64-linux-gnu/6/libgcc.a(unordtf2.o)
 .note.GNU-stack
                0x0000000000000000        0x0 0x1 /usr/lib/gcc-cross/aarch64-linux-gnu/6/libgcc.a(fixtfsi.o)
 .note.GNU-stack
                0x0000000000000000        0x0 0x1 /usr/lib/gcc-cross/aarch64-linux-gnu/6/libgcc.a(fixunstfsi.o)
 .note.GNU-stack
                0x0000000000000000        0x0 0x1 /usr/lib/gcc-cross/aarch64-linux-gnu/6/libgcc.a(floatsitf.o)
 .note.GNU-stack
                0x0000000000000000        0x0 0x1 /usr/lib/gcc-cross/aarch64-linux-gnu/6/libgcc.a(floatunsitf.o)
 .note.GNU-stack
                0x0000000000000000        0x0 0x1 /usr/lib/gcc-cross/aarch64-linux-gnu/6/libgcc.a(extendsftf2.o)
 .note.GNU-stack
                0x0000000000000000        0x0 0x1 /usr/lib/gcc-cross/aarch64-linux-gnu/6/libgcc.a(extenddftf2.o)
 .note.GNU-stack
                0x0000000000000000        0x0 0x1 /usr/lib/gcc-cross/aarch64-linux-gnu/6/libgcc.a(trunctfsf2.o)
 .note.GNU-stack
                0x0000000000000000        0x0 0x1 /usr/lib/gcc-cross/aarch64-linux-gnu/6/libgcc.a(trunctfdf2.o)
 .note.GNU-stack
                0x0000000000000000        0x0 0x1 /usr/lib/gcc-cross/aarch64-linux-gnu/6/libgcc.a(sfp-exceptions.o)

Memory map

 ** file header
                0x0000000000400000       0x40
 ** segment headers
                0x0000000000400040      0x118

.note.gnu.build-id
                0x0000000000400158       0x24
 ** note header
                0x0000000000400158       0x10
 ** zero fill   0x0000000000400168       0x14

.text           0x0000000000400180    0x2314c
 .text.exit     0x0000000000400180       0x24 0x4 /usr/local/popcorn/aarch64/lib/libc.a(exit.o)
                0x0000000000400180                exit
 .text          0x00000000004001a4        0x0 0x4 tiny_aarch64.o
 .text.rio_readinitb
                0x00000000004001a4       0x64 0x4 tiny_aarch64.o
                0x00000000004001a4                rio_readinitb
 .text.writen   0x0000000000400208      0x104 0x4 tiny_aarch64.o
                0x0000000000400208                writen
 .text.rio_readlineb
                0x000000000040030c      0x134 0x4 tiny_aarch64.o
                0x000000000040030c                rio_readlineb
 .text.rio_read
                0x0000000000400440      0x174 0x4 tiny_aarch64.o
 .text.format_size
                0x00000000004005b4      0x188 0x4 tiny_aarch64.o
                0x00000000004005b4                format_size
 .text.handle_directory_request
                0x000000000040073c      0x294 0x4 tiny_aarch64.o
                0x000000000040073c                handle_directory_request
 .text.open_listenfd
                0x00000000004009d0      0x15c 0x4 tiny_aarch64.o
                0x00000000004009d0                open_listenfd
 .text.url_decode
                0x0000000000400b2c      0x128 0x4 tiny_aarch64.o
                0x0000000000400b2c                url_decode
 .text.parse_request
                0x0000000000400c54      0x218 0x4 tiny_aarch64.o
                0x0000000000400c54                parse_request
 .text.log_access
                0x0000000000400e6c       0xa4 0x4 tiny_aarch64.o
                0x0000000000400e6c                log_access
 .text.client_error
                0x0000000000400f10      0x108 0x4 tiny_aarch64.o
                0x0000000000400f10                client_error
 .text.serve_static
                0x0000000000401018      0x218 0x4 tiny_aarch64.o
                0x0000000000401018                serve_static
 .text.get_mime_type
                0x0000000000401230       0xd4 0x4 tiny_aarch64.o
 .text.print_stat
                0x0000000000401304       0xb4 0x4 tiny_aarch64.o
                0x0000000000401304                print_stat
 .text.print_http_request
                0x00000000004013b8       0x5c 0x4 tiny_aarch64.o
                0x00000000004013b8                print_http_request
 .text.process  0x0000000000401414      0x23c 0x4 tiny_aarch64.o
                0x0000000000401414                process
 .text.main     0x0000000000401650      0x2ac 0x4 tiny_aarch64.o
                0x0000000000401650                main
 .text          0x00000000004018fc       0x1c 0x4 /usr/local/popcorn/aarch64/lib/crt1.o
                0x00000000004018fc                _start
 .text._start_c
                0x0000000000401918       0x34 0x4 /usr/local/popcorn/aarch64/lib/crt1.o
                0x0000000000401918                _start_c
 .text          0x000000000040194c        0x0 0x4 /usr/local/popcorn/aarch64/lib/libc.a(closedir.o)
 .text.closedir
                0x000000000040194c       0x34 0x4 /usr/local/popcorn/aarch64/lib/libc.a(closedir.o)
                0x000000000040194c                closedir
 .text          0x0000000000401980        0x0 0x4 /usr/local/popcorn/aarch64/lib/libc.a(fdopendir.o)
 .text.fdopendir
                0x0000000000401980       0x88 0x4 /usr/local/popcorn/aarch64/lib/libc.a(fdopendir.o)
                0x0000000000401980                fdopendir
 .text          0x0000000000401a08        0x0 0x4 /usr/local/popcorn/aarch64/lib/libc.a(readdir.o)
 .text.readdir  0x0000000000401a08       0xa0 0x4 /usr/local/popcorn/aarch64/lib/libc.a(readdir.o)
                0x0000000000401a08                readdir
                0x0000000000401a08                readdir64
 .text          0x0000000000401aa8        0x0 0x4 /usr/local/popcorn/aarch64/lib/libc.a(__libc_start_main.o)
 .text.dummy    0x0000000000401aa8        0x4 0x4 /usr/local/popcorn/aarch64/lib/libc.a(__libc_start_main.o)
                0x0000000000401aa8                _init
 .text.dummy1   0x0000000000401aac        0x4 0x4 /usr/local/popcorn/aarch64/lib/libc.a(__libc_start_main.o)
                0x0000000000401aac                __init_ssp
 .text.__init_libc
                0x0000000000401ab0      0x1d8 0x4 /usr/local/popcorn/aarch64/lib/libc.a(__libc_start_main.o)
                0x0000000000401ab0                __init_libc
 .text.libc_start_init
                0x0000000000401c88       0x40 0x4 /usr/local/popcorn/aarch64/lib/libc.a(__libc_start_main.o)
                0x0000000000401c88                __libc_start_init
 .text.__libc_start_main
                0x0000000000401cc8       0x50 0x4 /usr/local/popcorn/aarch64/lib/libc.a(__libc_start_main.o)
                0x0000000000401cc8                __libc_start_main
 .text          0x0000000000401d18        0x0 0x4 /usr/local/popcorn/aarch64/lib/libc.a(__errno_location.o)
 .text.__errno_location
                0x0000000000401d18        0xc 0x4 /usr/local/popcorn/aarch64/lib/libc.a(__errno_location.o)
                0x0000000000401d18                __errno_location
 .text          0x0000000000401d24        0x0 0x4 /usr/local/popcorn/aarch64/lib/libc.a(exit.o)
 .text.libc_exit_fini
                0x0000000000401d24       0x3c 0x4 /usr/local/popcorn/aarch64/lib/libc.a(exit.o)
                0x0000000000401d24                __libc_exit_fini
 .text.dummy    0x0000000000401d60        0x4 0x4 /usr/local/popcorn/aarch64/lib/libc.a(exit.o)
                0x0000000000401d60                __funcs_on_exit
                0x0000000000401d60                _fini
 .text          0x0000000000401d64        0x0 0x4 /usr/local/popcorn/aarch64/lib/libc.a(fcntl.o)
 .text.fcntl    0x0000000000401d64      0x230 0x4 /usr/local/popcorn/aarch64/lib/libc.a(fcntl.o)
                0x0000000000401d64                fcntl
 .text          0x0000000000401f94        0x0 0x4 /usr/local/popcorn/aarch64/lib/libc.a(open.o)
 .text.open     0x0000000000401f94      0x10c 0x4 /usr/local/popcorn/aarch64/lib/libc.a(open.o)
                0x0000000000401f94                open
                0x0000000000401f94                open64
 .text          0x00000000004020a0        0x0 0x4 /usr/local/popcorn/aarch64/lib/libc.a(openat.o)
 .text.openat   0x00000000004020a0       0xdc 0x4 /usr/local/popcorn/aarch64/lib/libc.a(openat.o)
                0x00000000004020a0                openat
                0x00000000004020a0                openat64
 .text          0x000000000040217c        0x0 0x4 /usr/local/popcorn/aarch64/lib/libc.a(libc.o)
 .text          0x000000000040217c        0x0 0x4 /usr/local/popcorn/aarch64/lib/libc.a(syscall_ret.o)
 .text.__syscall_ret
                0x000000000040217c       0x30 0x4 /usr/local/popcorn/aarch64/lib/libc.a(syscall_ret.o)
                0x000000000040217c                __syscall_ret
 .text          0x00000000004021ac        0x0 0x4 /usr/local/popcorn/aarch64/lib/libc.a(sendfile.o)
 .text.sendfile
                0x00000000004021ac       0x14 0x4 /usr/local/popcorn/aarch64/lib/libc.a(sendfile.o)
                0x00000000004021ac                sendfile
                0x00000000004021ac                sendfile64
 .text          0x00000000004021c0        0x0 0x4 /usr/local/popcorn/aarch64/lib/libc.a(calloc.o)
 .text.calloc   0x00000000004021c0       0x48 0x4 /usr/local/popcorn/aarch64/lib/libc.a(calloc.o)
                0x00000000004021c0                calloc
 .text.popcorn_calloc
                0x0000000000402208       0x4c 0x4 /usr/local/popcorn/aarch64/lib/libc.a(calloc.o)
                0x0000000000402208                popcorn_calloc
 .text          0x0000000000402254        0x0 0x4 /usr/local/popcorn/aarch64/lib/libc.a(lite_malloc.o)
 .text.__simple_malloc
                0x0000000000402254      0x104 0x4 /usr/local/popcorn/aarch64/lib/libc.a(lite_malloc.o)
 .text          0x0000000000402358        0x0 0x4 /usr/local/popcorn/aarch64/lib/libc.a(malloc.o)
 .text.malloc   0x0000000000402358      0x828 0x4 /usr/local/popcorn/aarch64/lib/libc.a(malloc.o)
                0x0000000000402358                malloc
 .text.lock_bin
                0x0000000000402b80       0xac 0x4 /usr/local/popcorn/aarch64/lib/libc.a(malloc.o)
 .text.unbin    0x0000000000402c2c       0xa4 0x4 /usr/local/popcorn/aarch64/lib/libc.a(malloc.o)
 .text.unlock_bin
                0x0000000000402cd0       0x6c 0x4 /usr/local/popcorn/aarch64/lib/libc.a(malloc.o)
 .text.__malloc0
                0x0000000000402d3c       0xc4 0x4 /usr/local/popcorn/aarch64/lib/libc.a(malloc.o)
                0x0000000000402d3c                __malloc0
 .text.realloc  0x0000000000402e00      0x26c 0x4 /usr/local/popcorn/aarch64/lib/libc.a(malloc.o)
                0x0000000000402e00                realloc
 .text.free     0x000000000040306c      0x6b0 0x4 /usr/local/popcorn/aarch64/lib/libc.a(malloc.o)
                0x000000000040306c                free
 .text.alloc_fwd
                0x000000000040371c       0xc8 0x4 /usr/local/popcorn/aarch64/lib/libc.a(malloc.o)
 .text          0x00000000004037e4        0x0 0x4 /usr/local/popcorn/aarch64/lib/libc.a(popcorn_malloc.o)
 .text.popcorn_malloc
                0x00000000004037e4      0x8c8 0x4 /usr/local/popcorn/aarch64/lib/libc.a(popcorn_malloc.o)
                0x00000000004037e4                popcorn_malloc
 .text.__popcorn_malloc0
                0x00000000004040ac       0xc4 0x4 /usr/local/popcorn/aarch64/lib/libc.a(popcorn_malloc.o)
                0x00000000004040ac                __popcorn_malloc0
 .text.popcorn_realloc
                0x0000000000404170      0x530 0x4 /usr/local/popcorn/aarch64/lib/libc.a(popcorn_malloc.o)
                0x0000000000404170                popcorn_realloc
 .text.popcorn_free
                0x00000000004046a0      0x9f0 0x4 /usr/local/popcorn/aarch64/lib/libc.a(popcorn_malloc.o)
                0x00000000004046a0                popcorn_free
 .text          0x0000000000405090        0x0 0x4 /usr/local/popcorn/aarch64/lib/libc.a(madvise.o)
 .text.__madvise
                0x0000000000405090       0x20 0x4 /usr/local/popcorn/aarch64/lib/libc.a(madvise.o)
                0x0000000000405090                __madvise
                0x0000000000405090                madvise
 .text          0x00000000004050b0        0x0 0x4 /usr/local/popcorn/aarch64/lib/libc.a(mmap.o)
 .text.dummy    0x00000000004050b0        0x4 0x4 /usr/local/popcorn/aarch64/lib/libc.a(mmap.o)
                0x00000000004050b0                __vm_wait
 .text.__mmap   0x00000000004050b4       0xc0 0x4 /usr/local/popcorn/aarch64/lib/libc.a(mmap.o)
                0x00000000004050b4                __mmap
                0x00000000004050b4                mmap
                0x00000000004050b4                mmap64
 .text          0x0000000000405174        0x0 0x4 /usr/local/popcorn/aarch64/lib/libc.a(mremap.o)
 .text.dummy    0x0000000000405174        0x4 0x4 /usr/local/popcorn/aarch64/lib/libc.a(mremap.o)
 .text.__mremap
                0x0000000000405178      0x110 0x4 /usr/local/popcorn/aarch64/lib/libc.a(mremap.o)
                0x0000000000405178                __mremap
                0x0000000000405178                mremap
 .text          0x0000000000405288        0x0 0x4 /usr/local/popcorn/aarch64/lib/libc.a(munmap.o)
 .text.dummy    0x0000000000405288        0x4 0x4 /usr/local/popcorn/aarch64/lib/libc.a(munmap.o)
 .text.__munmap
                0x000000000040528c       0x38 0x4 /usr/local/popcorn/aarch64/lib/libc.a(munmap.o)
                0x000000000040528c                __munmap
                0x000000000040528c                munmap
 .text          0x00000000004052c4        0x0 0x4 /usr/local/popcorn/aarch64/lib/libc.a(accept.o)
 .text.accept   0x00000000004052c4       0x3c 0x4 /usr/local/popcorn/aarch64/lib/libc.a(accept.o)
                0x00000000004052c4                accept
 .text          0x0000000000405300        0x0 0x4 /usr/local/popcorn/aarch64/lib/libc.a(bind.o)
 .text.bind     0x0000000000405300       0x30 0x4 /usr/local/popcorn/aarch64/lib/libc.a(bind.o)
                0x0000000000405300                bind
 .text          0x0000000000405330        0x0 0x4 /usr/local/popcorn/aarch64/lib/libc.a(htonl.o)
 .text.htonl    0x0000000000405330        0x8 0x4 /usr/local/popcorn/aarch64/lib/libc.a(htonl.o)
                0x0000000000405330                htonl
 .text          0x0000000000405338        0x0 0x4 /usr/local/popcorn/aarch64/lib/libc.a(htons.o)
 .text.htons    0x0000000000405338       0x10 0x4 /usr/local/popcorn/aarch64/lib/libc.a(htons.o)
                0x0000000000405338                htons
 .text          0x0000000000405348        0x0 0x4 /usr/local/popcorn/aarch64/lib/libc.a(inet_ntoa.o)
 .text.inet_ntoa
                0x0000000000405348       0x48 0x4 /usr/local/popcorn/aarch64/lib/libc.a(inet_ntoa.o)
                0x0000000000405348                inet_ntoa
 .text          0x0000000000405390        0x0 0x4 /usr/local/popcorn/aarch64/lib/libc.a(listen.o)
 .text.listen   0x0000000000405390       0x34 0x4 /usr/local/popcorn/aarch64/lib/libc.a(listen.o)
                0x0000000000405390                listen
 .text          0x00000000004053c4        0x0 0x4 /usr/local/popcorn/aarch64/lib/libc.a(ntohs.o)
 .text.ntohs    0x00000000004053c4       0x10 0x4 /usr/local/popcorn/aarch64/lib/libc.a(ntohs.o)
                0x00000000004053c4                ntohs
 .text          0x00000000004053d4        0x0 0x4 /usr/local/popcorn/aarch64/lib/libc.a(setsockopt.o)
 .text.setsockopt
                0x00000000004053d4       0x30 0x4 /usr/local/popcorn/aarch64/lib/libc.a(setsockopt.o)
                0x00000000004053d4                setsockopt
 .text          0x0000000000405404        0x0 0x4 /usr/local/popcorn/aarch64/lib/libc.a(socket.o)
 .text.socket   0x0000000000405404      0x108 0x4 /usr/local/popcorn/aarch64/lib/libc.a(socket.o)
                0x0000000000405404                socket
 .text          0x000000000040550c        0x0 0x4 /usr/local/popcorn/aarch64/lib/libc.a(fork.o)
 .text.dummy    0x000000000040550c        0x4 0x4 /usr/local/popcorn/aarch64/lib/libc.a(fork.o)
                0x000000000040550c                __fork_handler
 .text.fork     0x0000000000405510       0x8c 0x4 /usr/local/popcorn/aarch64/lib/libc.a(fork.o)
                0x0000000000405510                fork
 .text          0x000000000040559c        0x0 0x4 /usr/local/popcorn/aarch64/lib/libc.a(block.o)
 .text.__block_all_sigs
                0x000000000040559c       0x24 0x4 /usr/local/popcorn/aarch64/lib/libc.a(block.o)
                0x000000000040559c                __block_all_sigs
 .text.__block_app_sigs
                0x00000000004055c0       0x24 0x4 /usr/local/popcorn/aarch64/lib/libc.a(block.o)
                0x00000000004055c0                __block_app_sigs
 .text.__restore_sigs
                0x00000000004055e4       0x20 0x4 /usr/local/popcorn/aarch64/lib/libc.a(block.o)
                0x00000000004055e4                __restore_sigs
 .text          0x0000000000405604        0x0 0x4 /usr/local/popcorn/aarch64/lib/libc.a(signal.o)
 .text.signal   0x0000000000405604       0x6c 0x4 /usr/local/popcorn/aarch64/lib/libc.a(signal.o)
                0x0000000000405604                __sysv_signal
                0x0000000000405604                bsd_signal
                0x0000000000405604                signal
 .text          0x0000000000405670        0x0 0x4 /usr/local/popcorn/aarch64/lib/libc.a(fstat.o)
 .text.fstat    0x0000000000405670       0x88 0x4 /usr/local/popcorn/aarch64/lib/libc.a(fstat.o)
                0x0000000000405670                fstat
                0x0000000000405670                fstat64
 .text          0x00000000004056f8        0x0 0x4 /usr/local/popcorn/aarch64/lib/libc.a(perror.o)
 .text.perror   0x00000000004056f8       0xcc 0x4 /usr/local/popcorn/aarch64/lib/libc.a(perror.o)
                0x00000000004056f8                perror
 .text          0x00000000004057c4        0x0 0x4 /usr/local/popcorn/aarch64/lib/libc.a(printf.o)
 .text.printf   0x00000000004057c4       0x88 0x4 /usr/local/popcorn/aarch64/lib/libc.a(printf.o)
                0x00000000004057c4                printf
 .text          0x000000000040584c        0x0 0x4 /usr/local/popcorn/aarch64/lib/libc.a(snprintf.o)
 .text.snprintf
                0x000000000040584c       0x74 0x4 /usr/local/popcorn/aarch64/lib/libc.a(snprintf.o)
                0x000000000040584c                snprintf
 .text          0x00000000004058c0        0x0 0x4 /usr/local/popcorn/aarch64/lib/libc.a(sprintf.o)
 .text.sprintf  0x00000000004058c0       0x74 0x4 /usr/local/popcorn/aarch64/lib/libc.a(sprintf.o)
                0x00000000004058c0                sprintf
 .text          0x0000000000405934        0x0 0x4 /usr/local/popcorn/aarch64/lib/libc.a(sscanf.o)
 .text.sscanf   0x0000000000405934       0x74 0x4 /usr/local/popcorn/aarch64/lib/libc.a(sscanf.o)
                0x0000000000405934                __isoc99_sscanf
                0x0000000000405934                sscanf
 .text          0x00000000004059a8        0x0 0x4 /usr/local/popcorn/aarch64/lib/libc.a(stderr.o)
 .text          0x00000000004059a8        0x0 0x4 /usr/local/popcorn/aarch64/lib/libc.a(stdout.o)
 .text          0x00000000004059a8        0x0 0x4 /usr/local/popcorn/aarch64/lib/libc.a(vfprintf.o)
 .text.vfprintf
                0x00000000004059a8      0x1a0 0x4 /usr/local/popcorn/aarch64/lib/libc.a(vfprintf.o)
                0x00000000004059a8                vfprintf
 .text.printf_core
                0x0000000000405b48     0x1cc4 0x4 /usr/local/popcorn/aarch64/lib/libc.a(vfprintf.o)
 .text.getint   0x000000000040780c       0x74 0x4 /usr/local/popcorn/aarch64/lib/libc.a(vfprintf.o)
 .text.pop_arg  0x0000000000407880      0x27c 0x4 /usr/local/popcorn/aarch64/lib/libc.a(vfprintf.o)
 .text.pad      0x0000000000407afc       0xc4 0x4 /usr/local/popcorn/aarch64/lib/libc.a(vfprintf.o)
 .text          0x0000000000407bc0        0x0 0x4 /usr/local/popcorn/aarch64/lib/libc.a(vsnprintf.o)
 .text.vsnprintf
                0x0000000000407bc0       0xd4 0x4 /usr/local/popcorn/aarch64/lib/libc.a(vsnprintf.o)
                0x0000000000407bc0                vsnprintf
 .text.sn_write
                0x0000000000407c94       0xd8 0x4 /usr/local/popcorn/aarch64/lib/libc.a(vsnprintf.o)
 .text          0x0000000000407d6c        0x0 0x4 /usr/local/popcorn/aarch64/lib/libc.a(vsprintf.o)
 .text.vsprintf
                0x0000000000407d6c       0x3c 0x4 /usr/local/popcorn/aarch64/lib/libc.a(vsprintf.o)
                0x0000000000407d6c                vsprintf
 .text          0x0000000000407da8        0x0 0x4 /usr/local/popcorn/aarch64/lib/libc.a(vsscanf.o)
 .text.vsscanf  0x0000000000407da8       0x80 0x4 /usr/local/popcorn/aarch64/lib/libc.a(vsscanf.o)
                0x0000000000407da8                __isoc99_vsscanf
                0x0000000000407da8                vsscanf
 .text.do_read  0x0000000000407e28        0x4 0x4 /usr/local/popcorn/aarch64/lib/libc.a(vsscanf.o)
 .text          0x0000000000407e2c        0x0 0x4 /usr/local/popcorn/aarch64/lib/libc.a(atoi.o)
 .text.atoi     0x0000000000407e2c       0x74 0x4 /usr/local/popcorn/aarch64/lib/libc.a(atoi.o)
                0x0000000000407e2c                atoi
 .text          0x0000000000407ea0        0x0 0x4 /usr/local/popcorn/aarch64/lib/libc.a(strtol.o)
 .text.strtoull
                0x0000000000407ea0        0x8 0x4 /usr/local/popcorn/aarch64/lib/libc.a(strtol.o)
                0x0000000000407ea0                __strtoull_internal
                0x0000000000407ea0                strtoull
 .text.strtox   0x0000000000407ea8       0xb4 0x4 /usr/local/popcorn/aarch64/lib/libc.a(strtol.o)
 .text.strtoll  0x0000000000407f5c        0x8 0x4 /usr/local/popcorn/aarch64/lib/libc.a(strtol.o)
                0x0000000000407f5c                __strtoll_internal
                0x0000000000407f5c                strtoll
 .text.strtoul  0x0000000000407f64        0x8 0x4 /usr/local/popcorn/aarch64/lib/libc.a(strtol.o)
                0x0000000000407f64                __strtoul_internal
                0x0000000000407f64                strtoul
 .text.strtol   0x0000000000407f6c        0x8 0x4 /usr/local/popcorn/aarch64/lib/libc.a(strtol.o)
                0x0000000000407f6c                __strtol_internal
                0x0000000000407f6c                strtol
 .text.strtoimax
                0x0000000000407f74        0x8 0x4 /usr/local/popcorn/aarch64/lib/libc.a(strtol.o)
                0x0000000000407f74                __strtoimax_internal
                0x0000000000407f74                strtoimax
 .text.strtoumax
                0x0000000000407f7c        0x8 0x4 /usr/local/popcorn/aarch64/lib/libc.a(strtol.o)
                0x0000000000407f7c                __strtoumax_internal
                0x0000000000407f7c                strtoumax
 .text          0x0000000000407f84        0x0 0x4 /usr/local/popcorn/aarch64/lib/libc.a(memcpy.o)
 .text.memcpy   0x0000000000407f84      0x3e0 0x4 /usr/local/popcorn/aarch64/lib/libc.a(memcpy.o)
                0x0000000000407f84                memcpy
 .text          0x0000000000408364        0x0 0x4 /usr/local/popcorn/aarch64/lib/libc.a(memset.o)
 .text.memset   0x0000000000408364      0x158 0x4 /usr/local/popcorn/aarch64/lib/libc.a(memset.o)
                0x0000000000408364                memset
 .text          0x00000000004084bc        0x0 0x4 /usr/local/popcorn/aarch64/lib/libc.a(strcmp.o)
 .text.strcmp   0x00000000004084bc       0x28 0x4 /usr/local/popcorn/aarch64/lib/libc.a(strcmp.o)
                0x00000000004084bc                strcmp
 .text          0x00000000004084e4        0x0 0x4 /usr/local/popcorn/aarch64/lib/libc.a(strlen.o)
 .text.strlen   0x00000000004084e4       0x60 0x4 /usr/local/popcorn/aarch64/lib/libc.a(strlen.o)
                0x00000000004084e4                strlen
 .text          0x0000000000408544        0x0 0x4 /usr/local/popcorn/aarch64/lib/libc.a(strnlen.o)
 .text.strnlen  0x0000000000408544       0x38 0x4 /usr/local/popcorn/aarch64/lib/libc.a(strnlen.o)
                0x0000000000408544                strnlen
 .text          0x000000000040857c        0x0 0x4 /usr/local/popcorn/aarch64/lib/libc.a(strrchr.o)
 .text.strrchr  0x000000000040857c       0x30 0x4 /usr/local/popcorn/aarch64/lib/libc.a(strrchr.o)
                0x000000000040857c                strrchr
 .text          0x00000000004085ac        0x0 0x4 /usr/local/popcorn/aarch64/lib/libc.a(__lock.o)
 .text.__lock   0x00000000004085ac       0x64 0x4 /usr/local/popcorn/aarch64/lib/libc.a(__lock.o)
                0x00000000004085ac                __lock
 .text.__unlock
                0x0000000000408610       0x54 0x4 /usr/local/popcorn/aarch64/lib/libc.a(__lock.o)
                0x0000000000408610                __unlock
 .text          0x0000000000408664        0x0 0x4 /usr/local/popcorn/aarch64/lib/libc.a(__syscall_cp.o)
 .text.sccp     0x0000000000408664        0x4 0x4 /usr/local/popcorn/aarch64/lib/libc.a(__syscall_cp.o)
                0x0000000000408664                __syscall_cp_c
 .text.__syscall_cp
                0x0000000000408668        0x4 0x4 /usr/local/popcorn/aarch64/lib/libc.a(__syscall_cp.o)
                0x0000000000408668                __syscall_cp
 .text          0x000000000040866c        0x0 0x4 /usr/local/popcorn/aarch64/lib/libc.a(__wait.o)
 .text.__wait   0x000000000040866c       0xc4 0x4 /usr/local/popcorn/aarch64/lib/libc.a(__wait.o)
                0x000000000040866c                __wait
 .text          0x0000000000408730        0x0 0x4 /usr/local/popcorn/aarch64/lib/libc.a(localtime.o)
 .text.localtime
                0x0000000000408730        0xc 0x4 /usr/local/popcorn/aarch64/lib/libc.a(localtime.o)
                0x0000000000408730                localtime
 .text          0x000000000040873c        0x0 0x4 /usr/local/popcorn/aarch64/lib/libc.a(localtime_r.o)
 .text.__localtime_r
                0x000000000040873c       0x88 0x4 /usr/local/popcorn/aarch64/lib/libc.a(localtime_r.o)
                0x000000000040873c                __localtime_r
                0x000000000040873c                localtime_r
 .text          0x00000000004087c4        0x0 0x4 /usr/local/popcorn/aarch64/lib/libc.a(strftime.o)
 .text.__strftime_fmt_1
                0x00000000004087c4      0x4f4 0x4 /usr/local/popcorn/aarch64/lib/libc.a(strftime.o)
                0x00000000004087c4                __strftime_fmt_1
 .text.week_num
                0x0000000000408cb8      0x210 0x4 /usr/local/popcorn/aarch64/lib/libc.a(strftime.o)
 .text.__strftime_l
                0x0000000000408ec8      0x248 0x4 /usr/local/popcorn/aarch64/lib/libc.a(strftime.o)
                0x0000000000408ec8                __strftime_l
                0x0000000000408ec8                strftime_l
 .text.strftime
                0x0000000000409110        0xc 0x4 /usr/local/popcorn/aarch64/lib/libc.a(strftime.o)
                0x0000000000409110                strftime
 .text          0x000000000040911c        0x0 0x4 /usr/local/popcorn/aarch64/lib/libc.a(chdir.o)
 .text.chdir    0x000000000040911c       0x1c 0x4 /usr/local/popcorn/aarch64/lib/libc.a(chdir.o)
                0x000000000040911c                chdir
 .text          0x0000000000409138        0x0 0x4 /usr/local/popcorn/aarch64/lib/libc.a(close.o)
 .text.dummy    0x0000000000409138        0x4 0x4 /usr/local/popcorn/aarch64/lib/libc.a(close.o)
                0x0000000000409138                __aio_close
 .text.close    0x000000000040913c       0x44 0x4 /usr/local/popcorn/aarch64/lib/libc.a(close.o)
                0x000000000040913c                close
 .text          0x0000000000409180        0x0 0x4 /usr/local/popcorn/aarch64/lib/libc.a(getcwd.o)
 .text.getcwd   0x0000000000409180       0x90 0x4 /usr/local/popcorn/aarch64/lib/libc.a(getcwd.o)
                0x0000000000409180                getcwd
 .text          0x0000000000409210        0x0 0x4 /usr/local/popcorn/aarch64/lib/libc.a(getpid.o)
 .text.getpid   0x0000000000409210        0xc 0x4 /usr/local/popcorn/aarch64/lib/libc.a(getpid.o)
                0x0000000000409210                getpid
 .text          0x000000000040921c        0x0 0x4 /usr/local/popcorn/aarch64/lib/libc.a(read.o)
 .text.read     0x000000000040921c       0x38 0x4 /usr/local/popcorn/aarch64/lib/libc.a(read.o)
                0x000000000040921c                read
 .text          0x0000000000409254        0x0 0x4 /usr/local/popcorn/aarch64/lib/libc.a(write.o)
 .text.write    0x0000000000409254       0x38 0x4 /usr/local/popcorn/aarch64/lib/libc.a(write.o)
                0x0000000000409254                write
 .text          0x000000000040928c        0x0 0x4 /usr/local/popcorn/aarch64/lib/libc.a(__environ.o)
 .text          0x000000000040928c        0x0 0x4 /usr/local/popcorn/aarch64/lib/libc.a(__init_tls.o)
 .text.__init_tp
                0x000000000040928c       0x70 0x4 /usr/local/popcorn/aarch64/lib/libc.a(__init_tls.o)
                0x000000000040928c                __init_tp
 .text.__copy_tls
                0x00000000004092fc       0x8c 0x4 /usr/local/popcorn/aarch64/lib/libc.a(__init_tls.o)
                0x00000000004092fc                __copy_tls
 .text.static_init_tls
                0x0000000000409388      0x15c 0x4 /usr/local/popcorn/aarch64/lib/libc.a(__init_tls.o)
                0x0000000000409388                __init_tls
 .text          0x00000000004094e4        0x0 0x4 /usr/local/popcorn/aarch64/lib/libc.a(strerror.o)
 .text.__strerror_l
                0x00000000004094e4       0x60 0x4 /usr/local/popcorn/aarch64/lib/libc.a(strerror.o)
                0x00000000004094e4                __strerror_l
                0x00000000004094e4                strerror_l
 .text.strerror
                0x0000000000409544        0xc 0x4 /usr/local/popcorn/aarch64/lib/libc.a(strerror.o)
                0x0000000000409544                strerror
 .text          0x0000000000409550        0x0 0x4 /usr/local/popcorn/aarch64/lib/libc.a(_Exit.o)
 .text._Exit    0x0000000000409550       0x20 0x4 /usr/local/popcorn/aarch64/lib/libc.a(_Exit.o)
                0x0000000000409550                _Exit
 .text          0x0000000000409570        0x0 0x4 /usr/local/popcorn/aarch64/lib/libc.a(syscall.o)
 .text.__syscall
                0x0000000000409570       0x28 0x10 /usr/local/popcorn/aarch64/lib/libc.a(syscall.o)
                0x0000000000409570                __syscall
 .text          0x0000000000409598        0x0 0x4 /usr/local/popcorn/aarch64/lib/libc.a(intscan.o)
 .text.__intscan
                0x0000000000409598      0x5c8 0x4 /usr/local/popcorn/aarch64/lib/libc.a(intscan.o)
                0x0000000000409598                __intscan
 .text          0x0000000000409b60        0x0 0x4 /usr/local/popcorn/aarch64/lib/libc.a(procfdname.o)
 .text.__procfdname
                0x0000000000409b60       0xac 0x4 /usr/local/popcorn/aarch64/lib/libc.a(procfdname.o)
                0x0000000000409b60                __procfdname
 .text          0x0000000000409c0c        0x0 0x4 /usr/local/popcorn/aarch64/lib/libc.a(shgetc.o)
 .text.__shlim  0x0000000000409c0c       0x24 0x4 /usr/local/popcorn/aarch64/lib/libc.a(shgetc.o)
                0x0000000000409c0c                __shlim
 .text.__shgetc
                0x0000000000409c30       0xbc 0x4 /usr/local/popcorn/aarch64/lib/libc.a(shgetc.o)
                0x0000000000409c30                __shgetc
 .text          0x0000000000409cec        0x0 0x4 /usr/local/popcorn/aarch64/lib/libc.a(__lctrans.o)
 .text.dummy    0x0000000000409cec        0x4 0x4 /usr/local/popcorn/aarch64/lib/libc.a(__lctrans.o)
                0x0000000000409cec                __lctrans_impl
 .text.__lctrans
                0x0000000000409cf0        0x4 0x4 /usr/local/popcorn/aarch64/lib/libc.a(__lctrans.o)
                0x0000000000409cf0                __lctrans
 .text.__lctrans_cur
                0x0000000000409cf4       0x10 0x4 /usr/local/popcorn/aarch64/lib/libc.a(__lctrans.o)
                0x0000000000409cf4                __lctrans_cur
 .text          0x0000000000409d04        0x0 0x4 /usr/local/popcorn/aarch64/lib/libc.a(langinfo.o)
 .text.__nl_langinfo_l
                0x0000000000409d04      0x124 0x4 /usr/local/popcorn/aarch64/lib/libc.a(langinfo.o)
                0x0000000000409d04                __nl_langinfo_l
                0x0000000000409d04                nl_langinfo_l
 .text.__nl_langinfo
                0x0000000000409e28        0xc 0x4 /usr/local/popcorn/aarch64/lib/libc.a(langinfo.o)
                0x0000000000409e28                __nl_langinfo
                0x0000000000409e28                nl_langinfo
 .text          0x0000000000409e34        0x0 0x4 /usr/local/popcorn/aarch64/lib/libc.a(expand_heap.o)
 .text.__expand_heap
                0x0000000000409e34      0x178 0x4 /usr/local/popcorn/aarch64/lib/libc.a(expand_heap.o)
                0x0000000000409e34                __expand_heap
 .text.__expand_heap_node
                0x0000000000409fac      0x238 0x4 /usr/local/popcorn/aarch64/lib/libc.a(expand_heap.o)
                0x0000000000409fac                __expand_heap_node
 .text.popcorn_get_arena
                0x000000000040a1e4      0x128 0x4 /usr/local/popcorn/aarch64/lib/libc.a(expand_heap.o)
                0x000000000040a1e4                popcorn_get_arena
 .text          0x000000000040a30c        0x0 0x4 /usr/local/popcorn/aarch64/lib/libc.a(__fpclassifyl.o)
 .text.__fpclassifyl
                0x000000000040a30c       0x54 0x4 /usr/local/popcorn/aarch64/lib/libc.a(__fpclassifyl.o)
                0x000000000040a30c                __fpclassifyl
 .text          0x000000000040a360        0x0 0x4 /usr/local/popcorn/aarch64/lib/libc.a(__signbitl.o)
 .text.__signbitl
                0x000000000040a360       0x18 0x4 /usr/local/popcorn/aarch64/lib/libc.a(__signbitl.o)
                0x000000000040a360                __signbitl
 .text          0x000000000040a378        0x0 0x4 /usr/local/popcorn/aarch64/lib/libc.a(frexpl.o)
 .text.frexpl   0x000000000040a378       0xb4 0x4 /usr/local/popcorn/aarch64/lib/libc.a(frexpl.o)
                0x000000000040a378                frexpl
 .text          0x000000000040a42c        0x0 0x4 /usr/local/popcorn/aarch64/lib/libc.a(wctomb.o)
 .text.wctomb   0x000000000040a42c       0x24 0x4 /usr/local/popcorn/aarch64/lib/libc.a(wctomb.o)
                0x000000000040a42c                wctomb
 .text          0x000000000040a450        0x0 0x4 /usr/local/popcorn/aarch64/lib/libc.a(sigaction.o)
 .text.__get_handler_set
                0x000000000040a450       0x10 0x4 /usr/local/popcorn/aarch64/lib/libc.a(sigaction.o)
                0x000000000040a450                __get_handler_set
 .text.__libc_sigaction
                0x000000000040a460      0x194 0x4 /usr/local/popcorn/aarch64/lib/libc.a(sigaction.o)
                0x000000000040a460                __libc_sigaction
 .text.__sigaction
                0x000000000040a5f4       0x40 0x4 /usr/local/popcorn/aarch64/lib/libc.a(sigaction.o)
                0x000000000040a5f4                __sigaction
                0x000000000040a5f4                sigaction
 .text          0x000000000040a634        0x0 0x4 /usr/local/popcorn/aarch64/lib/libc.a(__lockfile.o)
 .text.__lockfile
                0x000000000040a634       0x70 0x4 /usr/local/popcorn/aarch64/lib/libc.a(__lockfile.o)
                0x000000000040a634                __lockfile
 .text.__unlockfile
                0x000000000040a6a4       0x4c 0x4 /usr/local/popcorn/aarch64/lib/libc.a(__lockfile.o)
                0x000000000040a6a4                __unlockfile
 .text          0x000000000040a6f0        0x0 0x4 /usr/local/popcorn/aarch64/lib/libc.a(__stdio_close.o)
 .text.dummy    0x000000000040a6f0        0x4 0x4 /usr/local/popcorn/aarch64/lib/libc.a(__stdio_close.o)
 .text.__stdio_close
                0x000000000040a6f4       0x28 0x4 /usr/local/popcorn/aarch64/lib/libc.a(__stdio_close.o)
                0x000000000040a6f4                __stdio_close
 .text          0x000000000040a71c        0x0 0x4 /usr/local/popcorn/aarch64/lib/libc.a(__stdio_seek.o)
 .text.__stdio_seek
                0x000000000040a71c       0x14 0x4 /usr/local/popcorn/aarch64/lib/libc.a(__stdio_seek.o)
                0x000000000040a71c                __stdio_seek
 .text          0x000000000040a730        0x0 0x4 /usr/local/popcorn/aarch64/lib/libc.a(__stdio_write.o)
 .text.__stdio_write
                0x000000000040a730      0x138 0x4 /usr/local/popcorn/aarch64/lib/libc.a(__stdio_write.o)
                0x000000000040a730                __stdio_write
 .text          0x000000000040a868        0x0 0x4 /usr/local/popcorn/aarch64/lib/libc.a(__stdout_write.o)
 .text.__stdout_write
                0x000000000040a868       0x68 0x4 /usr/local/popcorn/aarch64/lib/libc.a(__stdout_write.o)
                0x000000000040a868                __stdout_write
 .text          0x000000000040a8d0        0x0 0x4 /usr/local/popcorn/aarch64/lib/libc.a(__string_read.o)
 .text.__string_read
                0x000000000040a8d0       0x84 0x4 /usr/local/popcorn/aarch64/lib/libc.a(__string_read.o)
                0x000000000040a8d0                __string_read
 .text          0x000000000040a954        0x0 0x4 /usr/local/popcorn/aarch64/lib/libc.a(__uflow.o)
 .text.__uflow  0x000000000040a954       0x54 0x4 /usr/local/popcorn/aarch64/lib/libc.a(__uflow.o)
                0x000000000040a954                __uflow
 .text          0x000000000040a9a8        0x0 0x4 /usr/local/popcorn/aarch64/lib/libc.a(fputc.o)
 .text.fputc    0x000000000040a9a8       0xd4 0x4 /usr/local/popcorn/aarch64/lib/libc.a(fputc.o)
                0x000000000040a9a8                fputc
 .text          0x000000000040aa7c        0x0 0x4 /usr/local/popcorn/aarch64/lib/libc.a(fwrite.o)
 .text.__fwritex
                0x000000000040aa7c       0xf4 0x4 /usr/local/popcorn/aarch64/lib/libc.a(fwrite.o)
                0x000000000040aa7c                __fwritex
 .text.fwrite   0x000000000040ab70       0x9c 0x4 /usr/local/popcorn/aarch64/lib/libc.a(fwrite.o)
                0x000000000040ab70                fwrite
                0x000000000040ab70                fwrite_unlocked
 .text          0x000000000040ac0c        0x0 0x4 /usr/local/popcorn/aarch64/lib/libc.a(vfscanf.o)
 .text.vfscanf  0x000000000040ac0c      0xd98 0x4 /usr/local/popcorn/aarch64/lib/libc.a(vfscanf.o)
                0x000000000040ac0c                __isoc99_vfscanf
                0x000000000040ac0c                vfscanf
 .text          0x000000000040b9a4        0x0 0x4 /usr/local/popcorn/aarch64/lib/libc.a(abs.o)
 .text.abs      0x000000000040b9a4        0xc 0x4 /usr/local/popcorn/aarch64/lib/libc.a(abs.o)
                0x000000000040b9a4                abs
 .text          0x000000000040b9b0        0x0 0x4 /usr/local/popcorn/aarch64/lib/libc.a(memchr.o)
 .text.memchr   0x000000000040b9b0       0xb0 0x4 /usr/local/popcorn/aarch64/lib/libc.a(memchr.o)
                0x000000000040b9b0                memchr
 .text          0x000000000040ba60        0x0 0x4 /usr/local/popcorn/aarch64/lib/libc.a(memrchr.o)
 .text.__memrchr
                0x000000000040ba60       0x2c 0x4 /usr/local/popcorn/aarch64/lib/libc.a(memrchr.o)
                0x000000000040ba60                __memrchr
                0x000000000040ba60                memrchr
 .text          0x000000000040ba8c        0x0 0x4 /usr/local/popcorn/aarch64/lib/libc.a(strdup.o)
 .text.__strdup
                0x000000000040ba8c       0x44 0x4 /usr/local/popcorn/aarch64/lib/libc.a(strdup.o)
                0x000000000040ba8c                __strdup
                0x000000000040ba8c                strdup
 .text          0x000000000040bad0        0x0 0x4 /usr/local/popcorn/aarch64/lib/libc.a(__set_thread_area.o)
 .text.__set_thread_area
                0x000000000040bad0        0xc 0x10 /usr/local/popcorn/aarch64/lib/libc.a(__set_thread_area.o)
                0x000000000040bad0                __set_thread_area
 .text          0x000000000040badc        0x0 0x4 /usr/local/popcorn/aarch64/lib/libc.a(__secs_to_tm.o)
 .text.__secs_to_tm
                0x000000000040badc      0x2f8 0x4 /usr/local/popcorn/aarch64/lib/libc.a(__secs_to_tm.o)
                0x000000000040badc                __secs_to_tm
 .text          0x000000000040bdd4        0x0 0x4 /usr/local/popcorn/aarch64/lib/libc.a(__tm_to_secs.o)
 .text.__tm_to_secs
                0x000000000040bdd4       0xc4 0x4 /usr/local/popcorn/aarch64/lib/libc.a(__tm_to_secs.o)
                0x000000000040bdd4                __tm_to_secs
 .text          0x000000000040be98        0x0 0x4 /usr/local/popcorn/aarch64/lib/libc.a(__tz.o)
 .text.__secs_to_zone
                0x000000000040be98      0x50c 0x4 /usr/local/popcorn/aarch64/lib/libc.a(__tz.o)
                0x000000000040be98                __secs_to_zone
 .text.rule_to_secs
                0x000000000040c3a4      0x16c 0x4 /usr/local/popcorn/aarch64/lib/libc.a(__tz.o)
 .text.__tzset  0x000000000040c510       0x30 0x4 /usr/local/popcorn/aarch64/lib/libc.a(__tz.o)
                0x000000000040c510                __tzset
                0x000000000040c510                tzset
 .text.__tm_to_tzname
                0x000000000040c540       0xa0 0x4 /usr/local/popcorn/aarch64/lib/libc.a(__tz.o)
                0x000000000040c540                __tm_to_tzname
 .text.do_tzset
                0x000000000040c5e0      0x674 0x4 /usr/local/popcorn/aarch64/lib/libc.a(__tz.o)
 .text.getname  0x000000000040cc54       0x90 0x4 /usr/local/popcorn/aarch64/lib/libc.a(__tz.o)
 .text.getoff   0x000000000040cce4      0x128 0x4 /usr/local/popcorn/aarch64/lib/libc.a(__tz.o)
 .text.getrule  0x000000000040ce0c      0x190 0x4 /usr/local/popcorn/aarch64/lib/libc.a(__tz.o)
 .text          0x000000000040cf9c        0x0 0x4 /usr/local/popcorn/aarch64/lib/libc.a(__year_to_secs.o)
 .text.__year_to_secs
                0x000000000040cf9c      0x168 0x4 /usr/local/popcorn/aarch64/lib/libc.a(__year_to_secs.o)
                0x000000000040cf9c                __year_to_secs
 .text          0x000000000040d104        0x0 0x4 /usr/local/popcorn/aarch64/lib/libc.a(getenv.o)
 .text.getenv   0x000000000040d104       0x8c 0x4 /usr/local/popcorn/aarch64/lib/libc.a(getenv.o)
                0x000000000040d104                getenv
 .text          0x000000000040d190        0x0 0x4 /usr/local/popcorn/aarch64/lib/libc.a(floatscan.o)
 .text.__floatscan
                0x000000000040d190     0x163c 0x4 /usr/local/popcorn/aarch64/lib/libc.a(floatscan.o)
                0x000000000040d190                __floatscan
 .text.scanexp  0x000000000040e7cc      0x21c 0x4 /usr/local/popcorn/aarch64/lib/libc.a(floatscan.o)
 .text          0x000000000040e9e8        0x0 0x4 /usr/local/popcorn/aarch64/lib/libc.a(fabs.o)
 .text.fabs     0x000000000040e9e8        0x8 0x4 /usr/local/popcorn/aarch64/lib/libc.a(fabs.o)
                0x000000000040e9e8                fabs
 .text          0x000000000040e9f0        0x0 0x4 /usr/local/popcorn/aarch64/lib/libc.a(copysignl.o)
 .text.copysignl
                0x000000000040e9f0       0x2c 0x4 /usr/local/popcorn/aarch64/lib/libc.a(copysignl.o)
                0x000000000040e9f0                copysignl
 .text          0x000000000040ea1c        0x0 0x4 /usr/local/popcorn/aarch64/lib/libc.a(fmodl.o)
 .text.fmodl    0x000000000040ea1c      0x254 0x4 /usr/local/popcorn/aarch64/lib/libc.a(fmodl.o)
                0x000000000040ea1c                fmodl
 .text          0x000000000040ec70        0x0 0x4 /usr/local/popcorn/aarch64/lib/libc.a(scalbn.o)
 .text.scalbn   0x000000000040ec70       0x88 0x4 /usr/local/popcorn/aarch64/lib/libc.a(scalbn.o)
                0x000000000040ec70                scalbn
 .text          0x000000000040ecf8        0x0 0x4 /usr/local/popcorn/aarch64/lib/libc.a(scalbnl.o)
 .text.scalbnl  0x000000000040ecf8       0xd4 0x4 /usr/local/popcorn/aarch64/lib/libc.a(scalbnl.o)
                0x000000000040ecf8                scalbnl
 .text          0x000000000040edcc        0x0 0x4 /usr/local/popcorn/aarch64/lib/libc.a(mbrtowc.o)
 .text.mbrtowc  0x000000000040edcc      0x144 0x4 /usr/local/popcorn/aarch64/lib/libc.a(mbrtowc.o)
                0x000000000040edcc                mbrtowc
 .text          0x000000000040ef10        0x0 0x4 /usr/local/popcorn/aarch64/lib/libc.a(mbsinit.o)
 .text.mbsinit  0x000000000040ef10       0x1c 0x4 /usr/local/popcorn/aarch64/lib/libc.a(mbsinit.o)
                0x000000000040ef10                mbsinit
 .text          0x000000000040ef2c        0x0 0x4 /usr/local/popcorn/aarch64/lib/libc.a(wcrtomb.o)
 .text.wcrtomb  0x000000000040ef2c      0x10c 0x4 /usr/local/popcorn/aarch64/lib/libc.a(wcrtomb.o)
                0x000000000040ef2c                wcrtomb
 .text          0x000000000040f038        0x0 0x4 /usr/local/popcorn/aarch64/lib/libc.a(restore.o)
 .text.__restore
                0x000000000040f040        0x8 0x10 /usr/local/popcorn/aarch64/lib/libc.a(restore.o)
                0x000000000040f040                __restore
 .text.__restore_rt
                0x000000000040f050        0x8 0x10 /usr/local/popcorn/aarch64/lib/libc.a(restore.o)
                0x000000000040f050                __restore_rt
 .text          0x000000000040f058        0x0 0x4 /usr/local/popcorn/aarch64/lib/libc.a(__overflow.o)
 .text.__overflow
                0x000000000040f058       0xa8 0x4 /usr/local/popcorn/aarch64/lib/libc.a(__overflow.o)
                0x000000000040f058                __overflow
 .text          0x000000000040f100        0x0 0x4 /usr/local/popcorn/aarch64/lib/libc.a(__toread.o)
 .text.__toread
                0x000000000040f100       0x88 0x4 /usr/local/popcorn/aarch64/lib/libc.a(__toread.o)
                0x000000000040f100                __toread
 .text.__toread_needs_stdio_exit
                0x000000000040f188        0x4 0x4 /usr/local/popcorn/aarch64/lib/libc.a(__toread.o)
                0x000000000040f188                __toread_needs_stdio_exit
 .text          0x000000000040f18c        0x0 0x4 /usr/local/popcorn/aarch64/lib/libc.a(__towrite.o)
 .text.__towrite
                0x000000000040f18c       0x50 0x4 /usr/local/popcorn/aarch64/lib/libc.a(__towrite.o)
                0x000000000040f18c                __towrite
 .text.__towrite_needs_stdio_exit
                0x000000000040f1dc        0x4 0x4 /usr/local/popcorn/aarch64/lib/libc.a(__towrite.o)
                0x000000000040f1dc                __towrite_needs_stdio_exit
 .text          0x000000000040f1e0        0x0 0x4 /usr/local/popcorn/aarch64/lib/libc.a(memcmp.o)
 .text.memcmp   0x000000000040f1e0       0x30 0x4 /usr/local/popcorn/aarch64/lib/libc.a(memcmp.o)
                0x000000000040f1e0                memcmp
 .text          0x000000000040f210        0x0 0x4 /usr/local/popcorn/aarch64/lib/libc.a(strchr.o)
 .text.strchr   0x000000000040f210       0x2c 0x4 /usr/local/popcorn/aarch64/lib/libc.a(strchr.o)
                0x000000000040f210                strchr
 .text          0x000000000040f23c        0x0 0x4 /usr/local/popcorn/aarch64/lib/libc.a(strchrnul.o)
 .text.__strchrnul
                0x000000000040f23c       0xac 0x4 /usr/local/popcorn/aarch64/lib/libc.a(strchrnul.o)
                0x000000000040f23c                __strchrnul
                0x000000000040f23c                strchrnul
 .text          0x000000000040f2e8        0x0 0x4 /usr/local/popcorn/aarch64/lib/libc.a(strncmp.o)
 .text.strncmp  0x000000000040f2e8       0x50 0x4 /usr/local/popcorn/aarch64/lib/libc.a(strncmp.o)
                0x000000000040f2e8                strncmp
 .text          0x000000000040f338        0x0 0x4 /usr/local/popcorn/aarch64/lib/libc.a(__map_file.o)
 .text.__map_file
                0x000000000040f338       0xac 0x4 /usr/local/popcorn/aarch64/lib/libc.a(__map_file.o)
                0x000000000040f338                __map_file
 .text          0x000000000040f3e4        0x0 0x4 /usr/local/popcorn/aarch64/lib/libc.a(__month_to_secs.o)
 .text.__month_to_secs
                0x000000000040f3e4       0x2c 0x4 /usr/local/popcorn/aarch64/lib/libc.a(__month_to_secs.o)
                0x000000000040f3e4                __month_to_secs
 .text          0x000000000040f410        0x0 0x4 /usr/local/popcorn/aarch64/lib/libc.a(internal.o)
 .text          0x000000000040f410        0x0 0x4 /usr/local/popcorn/aarch64/lib/libc.a(__stdio_exit.o)
 .text.__stdio_exit
                0x000000000040f410       0x48 0x4 /usr/local/popcorn/aarch64/lib/libc.a(__stdio_exit.o)
                0x000000000040f410                __stdio_exit
                0x000000000040f410                __stdio_exit_needed
 .text.close_file
                0x000000000040f458       0x70 0x4 /usr/local/popcorn/aarch64/lib/libc.a(__stdio_exit.o)
 .text          0x000000000040f4c8        0x0 0x4 /usr/local/popcorn/aarch64/lib/libc.a(ofl.o)
 .text.__ofl_lock
                0x000000000040f4c8       0x24 0x4 /usr/local/popcorn/aarch64/lib/libc.a(ofl.o)
                0x000000000040f4c8                __ofl_lock
 .text.__ofl_unlock
                0x000000000040f4ec        0xc 0x4 /usr/local/popcorn/aarch64/lib/libc.a(ofl.o)
                0x000000000040f4ec                __ofl_unlock
 .text          0x000000000040f4f8        0x0 0x4 /usr/local/popcorn/aarch64/lib/libmigrate.a(migrate.o)
 .text.node_available
                0x000000000040f4f8       0x30 0x4 /usr/local/popcorn/aarch64/lib/libmigrate.a(migrate.o)
                0x000000000040f4f8                node_available
 .text.current_arch
                0x000000000040f528       0x60 0x4 /usr/local/popcorn/aarch64/lib/libmigrate.a(migrate.o)
                0x000000000040f528                current_arch
 .text.current_nid
                0x000000000040f588       0x34 0x4 /usr/local/popcorn/aarch64/lib/libmigrate.a(migrate.o)
                0x000000000040f588                current_nid
 .text.__init_nodes_info
                0x000000000040f5bc       0xa8 0x4 /usr/local/popcorn/aarch64/lib/libmigrate.a(migrate.o)
                0x000000000040f5bc                __init_nodes_info
 .text.__migrate_shim_internal
                0x000000000040f664      0x580 0x4 /usr/local/popcorn/aarch64/lib/libmigrate.a(migrate.o)
                0x000000000040f664                __migrate_shim_internal
 .text.check_migrate
                0x000000000040fbe4       0x84 0x4 /usr/local/popcorn/aarch64/lib/libmigrate.a(migrate.o)
                0x000000000040fbe4                check_migrate
 .text.migrate  0x000000000040fc68       0x68 0x4 /usr/local/popcorn/aarch64/lib/libmigrate.a(migrate.o)
                0x000000000040fc68                migrate
 .text.migrate_schedule
                0x000000000040fcd0       0x6c 0x4 /usr/local/popcorn/aarch64/lib/libmigrate.a(migrate.o)
                0x000000000040fcd0                migrate_schedule
 .text.get_call_site
                0x000000000040fd3c        0x8 0x4 /usr/local/popcorn/aarch64/lib/libmigrate.a(migrate.o)
 .text          0x000000000040fd44        0x0 0x1 /usr/local/popcorn/aarch64/lib/libmigrate.a(migrate_x86_64.o)
 .text.__migrate_fixup_x86_64
                0x000000000040fd44        0x0 0x1 /usr/local/popcorn/aarch64/lib/libmigrate.a(migrate_x86_64.o)
                0x000000000040fd44                __migrate_fixup_x86_64
 .text          0x000000000040fd44        0x0 0x1 /usr/local/popcorn/aarch64/lib/libmigrate.a(migrate_powerpc64.o)
 .text.__migrate_fixup_powerpc64
                0x000000000040fd50        0x0 0x10 /usr/local/popcorn/aarch64/lib/libmigrate.a(migrate_powerpc64.o)
                0x000000000040fd50                __migrate_fixup_powerpc64
 .text          0x000000000040fd50        0x0 0x1 /usr/local/popcorn/aarch64/lib/libmigrate.a(migrate_aarch64.o)
 .text.__migrate_fixup_aarch64
                0x000000000040fd50       0x84 0x10 /usr/local/popcorn/aarch64/lib/libmigrate.a(migrate_aarch64.o)
                0x000000000040fd50                __migrate_fixup_aarch64
 .text          0x000000000040fdd4        0x0 0x4 /usr/local/popcorn/aarch64/lib/libmigrate.a(mapping.o)
 .text.set_default_node
                0x000000000040fdd4       0x10 0x4 /usr/local/popcorn/aarch64/lib/libmigrate.a(mapping.o)
                0x000000000040fdd4                set_default_node
 .text.cleanup  0x000000000040fde4       0xac 0x4 /usr/local/popcorn/aarch64/lib/libmigrate.a(mapping.o)
 .text.region_compare
                0x000000000040fe90       0x28 0x4 /usr/local/popcorn/aarch64/lib/libmigrate.a(mapping.o)
                0x000000000040fe90                region_compare
 .text.read_mapping_schedule
                0x000000000040feb8      0x360 0x4 /usr/local/popcorn/aarch64/lib/libmigrate.a(mapping.o)
 .text.region_find
                0x0000000000410218       0x28 0x4 /usr/local/popcorn/aarch64/lib/libmigrate.a(mapping.o)
                0x0000000000410218                region_find
 .text.get_node_mapping
                0x0000000000410240       0x98 0x4 /usr/local/popcorn/aarch64/lib/libmigrate.a(mapping.o)
                0x0000000000410240                get_node_mapping
 .text          0x00000000004102d8        0x0 0x4 /usr/local/popcorn/aarch64/lib/libstack-transform.a(userspace.o)
 .text.__st_userspace_ctor
                0x00000000004102d8      0x334 0x4 /usr/local/popcorn/aarch64/lib/libstack-transform.a(userspace.o)
                0x00000000004102d8                __st_userspace_ctor
 .text.__st_userspace_dtor
                0x000000000041060c       0x98 0x4 /usr/local/popcorn/aarch64/lib/libstack-transform.a(userspace.o)
                0x000000000041060c                __st_userspace_dtor
 .text.get_stack_bounds
                0x00000000004106a4       0xdc 0x4 /usr/local/popcorn/aarch64/lib/libstack-transform.a(userspace.o)
                0x00000000004106a4                get_stack_bounds
 .text.st_userspace_rewrite
                0x0000000000410780      0x170 0x4 /usr/local/popcorn/aarch64/lib/libstack-transform.a(userspace.o)
                0x0000000000410780                st_userspace_rewrite
 .text          0x00000000004108f0        0x0 0x4 /usr/local/popcorn/aarch64/lib/libstack-transform.a(init.o)
 .text.__st_ctor
                0x00000000004108f0        0x4 0x4 /usr/local/popcorn/aarch64/lib/libstack-transform.a(init.o)
 .text.__st_dtor
                0x00000000004108f4        0x4 0x4 /usr/local/popcorn/aarch64/lib/libstack-transform.a(init.o)
                0x00000000004108f4                __st_dtor
 .text.st_init  0x00000000004108f8      0x1e8 0x4 /usr/local/popcorn/aarch64/lib/libstack-transform.a(init.o)
                0x00000000004108f8                st_init
 .text.st_destroy
                0x0000000000410ae0       0x40 0x4 /usr/local/popcorn/aarch64/lib/libstack-transform.a(init.o)
                0x0000000000410ae0                st_destroy
 .text          0x0000000000410b20        0x0 0x4 /usr/local/popcorn/aarch64/lib/libstack-transform.a(rewrite.o)
 .text.st_rewrite_stack
                0x0000000000410b20      0x7e8 0x4 /usr/local/popcorn/aarch64/lib/libstack-transform.a(rewrite.o)
                0x0000000000410b20                st_rewrite_stack
 .text.rewrite_frame
                0x0000000000411308      0x3dc 0x4 /usr/local/popcorn/aarch64/lib/libstack-transform.a(rewrite.o)
 .text.st_rewrite_ondemand
                0x00000000004116e4       0x2c 0x4 /usr/local/popcorn/aarch64/lib/libstack-transform.a(rewrite.o)
                0x00000000004116e4                st_rewrite_ondemand
 .text.rewrite_val
                0x0000000000411710      0x298 0x4 /usr/local/popcorn/aarch64/lib/libstack-transform.a(rewrite.o)
 .text          0x00000000004119a8        0x0 0x4 /usr/local/popcorn/aarch64/lib/libstack-transform.a(unwind.o)
 .text.first_frame
                0x00000000004119a8        0xc 0x4 /usr/local/popcorn/aarch64/lib/libstack-transform.a(unwind.o)
                0x00000000004119a8                first_frame
 .text.calculate_cfa
                0x00000000004119b4       0x40 0x4 /usr/local/popcorn/aarch64/lib/libstack-transform.a(unwind.o)
                0x00000000004119b4                calculate_cfa
 .text.bootstrap_first_frame
                0x00000000004119f4       0x34 0x4 /usr/local/popcorn/aarch64/lib/libstack-transform.a(unwind.o)
                0x00000000004119f4                bootstrap_first_frame
 .text.bootstrap_first_frame_funcentry
                0x0000000000411a28       0x64 0x4 /usr/local/popcorn/aarch64/lib/libstack-transform.a(unwind.o)
                0x0000000000411a28                bootstrap_first_frame_funcentry
 .text.pop_frame
                0x0000000000411a8c      0x258 0x4 /usr/local/popcorn/aarch64/lib/libstack-transform.a(unwind.o)
                0x0000000000411a8c                pop_frame
 .text.pop_frame_funcentry
                0x0000000000411ce4      0x198 0x4 /usr/local/popcorn/aarch64/lib/libstack-transform.a(unwind.o)
                0x0000000000411ce4                pop_frame_funcentry
 .text.get_register_save_loc
                0x0000000000411e7c       0x84 0x4 /usr/local/popcorn/aarch64/lib/libstack-transform.a(unwind.o)
                0x0000000000411e7c                get_register_save_loc
 .text.clear_activation
                0x0000000000411f00       0x4c 0x4 /usr/local/popcorn/aarch64/lib/libstack-transform.a(unwind.o)
                0x0000000000411f00                clear_activation
 .text          0x0000000000411f4c        0x0 0x4 /usr/local/popcorn/aarch64/lib/libstack-transform.a(util.o)
 .text.arch_name
                0x0000000000411f4c       0x4c 0x4 /usr/local/popcorn/aarch64/lib/libstack-transform.a(util.o)
                0x0000000000411f4c                arch_name
 .text.get_regops
                0x0000000000411f98       0x48 0x4 /usr/local/popcorn/aarch64/lib/libstack-transform.a(util.o)
                0x0000000000411f98                get_regops
 .text.get_properties
                0x0000000000411fe0       0x48 0x4 /usr/local/popcorn/aarch64/lib/libstack-transform.a(util.o)
                0x0000000000411fe0                get_properties
 .text.get_section
                0x0000000000412028       0xc0 0x4 /usr/local/popcorn/aarch64/lib/libstack-transform.a(util.o)
                0x0000000000412028                get_section
 .text.get_num_entries
                0x00000000004120e8       0x64 0x4 /usr/local/popcorn/aarch64/lib/libstack-transform.a(util.o)
                0x00000000004120e8                get_num_entries
 .text.get_section_data
                0x000000000041214c       0x3c 0x4 /usr/local/popcorn/aarch64/lib/libstack-transform.a(util.o)
                0x000000000041214c                get_section_data
 .text.get_site_by_addr
                0x0000000000412188       0xa4 0x4 /usr/local/popcorn/aarch64/lib/libstack-transform.a(util.o)
                0x0000000000412188                get_site_by_addr
 .text.get_site_by_id
                0x000000000041222c       0x90 0x4 /usr/local/popcorn/aarch64/lib/libstack-transform.a(util.o)
                0x000000000041222c                get_site_by_id
 .text.get_unwind_offset_by_addr
                0x00000000004122bc       0xb4 0x4 /usr/local/popcorn/aarch64/lib/libstack-transform.a(util.o)
                0x00000000004122bc                get_unwind_offset_by_addr
 .text.get_function_address
                0x0000000000412370       0x88 0x4 /usr/local/popcorn/aarch64/lib/libstack-transform.a(util.o)
                0x0000000000412370                get_function_address
 .text          0x00000000004123f8        0x0 0x4 /usr/local/popcorn/aarch64/lib/libstack-transform.a(properties.o)
 .text.align_sp_aarch64
                0x00000000004123f8        0xc 0x4 /usr/local/popcorn/aarch64/lib/libstack-transform.a(properties.o)
 .text.is_callee_saved_aarch64
                0x0000000000412404       0x30 0x4 /usr/local/popcorn/aarch64/lib/libstack-transform.a(properties.o)
 .text.callee_reg_size_aarch64
                0x0000000000412434       0x58 0x4 /usr/local/popcorn/aarch64/lib/libstack-transform.a(properties.o)
 .text          0x000000000041248c        0x0 0x4 /usr/local/popcorn/aarch64/lib/libstack-transform.a(regs.o)
 .text.regset_default_aarch64
                0x000000000041248c       0x2c 0x4 /usr/local/popcorn/aarch64/lib/libstack-transform.a(regs.o)
 .text.regset_init_aarch64
                0x00000000004124b8       0x40 0x4 /usr/local/popcorn/aarch64/lib/libstack-transform.a(regs.o)
 .text.regset_free_aarch64
                0x00000000004124f8        0x4 0x4 /usr/local/popcorn/aarch64/lib/libstack-transform.a(regs.o)
 .text.regset_clone_aarch64
                0x00000000004124fc       0x14 0x4 /usr/local/popcorn/aarch64/lib/libstack-transform.a(regs.o)
 .text.regset_copyin_aarch64
                0x0000000000412510       0x10 0x4 /usr/local/popcorn/aarch64/lib/libstack-transform.a(regs.o)
 .text.regset_copyout_aarch64
                0x0000000000412520       0x14 0x4 /usr/local/popcorn/aarch64/lib/libstack-transform.a(regs.o)
 .text.pc_aarch64
                0x0000000000412534        0x8 0x4 /usr/local/popcorn/aarch64/lib/libstack-transform.a(regs.o)
 .text.sp_aarch64
                0x000000000041253c        0x8 0x4 /usr/local/popcorn/aarch64/lib/libstack-transform.a(regs.o)
 .text.fbp_aarch64
                0x0000000000412544        0x8 0x4 /usr/local/popcorn/aarch64/lib/libstack-transform.a(regs.o)
 .text.ra_reg_aarch64
                0x000000000041254c        0x8 0x4 /usr/local/popcorn/aarch64/lib/libstack-transform.a(regs.o)
 .text.set_pc_aarch64
                0x0000000000412554        0x8 0x4 /usr/local/popcorn/aarch64/lib/libstack-transform.a(regs.o)
 .text.set_sp_aarch64
                0x000000000041255c        0x8 0x4 /usr/local/popcorn/aarch64/lib/libstack-transform.a(regs.o)
 .text.set_fbp_aarch64
                0x0000000000412564        0x8 0x4 /usr/local/popcorn/aarch64/lib/libstack-transform.a(regs.o)
 .text.set_ra_reg_aarch64
                0x000000000041256c        0x8 0x4 /usr/local/popcorn/aarch64/lib/libstack-transform.a(regs.o)
 .text.setup_fbp_aarch64
                0x0000000000412574        0xc 0x4 /usr/local/popcorn/aarch64/lib/libstack-transform.a(regs.o)
 .text.reg_size_aarch64
                0x0000000000412580       0x54 0x4 /usr/local/popcorn/aarch64/lib/libstack-transform.a(regs.o)
 .text.reg_aarch64
                0x00000000004125d4      0x344 0x4 /usr/local/popcorn/aarch64/lib/libstack-transform.a(regs.o)
 .text          0x0000000000412918        0x0 0x4 /usr/local/popcorn/aarch64/lib/libstack-transform.a(properties.o)
 .text.align_sp_powerpc64
                0x0000000000412918       0x14 0x4 /usr/local/popcorn/aarch64/lib/libstack-transform.a(properties.o)
 .text.is_callee_saved_powerpc64
                0x000000000041292c       0x2c 0x4 /usr/local/popcorn/aarch64/lib/libstack-transform.a(properties.o)
 .text.callee_reg_size_powerpc64
                0x0000000000412958       0x50 0x4 /usr/local/popcorn/aarch64/lib/libstack-transform.a(properties.o)
 .text          0x00000000004129a8        0x0 0x4 /usr/local/popcorn/aarch64/lib/libstack-transform.a(regs.o)
 .text.regset_default_powerpc64
                0x00000000004129a8       0x2c 0x4 /usr/local/popcorn/aarch64/lib/libstack-transform.a(regs.o)
 .text.regset_init_powerpc64
                0x00000000004129d4       0x40 0x4 /usr/local/popcorn/aarch64/lib/libstack-transform.a(regs.o)
 .text.regset_free_powerpc64
                0x0000000000412a14        0x4 0x4 /usr/local/popcorn/aarch64/lib/libstack-transform.a(regs.o)
 .text.regset_clone_powerpc64
                0x0000000000412a18       0x14 0x4 /usr/local/popcorn/aarch64/lib/libstack-transform.a(regs.o)
 .text.regset_copyin_powerpc64
                0x0000000000412a2c       0x10 0x4 /usr/local/popcorn/aarch64/lib/libstack-transform.a(regs.o)
 .text.regset_copyout_powerpc64
                0x0000000000412a3c       0x14 0x4 /usr/local/popcorn/aarch64/lib/libstack-transform.a(regs.o)
 .text.pc_powerpc64
                0x0000000000412a50        0x8 0x4 /usr/local/popcorn/aarch64/lib/libstack-transform.a(regs.o)
 .text.sp_powerpc64
                0x0000000000412a58        0x8 0x4 /usr/local/popcorn/aarch64/lib/libstack-transform.a(regs.o)
 .text.fbp_powerpc64
                0x0000000000412a60        0x8 0x4 /usr/local/popcorn/aarch64/lib/libstack-transform.a(regs.o)
 .text.ra_reg_powerpc64
                0x0000000000412a68        0x8 0x4 /usr/local/popcorn/aarch64/lib/libstack-transform.a(regs.o)
 .text.set_pc_powerpc64
                0x0000000000412a70        0x8 0x4 /usr/local/popcorn/aarch64/lib/libstack-transform.a(regs.o)
 .text.set_sp_powerpc64
                0x0000000000412a78        0x8 0x4 /usr/local/popcorn/aarch64/lib/libstack-transform.a(regs.o)
 .text.set_fbp_powerpc64
                0x0000000000412a80        0x8 0x4 /usr/local/popcorn/aarch64/lib/libstack-transform.a(regs.o)
 .text.set_ra_reg_powerpc64
                0x0000000000412a88        0x8 0x4 /usr/local/popcorn/aarch64/lib/libstack-transform.a(regs.o)
 .text.setup_fbp_powerpc64
                0x0000000000412a90        0xc 0x4 /usr/local/popcorn/aarch64/lib/libstack-transform.a(regs.o)
 .text.reg_size_powerpc64
                0x0000000000412a9c       0x54 0x4 /usr/local/popcorn/aarch64/lib/libstack-transform.a(regs.o)
 .text.reg_powerpc64
                0x0000000000412af0      0x35c 0x4 /usr/local/popcorn/aarch64/lib/libstack-transform.a(regs.o)
 .text          0x0000000000412e4c        0x0 0x4 /usr/local/popcorn/aarch64/lib/libstack-transform.a(properties.o)
 .text.align_sp_x86_64
                0x0000000000412e4c       0x10 0x4 /usr/local/popcorn/aarch64/lib/libstack-transform.a(properties.o)
 .text.is_callee_saved_x86_64
                0x0000000000412e5c       0x2c 0x4 /usr/local/popcorn/aarch64/lib/libstack-transform.a(properties.o)
 .text.callee_reg_size_x86_64
                0x0000000000412e88       0x54 0x4 /usr/local/popcorn/aarch64/lib/libstack-transform.a(properties.o)
 .text          0x0000000000412edc        0x0 0x4 /usr/local/popcorn/aarch64/lib/libstack-transform.a(regs.o)
 .text.regset_default_x86_64
                0x0000000000412edc       0x2c 0x4 /usr/local/popcorn/aarch64/lib/libstack-transform.a(regs.o)
 .text.regset_init_x86_64
                0x0000000000412f08       0x40 0x4 /usr/local/popcorn/aarch64/lib/libstack-transform.a(regs.o)
 .text.regset_free_x86_64
                0x0000000000412f48        0x4 0x4 /usr/local/popcorn/aarch64/lib/libstack-transform.a(regs.o)
 .text.regset_clone_x86_64
                0x0000000000412f4c       0x14 0x4 /usr/local/popcorn/aarch64/lib/libstack-transform.a(regs.o)
 .text.regset_copyin_x86_64
                0x0000000000412f60       0x10 0x4 /usr/local/popcorn/aarch64/lib/libstack-transform.a(regs.o)
 .text.regset_copyout_x86_64
                0x0000000000412f70       0x14 0x4 /usr/local/popcorn/aarch64/lib/libstack-transform.a(regs.o)
 .text.pc_x86_64
                0x0000000000412f84        0x8 0x4 /usr/local/popcorn/aarch64/lib/libstack-transform.a(regs.o)
 .text.sp_x86_64
                0x0000000000412f8c        0x8 0x4 /usr/local/popcorn/aarch64/lib/libstack-transform.a(regs.o)
 .text.fbp_x86_64
                0x0000000000412f94        0x8 0x4 /usr/local/popcorn/aarch64/lib/libstack-transform.a(regs.o)
 .text.ra_reg_x86_64
                0x0000000000412f9c       0x2c 0x4 /usr/local/popcorn/aarch64/lib/libstack-transform.a(regs.o)
 .text.set_pc_x86_64
                0x0000000000412fc8        0x8 0x4 /usr/local/popcorn/aarch64/lib/libstack-transform.a(regs.o)
 .text.set_sp_x86_64
                0x0000000000412fd0        0x8 0x4 /usr/local/popcorn/aarch64/lib/libstack-transform.a(regs.o)
 .text.set_fbp_x86_64
                0x0000000000412fd8        0x8 0x4 /usr/local/popcorn/aarch64/lib/libstack-transform.a(regs.o)
 .text.set_ra_reg_x86_64
                0x0000000000412fe0       0x2c 0x4 /usr/local/popcorn/aarch64/lib/libstack-transform.a(regs.o)
 .text.setup_fbp_x86_64
                0x000000000041300c        0xc 0x4 /usr/local/popcorn/aarch64/lib/libstack-transform.a(regs.o)
 .text.reg_size_x86_64
                0x0000000000413018       0x50 0x4 /usr/local/popcorn/aarch64/lib/libstack-transform.a(regs.o)
 .text.reg_x86_64
                0x0000000000413068      0x1d0 0x4 /usr/local/popcorn/aarch64/lib/libstack-transform.a(regs.o)
 .text          0x0000000000413238        0x0 0x4 /usr/local/popcorn/aarch64/lib/libstack-transform.a(data.o)
 .text.put_val  0x0000000000413238      0x254 0x4 /usr/local/popcorn/aarch64/lib/libstack-transform.a(data.o)
                0x0000000000413238                put_val
 .text.get_dest_loc
                0x000000000041348c       0xdc 0x4 /usr/local/popcorn/aarch64/lib/libstack-transform.a(data.o)
 .text.put_val_arch
                0x0000000000413568      0x408 0x4 /usr/local/popcorn/aarch64/lib/libstack-transform.a(data.o)
                0x0000000000413568                put_val_arch
 .text.put_val_data
                0x0000000000413970      0x114 0x4 /usr/local/popcorn/aarch64/lib/libstack-transform.a(data.o)
                0x0000000000413970                put_val_data
 .text.points_to_stack
                0x0000000000413a84      0x118 0x4 /usr/local/popcorn/aarch64/lib/libstack-transform.a(data.o)
                0x0000000000413a84                points_to_stack
 .text.points_to_data
                0x0000000000413b9c      0x190 0x4 /usr/local/popcorn/aarch64/lib/libstack-transform.a(data.o)
                0x0000000000413b9c                points_to_data
 .text.set_return_address
                0x0000000000413d2c       0x24 0x4 /usr/local/popcorn/aarch64/lib/libstack-transform.a(data.o)
                0x0000000000413d2c                set_return_address
 .text.set_return_address_funcentry
                0x0000000000413d50       0x44 0x4 /usr/local/popcorn/aarch64/lib/libstack-transform.a(data.o)
                0x0000000000413d50                set_return_address_funcentry
 .text.get_savedfbp_loc
                0x0000000000413d94       0x90 0x4 /usr/local/popcorn/aarch64/lib/libstack-transform.a(data.o)
                0x0000000000413d94                get_savedfbp_loc
 .text          0x0000000000413e24        0x0 0x4 /usr/local/popcorn/aarch64/lib/libelf.a(begin.o)
 .text.elf_begin
                0x0000000000413e24      0xad0 0x4 /usr/local/popcorn/aarch64/lib/libelf.a(begin.o)
                0x0000000000413e24                elf_begin
 .text._elf_check_type
                0x00000000004148f4      0x264 0x4 /usr/local/popcorn/aarch64/lib/libelf.a(begin.o)
 .text.elf_memory
                0x0000000000414b58       0xa8 0x4 /usr/local/popcorn/aarch64/lib/libelf.a(begin.o)
                0x0000000000414b58                elf_memory
 .text.gelf_getclass
                0x0000000000414c00       0x28 0x4 /usr/local/popcorn/aarch64/lib/libelf.a(begin.o)
                0x0000000000414c00                gelf_getclass
 .text          0x0000000000414c28        0x0 0x4 /usr/local/popcorn/aarch64/lib/libelf.a(end.o)
 .text.elf_end  0x0000000000414c28      0x198 0x4 /usr/local/popcorn/aarch64/lib/libelf.a(end.o)
                0x0000000000414c28                elf_end
 .text          0x0000000000414dc0        0x0 0x4 /usr/local/popcorn/aarch64/lib/libelf.a(getdata.o)
 .text.elf_getdata
                0x0000000000414dc0      0x280 0x4 /usr/local/popcorn/aarch64/lib/libelf.a(getdata.o)
                0x0000000000414dc0                elf_getdata
 .text          0x0000000000415040        0x0 0x4 /usr/local/popcorn/aarch64/lib/libelf.a(getident.o)
 .text.elf_getident
                0x0000000000415040       0x7c 0x4 /usr/local/popcorn/aarch64/lib/libelf.a(getident.o)
                0x0000000000415040                elf_getident
 .text          0x00000000004150bc        0x0 0x4 /usr/local/popcorn/aarch64/lib/libelf.a(nextscn.o)
 .text.elf_nextscn
                0x00000000004150bc       0xb4 0x4 /usr/local/popcorn/aarch64/lib/libelf.a(nextscn.o)
                0x00000000004150bc                elf_nextscn
 .text          0x0000000000415170        0x0 0x4 /usr/local/popcorn/aarch64/lib/libelf.a(strptr.o)
 .text.elf_strptr
                0x0000000000415170      0x1b0 0x4 /usr/local/popcorn/aarch64/lib/libelf.a(strptr.o)
                0x0000000000415170                elf_strptr
 .text          0x0000000000415320        0x0 0x4 /usr/local/popcorn/aarch64/lib/libelf.a(version.o)
 .text.elf_version
                0x0000000000415320       0x80 0x4 /usr/local/popcorn/aarch64/lib/libelf.a(version.o)
                0x0000000000415320                elf_version
 .text          0x00000000004153a0        0x0 0x4 /usr/local/popcorn/aarch64/lib/libelf.a(32.getehdr.o)
 .text._elf_getehdr
                0x00000000004153a0       0x88 0x4 /usr/local/popcorn/aarch64/lib/libelf.a(32.getehdr.o)
                0x00000000004153a0                _elf_getehdr
 .text.elf32_getehdr
                0x0000000000415428       0x88 0x4 /usr/local/popcorn/aarch64/lib/libelf.a(32.getehdr.o)
                0x0000000000415428                elf32_getehdr
 .text.elf64_getehdr
                0x00000000004154b0       0x88 0x4 /usr/local/popcorn/aarch64/lib/libelf.a(32.getehdr.o)
                0x00000000004154b0                elf64_getehdr
 .text          0x0000000000415538        0x0 0x4 /usr/local/popcorn/aarch64/lib/libelf.a(32.xlatetof.o)
 .text._elf32_xltsize
                0x0000000000415538       0x98 0x4 /usr/local/popcorn/aarch64/lib/libelf.a(32.xlatetof.o)
                0x0000000000415538                _elf32_xltsize
 .text.elf32_xlatetom
                0x00000000004155d0      0x158 0x4 /usr/local/popcorn/aarch64/lib/libelf.a(32.xlatetof.o)
                0x00000000004155d0                elf32_xlatetom
 .text.elf32_xlatetof
                0x0000000000415728      0x158 0x4 /usr/local/popcorn/aarch64/lib/libelf.a(32.xlatetof.o)
                0x0000000000415728                elf32_xlatetof
 .text.byte_copy
                0x0000000000415880      0x184 0x4 /usr/local/popcorn/aarch64/lib/libelf.a(32.xlatetof.o)
 .text.addr_32L__tom
                0x0000000000415a04       0x4c 0x4 /usr/local/popcorn/aarch64/lib/libelf.a(32.xlatetof.o)
 .text.addr_32L__tof
                0x0000000000415a50       0x4c 0x4 /usr/local/popcorn/aarch64/lib/libelf.a(32.xlatetof.o)
 .text.dyn_32L11_tom
                0x0000000000415a9c       0x74 0x4 /usr/local/popcorn/aarch64/lib/libelf.a(32.xlatetof.o)
 .text.dyn_32L11_tof
                0x0000000000415b10       0x74 0x4 /usr/local/popcorn/aarch64/lib/libelf.a(32.xlatetof.o)
 .text.ehdr_32L11_tom
                0x0000000000415b84      0x1ac 0x4 /usr/local/popcorn/aarch64/lib/libelf.a(32.xlatetof.o)
 .text.ehdr_32L11_tof
                0x0000000000415d30      0x1ac 0x4 /usr/local/popcorn/aarch64/lib/libelf.a(32.xlatetof.o)
 .text.half_32L__tom
                0x0000000000415edc      0x10c 0x4 /usr/local/popcorn/aarch64/lib/libelf.a(32.xlatetof.o)
 .text.half_32L__tof
                0x0000000000415fe8      0x138 0x4 /usr/local/popcorn/aarch64/lib/libelf.a(32.xlatetof.o)
 .text.off_32L__tom
                0x0000000000416120       0x4c 0x4 /usr/local/popcorn/aarch64/lib/libelf.a(32.xlatetof.o)
 .text.off_32L__tof
                0x000000000041616c       0x4c 0x4 /usr/local/popcorn/aarch64/lib/libelf.a(32.xlatetof.o)
 .text.phdr_32L11_tom
                0x00000000004161b8      0x14c 0x4 /usr/local/popcorn/aarch64/lib/libelf.a(32.xlatetof.o)
 .text.phdr_32L11_tof
                0x0000000000416304      0x14c 0x4 /usr/local/popcorn/aarch64/lib/libelf.a(32.xlatetof.o)
 .text.rela_32L11_tom
                0x0000000000416450       0xb0 0x4 /usr/local/popcorn/aarch64/lib/libelf.a(32.xlatetof.o)
 .text.rela_32L11_tof
                0x0000000000416500       0xb0 0x4 /usr/local/popcorn/aarch64/lib/libelf.a(32.xlatetof.o)
 .text.rel_32L11_tom
                0x00000000004165b0       0x74 0x4 /usr/local/popcorn/aarch64/lib/libelf.a(32.xlatetof.o)
 .text.rel_32L11_tof
                0x0000000000416624       0x74 0x4 /usr/local/popcorn/aarch64/lib/libelf.a(32.xlatetof.o)
 .text.shdr_32L11_tom
                0x0000000000416698      0x1ac 0x4 /usr/local/popcorn/aarch64/lib/libelf.a(32.xlatetof.o)
 .text.shdr_32L11_tof
                0x0000000000416844      0x1ac 0x4 /usr/local/popcorn/aarch64/lib/libelf.a(32.xlatetof.o)
 .text.sword_32L__tom
                0x00000000004169f0       0x4c 0x4 /usr/local/popcorn/aarch64/lib/libelf.a(32.xlatetof.o)
 .text.sword_32L__tof
                0x0000000000416a3c       0x4c 0x4 /usr/local/popcorn/aarch64/lib/libelf.a(32.xlatetof.o)
 .text.sym_32L11_tom
                0x0000000000416a88       0xb8 0x4 /usr/local/popcorn/aarch64/lib/libelf.a(32.xlatetof.o)
 .text.sym_32L11_tof
                0x0000000000416b40       0xb8 0x4 /usr/local/popcorn/aarch64/lib/libelf.a(32.xlatetof.o)
 .text.word_32L__tom
                0x0000000000416bf8       0x4c 0x4 /usr/local/popcorn/aarch64/lib/libelf.a(32.xlatetof.o)
 .text.word_32L__tof
                0x0000000000416c44       0x4c 0x4 /usr/local/popcorn/aarch64/lib/libelf.a(32.xlatetof.o)
 .text.addr_32M__tom
                0x0000000000416c90       0x48 0x4 /usr/local/popcorn/aarch64/lib/libelf.a(32.xlatetof.o)
 .text.addr_32M__tof
                0x0000000000416cd8       0x48 0x4 /usr/local/popcorn/aarch64/lib/libelf.a(32.xlatetof.o)
 .text.dyn_32M11_tom
                0x0000000000416d20       0x70 0x4 /usr/local/popcorn/aarch64/lib/libelf.a(32.xlatetof.o)
 .text.dyn_32M11_tof
                0x0000000000416d90       0x70 0x4 /usr/local/popcorn/aarch64/lib/libelf.a(32.xlatetof.o)
 .text.ehdr_32M11_tom
                0x0000000000416e00      0x1ac 0x4 /usr/local/popcorn/aarch64/lib/libelf.a(32.xlatetof.o)
 .text.ehdr_32M11_tof
                0x0000000000416fac      0x1ac 0x4 /usr/local/popcorn/aarch64/lib/libelf.a(32.xlatetof.o)
 .text.half_32M__tom
                0x0000000000417158      0x108 0x4 /usr/local/popcorn/aarch64/lib/libelf.a(32.xlatetof.o)
 .text.half_32M__tof
                0x0000000000417260      0x134 0x4 /usr/local/popcorn/aarch64/lib/libelf.a(32.xlatetof.o)
 .text.off_32M__tom
                0x0000000000417394       0x48 0x4 /usr/local/popcorn/aarch64/lib/libelf.a(32.xlatetof.o)
 .text.off_32M__tof
                0x00000000004173dc       0x48 0x4 /usr/local/popcorn/aarch64/lib/libelf.a(32.xlatetof.o)
 .text.phdr_32M11_tom
                0x0000000000417424      0x148 0x4 /usr/local/popcorn/aarch64/lib/libelf.a(32.xlatetof.o)
 .text.phdr_32M11_tof
                0x000000000041756c      0x148 0x4 /usr/local/popcorn/aarch64/lib/libelf.a(32.xlatetof.o)
 .text.rela_32M11_tom
                0x00000000004176b4       0xac 0x4 /usr/local/popcorn/aarch64/lib/libelf.a(32.xlatetof.o)
 .text.rela_32M11_tof
                0x0000000000417760       0xac 0x4 /usr/local/popcorn/aarch64/lib/libelf.a(32.xlatetof.o)
 .text.rel_32M11_tom
                0x000000000041780c       0x70 0x4 /usr/local/popcorn/aarch64/lib/libelf.a(32.xlatetof.o)
 .text.rel_32M11_tof
                0x000000000041787c       0x70 0x4 /usr/local/popcorn/aarch64/lib/libelf.a(32.xlatetof.o)
 .text.shdr_32M11_tom
                0x00000000004178ec      0x1a8 0x4 /usr/local/popcorn/aarch64/lib/libelf.a(32.xlatetof.o)
 .text.shdr_32M11_tof
                0x0000000000417a94      0x1a8 0x4 /usr/local/popcorn/aarch64/lib/libelf.a(32.xlatetof.o)
 .text.sword_32M__tom
                0x0000000000417c3c       0x48 0x4 /usr/local/popcorn/aarch64/lib/libelf.a(32.xlatetof.o)
 .text.sword_32M__tof
                0x0000000000417c84       0x48 0x4 /usr/local/popcorn/aarch64/lib/libelf.a(32.xlatetof.o)
 .text.sym_32M11_tom
                0x0000000000417ccc       0xb4 0x4 /usr/local/popcorn/aarch64/lib/libelf.a(32.xlatetof.o)
 .text.sym_32M11_tof
                0x0000000000417d80       0xb4 0x4 /usr/local/popcorn/aarch64/lib/libelf.a(32.xlatetof.o)
 .text.word_32M__tom
                0x0000000000417e34       0x48 0x4 /usr/local/popcorn/aarch64/lib/libelf.a(32.xlatetof.o)
 .text.word_32M__tof
                0x0000000000417e7c       0x48 0x4 /usr/local/popcorn/aarch64/lib/libelf.a(32.xlatetof.o)
 .text.array_copy
                0x0000000000417ec4      0x138 0x4 /usr/local/popcorn/aarch64/lib/libelf.a(32.xlatetof.o)
 .text          0x0000000000417ffc        0x0 0x4 /usr/local/popcorn/aarch64/lib/libelf.a(cook.o)
 .text._elf_scn_type
                0x0000000000417ffc       0xac 0x4 /usr/local/popcorn/aarch64/lib/libelf.a(cook.o)
                0x0000000000417ffc                _elf_scn_type
 .text._elf_xlatetom
                0x00000000004180a8       0x50 0x4 /usr/local/popcorn/aarch64/lib/libelf.a(cook.o)
                0x00000000004180a8                _elf_xlatetom
 .text._elf_cook
                0x00000000004180f8      0x75c 0x4 /usr/local/popcorn/aarch64/lib/libelf.a(cook.o)
                0x00000000004180f8                _elf_cook
 .text._elf_item
                0x0000000000418854      0x1a0 0x4 /usr/local/popcorn/aarch64/lib/libelf.a(cook.o)
 .text          0x00000000004189f4        0x0 0x4 /usr/local/popcorn/aarch64/lib/libelf.a(data.o)
 .text          0x00000000004189f4        0x0 0x4 /usr/local/popcorn/aarch64/lib/libelf.a(input.o)
 .text._elf_read
                0x00000000004189f4      0x140 0x4 /usr/local/popcorn/aarch64/lib/libelf.a(input.o)
                0x00000000004189f4                _elf_read
 .text._elf_mmap
                0x0000000000418b34        0x8 0x4 /usr/local/popcorn/aarch64/lib/libelf.a(input.o)
                0x0000000000418b34                _elf_mmap
 .text          0x0000000000418b3c        0x0 0x4 /usr/local/popcorn/aarch64/lib/libelf.a(x.elfext.o)
 .text.elf_getphdrnum
                0x0000000000418b3c       0x80 0x4 /usr/local/popcorn/aarch64/lib/libelf.a(x.elfext.o)
                0x0000000000418b3c                elf_getphdrnum
 .text.elf_getshdrnum
                0x0000000000418bbc       0x94 0x4 /usr/local/popcorn/aarch64/lib/libelf.a(x.elfext.o)
                0x0000000000418bbc                elf_getshdrnum
 .text.elf_getshdrstrndx
                0x0000000000418c50       0xf8 0x4 /usr/local/popcorn/aarch64/lib/libelf.a(x.elfext.o)
                0x0000000000418c50                elf_getshdrstrndx
 .text.elf_getphnum
                0x0000000000418d48       0x78 0x4 /usr/local/popcorn/aarch64/lib/libelf.a(x.elfext.o)
                0x0000000000418d48                elf_getphnum
 .text.elf_getshnum
                0x0000000000418dc0       0x8c 0x4 /usr/local/popcorn/aarch64/lib/libelf.a(x.elfext.o)
                0x0000000000418dc0                elf_getshnum
 .text.elf_getshstrndx
                0x0000000000418e4c      0x104 0x4 /usr/local/popcorn/aarch64/lib/libelf.a(x.elfext.o)
                0x0000000000418e4c                elf_getshstrndx
 .text.elfx_update_shstrndx
                0x0000000000418f50       0xf4 0x4 /usr/local/popcorn/aarch64/lib/libelf.a(x.elfext.o)
                0x0000000000418f50                elfx_update_shstrndx
 .text          0x0000000000419044        0x0 0x4 /usr/local/popcorn/aarch64/lib/libelf.a(64.xlatetof.o)
 .text._elf64_xltsize
                0x0000000000419044       0x98 0x4 /usr/local/popcorn/aarch64/lib/libelf.a(64.xlatetof.o)
                0x0000000000419044                _elf64_xltsize
 .text.elf64_xlatetom
                0x00000000004190dc      0x158 0x4 /usr/local/popcorn/aarch64/lib/libelf.a(64.xlatetof.o)
                0x00000000004190dc                elf64_xlatetom
 .text.elf64_xlatetof
                0x0000000000419234      0x158 0x4 /usr/local/popcorn/aarch64/lib/libelf.a(64.xlatetof.o)
                0x0000000000419234                elf64_xlatetof
 .text.gelf_xlatetom
                0x000000000041938c      0x1b4 0x4 /usr/local/popcorn/aarch64/lib/libelf.a(64.xlatetof.o)
                0x000000000041938c                gelf_xlatetom
 .text.gelf_xlatetof
                0x0000000000419540      0x1b4 0x4 /usr/local/popcorn/aarch64/lib/libelf.a(64.xlatetof.o)
                0x0000000000419540                gelf_xlatetof
 .text.byte_copy
                0x00000000004196f4      0x184 0x4 /usr/local/popcorn/aarch64/lib/libelf.a(64.xlatetof.o)
 .text.addr_64L__tom
                0x0000000000419878       0x54 0x4 /usr/local/popcorn/aarch64/lib/libelf.a(64.xlatetof.o)
 .text.addr_64L__tof
                0x00000000004198cc       0x54 0x4 /usr/local/popcorn/aarch64/lib/libelf.a(64.xlatetof.o)
 .text.dyn_64L11_tom
                0x0000000000419920       0x64 0x4 /usr/local/popcorn/aarch64/lib/libelf.a(64.xlatetof.o)
 .text.dyn_64L11_tof
                0x0000000000419984       0x64 0x4 /usr/local/popcorn/aarch64/lib/libelf.a(64.xlatetof.o)
 .text.ehdr_64L11_tom
                0x00000000004199e8      0x144 0x4 /usr/local/popcorn/aarch64/lib/libelf.a(64.xlatetof.o)
 .text.ehdr_64L11_tof
                0x0000000000419b2c      0x144 0x4 /usr/local/popcorn/aarch64/lib/libelf.a(64.xlatetof.o)
 .text.half_64L__tom
                0x0000000000419c70      0x10c 0x4 /usr/local/popcorn/aarch64/lib/libelf.a(64.xlatetof.o)
 .text.half_64L__tof
                0x0000000000419d7c      0x138 0x4 /usr/local/popcorn/aarch64/lib/libelf.a(64.xlatetof.o)
 .text.off_64L__tom
                0x0000000000419eb4       0x54 0x4 /usr/local/popcorn/aarch64/lib/libelf.a(64.xlatetof.o)
 .text.off_64L__tof
                0x0000000000419f08       0x54 0x4 /usr/local/popcorn/aarch64/lib/libelf.a(64.xlatetof.o)
 .text.phdr_64L11_tom
                0x0000000000419f5c      0x114 0x4 /usr/local/popcorn/aarch64/lib/libelf.a(64.xlatetof.o)
 .text.phdr_64L11_tof
                0x000000000041a070      0x114 0x4 /usr/local/popcorn/aarch64/lib/libelf.a(64.xlatetof.o)
 .text.rela_64L11_tom
                0x000000000041a184       0x88 0x4 /usr/local/popcorn/aarch64/lib/libelf.a(64.xlatetof.o)
 .text.rela_64L11_tof
                0x000000000041a20c       0x88 0x4 /usr/local/popcorn/aarch64/lib/libelf.a(64.xlatetof.o)
 .text.rel_64L11_tom
                0x000000000041a294       0x64 0x4 /usr/local/popcorn/aarch64/lib/libelf.a(64.xlatetof.o)
 .text.rel_64L11_tof
                0x000000000041a2f8       0x64 0x4 /usr/local/popcorn/aarch64/lib/libelf.a(64.xlatetof.o)
 .text.shdr_64L11_tom
                0x000000000041a35c      0x13c 0x4 /usr/local/popcorn/aarch64/lib/libelf.a(64.xlatetof.o)
 .text.shdr_64L11_tof
                0x000000000041a498      0x13c 0x4 /usr/local/popcorn/aarch64/lib/libelf.a(64.xlatetof.o)
 .text.sword_64L__tom
                0x000000000041a5d4       0x4c 0x4 /usr/local/popcorn/aarch64/lib/libelf.a(64.xlatetof.o)
 .text.sword_64L__tof
                0x000000000041a620       0x4c 0x4 /usr/local/popcorn/aarch64/lib/libelf.a(64.xlatetof.o)
 .text.sym_64L11_tom
                0x000000000041a66c       0xc0 0x4 /usr/local/popcorn/aarch64/lib/libelf.a(64.xlatetof.o)
 .text.sym_64L11_tof
                0x000000000041a72c       0xc0 0x4 /usr/local/popcorn/aarch64/lib/libelf.a(64.xlatetof.o)
 .text.word_64L__tom
                0x000000000041a7ec       0x4c 0x4 /usr/local/popcorn/aarch64/lib/libelf.a(64.xlatetof.o)
 .text.word_64L__tof
                0x000000000041a838       0x4c 0x4 /usr/local/popcorn/aarch64/lib/libelf.a(64.xlatetof.o)
 .text.sxword_64L__tom
                0x000000000041a884       0x54 0x4 /usr/local/popcorn/aarch64/lib/libelf.a(64.xlatetof.o)
 .text.sxword_64L__tof
                0x000000000041a8d8       0x54 0x4 /usr/local/popcorn/aarch64/lib/libelf.a(64.xlatetof.o)
 .text.xword_64L__tom
                0x000000000041a92c       0x54 0x4 /usr/local/popcorn/aarch64/lib/libelf.a(64.xlatetof.o)
 .text.xword_64L__tof
                0x000000000041a980       0x54 0x4 /usr/local/popcorn/aarch64/lib/libelf.a(64.xlatetof.o)
 .text.addr_64M__tom
                0x000000000041a9d4       0x54 0x4 /usr/local/popcorn/aarch64/lib/libelf.a(64.xlatetof.o)
 .text.addr_64M__tof
                0x000000000041aa28       0x54 0x4 /usr/local/popcorn/aarch64/lib/libelf.a(64.xlatetof.o)
 .text.dyn_64M11_tom
                0x000000000041aa7c       0x64 0x4 /usr/local/popcorn/aarch64/lib/libelf.a(64.xlatetof.o)
 .text.dyn_64M11_tof
                0x000000000041aae0       0x64 0x4 /usr/local/popcorn/aarch64/lib/libelf.a(64.xlatetof.o)
 .text.ehdr_64M11_tom
                0x000000000041ab44      0x144 0x4 /usr/local/popcorn/aarch64/lib/libelf.a(64.xlatetof.o)
 .text.ehdr_64M11_tof
                0x000000000041ac88      0x144 0x4 /usr/local/popcorn/aarch64/lib/libelf.a(64.xlatetof.o)
 .text.half_64M__tom
                0x000000000041adcc      0x108 0x4 /usr/local/popcorn/aarch64/lib/libelf.a(64.xlatetof.o)
 .text.half_64M__tof
                0x000000000041aed4      0x134 0x4 /usr/local/popcorn/aarch64/lib/libelf.a(64.xlatetof.o)
 .text.off_64M__tom
                0x000000000041b008       0x54 0x4 /usr/local/popcorn/aarch64/lib/libelf.a(64.xlatetof.o)
 .text.off_64M__tof
                0x000000000041b05c       0x54 0x4 /usr/local/popcorn/aarch64/lib/libelf.a(64.xlatetof.o)
 .text.phdr_64M11_tom
                0x000000000041b0b0       0xfc 0x4 /usr/local/popcorn/aarch64/lib/libelf.a(64.xlatetof.o)
 .text.phdr_64M11_tof
                0x000000000041b1ac       0xfc 0x4 /usr/local/popcorn/aarch64/lib/libelf.a(64.xlatetof.o)
 .text.rela_64M11_tom
                0x000000000041b2a8       0x88 0x4 /usr/local/popcorn/aarch64/lib/libelf.a(64.xlatetof.o)
 .text.rela_64M11_tof
                0x000000000041b330       0x88 0x4 /usr/local/popcorn/aarch64/lib/libelf.a(64.xlatetof.o)
 .text.rel_64M11_tom
                0x000000000041b3b8       0x64 0x4 /usr/local/popcorn/aarch64/lib/libelf.a(64.xlatetof.o)
 .text.rel_64M11_tof
                0x000000000041b41c       0x64 0x4 /usr/local/popcorn/aarch64/lib/libelf.a(64.xlatetof.o)
 .text.shdr_64M11_tom
                0x000000000041b480      0x124 0x4 /usr/local/popcorn/aarch64/lib/libelf.a(64.xlatetof.o)
 .text.shdr_64M11_tof
                0x000000000041b5a4      0x124 0x4 /usr/local/popcorn/aarch64/lib/libelf.a(64.xlatetof.o)
 .text.sword_64M__tom
                0x000000000041b6c8       0x48 0x4 /usr/local/popcorn/aarch64/lib/libelf.a(64.xlatetof.o)
 .text.sword_64M__tof
                0x000000000041b710       0x48 0x4 /usr/local/popcorn/aarch64/lib/libelf.a(64.xlatetof.o)
 .text.sym_64M11_tom
                0x000000000041b758       0xc0 0x4 /usr/local/popcorn/aarch64/lib/libelf.a(64.xlatetof.o)
 .text.sym_64M11_tof
                0x000000000041b818       0xc0 0x4 /usr/local/popcorn/aarch64/lib/libelf.a(64.xlatetof.o)
 .text.word_64M__tom
                0x000000000041b8d8       0x48 0x4 /usr/local/popcorn/aarch64/lib/libelf.a(64.xlatetof.o)
 .text.word_64M__tof
                0x000000000041b920       0x48 0x4 /usr/local/popcorn/aarch64/lib/libelf.a(64.xlatetof.o)
 .text.sxword_64M__tom
                0x000000000041b968       0x54 0x4 /usr/local/popcorn/aarch64/lib/libelf.a(64.xlatetof.o)
 .text.sxword_64M__tof
                0x000000000041b9bc       0x54 0x4 /usr/local/popcorn/aarch64/lib/libelf.a(64.xlatetof.o)
 .text.xword_64M__tom
                0x000000000041ba10       0x54 0x4 /usr/local/popcorn/aarch64/lib/libelf.a(64.xlatetof.o)
 .text.xword_64M__tof
                0x000000000041ba64       0x54 0x4 /usr/local/popcorn/aarch64/lib/libelf.a(64.xlatetof.o)
 .text.array_copy
                0x000000000041bab8      0x138 0x4 /usr/local/popcorn/aarch64/lib/libelf.a(64.xlatetof.o)
 .text          0x000000000041bbf0        0x0 0x4 /usr/local/popcorn/aarch64/lib/libelf.a(gelfshdr.o)
 .text.gelf_getshdr
                0x000000000041bbf0      0x118 0x4 /usr/local/popcorn/aarch64/lib/libelf.a(gelfshdr.o)
                0x000000000041bbf0                gelf_getshdr
 .text.gelf_update_shdr
                0x000000000041bd08      0x11c 0x4 /usr/local/popcorn/aarch64/lib/libelf.a(gelfshdr.o)
                0x000000000041bd08                gelf_update_shdr
 .text          0x000000000041be24        0x0 0x4 /usr/local/popcorn/aarch64/lib/libelf.a(swap64.o)
 .text._elf_load_u64L
                0x000000000041be24       0x50 0x4 /usr/local/popcorn/aarch64/lib/libelf.a(swap64.o)
                0x000000000041be24                _elf_load_u64L
 .text._elf_load_u64M
                0x000000000041be74       0x50 0x4 /usr/local/popcorn/aarch64/lib/libelf.a(swap64.o)
                0x000000000041be74                _elf_load_u64M
 .text._elf_load_i64L
                0x000000000041bec4       0x50 0x4 /usr/local/popcorn/aarch64/lib/libelf.a(swap64.o)
                0x000000000041bec4                _elf_load_i64L
 .text._elf_load_i64M
                0x000000000041bf14       0x50 0x4 /usr/local/popcorn/aarch64/lib/libelf.a(swap64.o)
                0x000000000041bf14                _elf_load_i64M
 .text._elf_store_u64L
                0x000000000041bf64       0x40 0x4 /usr/local/popcorn/aarch64/lib/libelf.a(swap64.o)
                0x000000000041bf64                _elf_store_u64L
 .text._elf_store_u64M
                0x000000000041bfa4       0x40 0x4 /usr/local/popcorn/aarch64/lib/libelf.a(swap64.o)
                0x000000000041bfa4                _elf_store_u64M
 .text._elf_store_i64L
                0x000000000041bfe4       0x40 0x4 /usr/local/popcorn/aarch64/lib/libelf.a(swap64.o)
                0x000000000041bfe4                _elf_store_i64L
 .text._elf_store_i64M
                0x000000000041c024       0x40 0x4 /usr/local/popcorn/aarch64/lib/libelf.a(swap64.o)
                0x000000000041c024                _elf_store_i64M
 .text          0x000000000041c064        0x0 0x4 /usr/local/popcorn/aarch64/lib/libelf.a(verdef_32_tof.o)
 .text._elf_verdef_32L11_tof
                0x000000000041c064        0x8 0x4 /usr/local/popcorn/aarch64/lib/libelf.a(verdef_32_tof.o)
                0x000000000041c064                _elf_verdef_32L11_tof
 .text.xlt_verdef
                0x000000000041c06c      0x2a0 0x4 /usr/local/popcorn/aarch64/lib/libelf.a(verdef_32_tof.o)
 .text._elf_verdef_32M11_tof
                0x000000000041c30c        0x8 0x4 /usr/local/popcorn/aarch64/lib/libelf.a(verdef_32_tof.o)
                0x000000000041c30c                _elf_verdef_32M11_tof
 .text._elf_verneed_32L11_tof
                0x000000000041c314        0x8 0x4 /usr/local/popcorn/aarch64/lib/libelf.a(verdef_32_tof.o)
                0x000000000041c314                _elf_verneed_32L11_tof
 .text.xlt_verneed
                0x000000000041c31c      0x2e0 0x4 /usr/local/popcorn/aarch64/lib/libelf.a(verdef_32_tof.o)
 .text._elf_verneed_32M11_tof
                0x000000000041c5fc        0x8 0x4 /usr/local/popcorn/aarch64/lib/libelf.a(verdef_32_tof.o)
                0x000000000041c5fc                _elf_verneed_32M11_tof
 .text          0x000000000041c604        0x0 0x4 /usr/local/popcorn/aarch64/lib/libelf.a(verdef_32_tom.o)
 .text._elf_verdef_32L11_tom
                0x000000000041c604        0x8 0x4 /usr/local/popcorn/aarch64/lib/libelf.a(verdef_32_tom.o)
                0x000000000041c604                _elf_verdef_32L11_tom
 .text.xlt_verdef
                0x000000000041c60c      0x2d4 0x4 /usr/local/popcorn/aarch64/lib/libelf.a(verdef_32_tom.o)
 .text._elf_verdef_32M11_tom
                0x000000000041c8e0        0x8 0x4 /usr/local/popcorn/aarch64/lib/libelf.a(verdef_32_tom.o)
                0x000000000041c8e0                _elf_verdef_32M11_tom
 .text._elf_verneed_32L11_tom
                0x000000000041c8e8        0x8 0x4 /usr/local/popcorn/aarch64/lib/libelf.a(verdef_32_tom.o)
                0x000000000041c8e8                _elf_verneed_32L11_tom
 .text.xlt_verneed
                0x000000000041c8f0      0x2d8 0x4 /usr/local/popcorn/aarch64/lib/libelf.a(verdef_32_tom.o)
 .text._elf_verneed_32M11_tom
                0x000000000041cbc8        0x8 0x4 /usr/local/popcorn/aarch64/lib/libelf.a(verdef_32_tom.o)
                0x000000000041cbc8                _elf_verneed_32M11_tom
 .text          0x000000000041cbd0        0x0 0x4 /usr/local/popcorn/aarch64/lib/libelf.a(verdef_64_tof.o)
 .text._elf_verdef_64L11_tof
                0x000000000041cbd0        0x8 0x4 /usr/local/popcorn/aarch64/lib/libelf.a(verdef_64_tof.o)
                0x000000000041cbd0                _elf_verdef_64L11_tof
 .text.xlt_verdef
                0x000000000041cbd8      0x2a0 0x4 /usr/local/popcorn/aarch64/lib/libelf.a(verdef_64_tof.o)
 .text._elf_verdef_64M11_tof
                0x000000000041ce78        0x8 0x4 /usr/local/popcorn/aarch64/lib/libelf.a(verdef_64_tof.o)
                0x000000000041ce78                _elf_verdef_64M11_tof
 .text._elf_verneed_64L11_tof
                0x000000000041ce80        0x8 0x4 /usr/local/popcorn/aarch64/lib/libelf.a(verdef_64_tof.o)
                0x000000000041ce80                _elf_verneed_64L11_tof
 .text.xlt_verneed
                0x000000000041ce88      0x2e0 0x4 /usr/local/popcorn/aarch64/lib/libelf.a(verdef_64_tof.o)
 .text._elf_verneed_64M11_tof
                0x000000000041d168        0x8 0x4 /usr/local/popcorn/aarch64/lib/libelf.a(verdef_64_tof.o)
                0x000000000041d168                _elf_verneed_64M11_tof
 .text          0x000000000041d170        0x0 0x4 /usr/local/popcorn/aarch64/lib/libelf.a(verdef_64_tom.o)
 .text._elf_verdef_64L11_tom
                0x000000000041d170        0x8 0x4 /usr/local/popcorn/aarch64/lib/libelf.a(verdef_64_tom.o)
                0x000000000041d170                _elf_verdef_64L11_tom
 .text.xlt_verdef
                0x000000000041d178      0x2d4 0x4 /usr/local/popcorn/aarch64/lib/libelf.a(verdef_64_tom.o)
 .text._elf_verdef_64M11_tom
                0x000000000041d44c        0x8 0x4 /usr/local/popcorn/aarch64/lib/libelf.a(verdef_64_tom.o)
                0x000000000041d44c                _elf_verdef_64M11_tom
 .text._elf_verneed_64L11_tom
                0x000000000041d454        0x8 0x4 /usr/local/popcorn/aarch64/lib/libelf.a(verdef_64_tom.o)
                0x000000000041d454                _elf_verneed_64L11_tom
 .text.xlt_verneed
                0x000000000041d45c      0x2d8 0x4 /usr/local/popcorn/aarch64/lib/libelf.a(verdef_64_tom.o)
 .text._elf_verneed_64M11_tom
                0x000000000041d734        0x8 0x4 /usr/local/popcorn/aarch64/lib/libelf.a(verdef_64_tom.o)
                0x000000000041d734                _elf_verneed_64M11_tom
 .text          0x000000000041d73c        0x0 0x4 /usr/local/popcorn/aarch64/lib/libelf.a(getscn.o)
 .text.elf_getscn
                0x000000000041d73c       0x90 0x4 /usr/local/popcorn/aarch64/lib/libelf.a(getscn.o)
                0x000000000041d73c                elf_getscn
 .text          0x000000000041d7cc        0x0 0x4 /usr/local/popcorn/aarch64/lib/libelf.a(newscn.o)
 .text._elf_update_shnum
                0x000000000041d7cc       0x78 0x4 /usr/local/popcorn/aarch64/lib/libelf.a(newscn.o)
                0x000000000041d7cc                _elf_update_shnum
 .text._elf_first_scn
                0x000000000041d844       0xf4 0x4 /usr/local/popcorn/aarch64/lib/libelf.a(newscn.o)
                0x000000000041d844                _elf_first_scn
 .text.elf_newscn
                0x000000000041d938      0x250 0x4 /usr/local/popcorn/aarch64/lib/libelf.a(newscn.o)
                0x000000000041d938                elf_newscn
 .text          0x000000000041db88        0x0 0x4 /usr/local/popcorn/aarch64/lib/libelf.a(32.fsize.o)
 .text.elf32_fsize
                0x000000000041db88       0x4c 0x4 /usr/local/popcorn/aarch64/lib/libelf.a(32.fsize.o)
                0x000000000041db88                elf32_fsize
 .text.elf64_fsize
                0x000000000041dbd4       0x4c 0x4 /usr/local/popcorn/aarch64/lib/libelf.a(32.fsize.o)
                0x000000000041dbd4                elf64_fsize
 .text.gelf_fsize
                0x000000000041dc20       0xa8 0x4 /usr/local/popcorn/aarch64/lib/libelf.a(32.fsize.o)
                0x000000000041dc20                gelf_fsize
 .text.gelf_msize
                0x000000000041dcc8       0xb4 0x4 /usr/local/popcorn/aarch64/lib/libelf.a(32.fsize.o)
                0x000000000041dcc8                gelf_msize
 .text          0x000000000041dd7c        0x0 0x4 /usr/local/popcorn/aarch64/lib/libc.a(arch_crash.o)
 .text.__crash_aarch64
                0x000000000041dd7c       0x30 0x4 /usr/local/popcorn/aarch64/lib/libc.a(arch_crash.o)
                0x000000000041dd7c                __crash_aarch64
                0x000000000041dd7c                crash_aarch64
 .text.__crash_powerpc64
                0x000000000041ddac        0x8 0x4 /usr/local/popcorn/aarch64/lib/libc.a(arch_crash.o)
                0x000000000041ddac                __crash_powerpc64
                0x000000000041ddac                crash_powerpc64
 .text.__crash_x86_64
                0x000000000041ddb4        0x8 0x4 /usr/local/popcorn/aarch64/lib/libc.a(arch_crash.o)
                0x000000000041ddb4                __crash_x86_64
                0x000000000041ddb4                crash_x86_64
 .text.__crash  0x000000000041ddbc       0x30 0x4 /usr/local/popcorn/aarch64/lib/libc.a(arch_crash.o)
                0x000000000041ddbc                __crash
                0x000000000041ddbc                crash
 .text          0x000000000041ddec        0x0 0x4 /usr/local/popcorn/aarch64/lib/libc.a(assert.o)
 .text.__assert_fail
                0x000000000041ddec       0x4c 0x4 /usr/local/popcorn/aarch64/lib/libc.a(assert.o)
                0x000000000041ddec                __assert_fail
 .text          0x000000000041de38        0x0 0x4 /usr/local/popcorn/aarch64/lib/libc.a(getrlimit.o)
 .text.getrlimit
                0x000000000041de38       0xf8 0x4 /usr/local/popcorn/aarch64/lib/libc.a(getrlimit.o)
                0x000000000041de38                getrlimit
                0x000000000041de38                getrlimit64
 .text          0x000000000041df30        0x0 0x4 /usr/local/popcorn/aarch64/lib/libc.a(syscall.o)
 .text.syscall  0x000000000041df30      0x188 0x4 /usr/local/popcorn/aarch64/lib/libc.a(syscall.o)
                0x000000000041df30                syscall
 .text          0x000000000041e0b8        0x0 0x4 /usr/local/popcorn/aarch64/lib/libc.a(fclose.o)
 .text.dummy    0x000000000041e0b8        0x4 0x4 /usr/local/popcorn/aarch64/lib/libc.a(fclose.o)
                0x000000000041e0b8                __unlist_locked_file
 .text.fclose   0x000000000041e0bc       0xd8 0x4 /usr/local/popcorn/aarch64/lib/libc.a(fclose.o)
                0x000000000041e0bc                fclose
 .text          0x000000000041e194        0x0 0x4 /usr/local/popcorn/aarch64/lib/libc.a(fflush.o)
 .text.fflush   0x000000000041e194      0x154 0x4 /usr/local/popcorn/aarch64/lib/libc.a(fflush.o)
                0x000000000041e194                fflush
                0x000000000041e194                fflush_unlocked
 .text          0x000000000041e2e8        0x0 0x4 /usr/local/popcorn/aarch64/lib/libc.a(fopen.o)
 .text.fopen    0x000000000041e2e8       0xc0 0x4 /usr/local/popcorn/aarch64/lib/libc.a(fopen.o)
                0x000000000041e2e8                fopen
                0x000000000041e2e8                fopen64
 .text          0x000000000041e3a8        0x0 0x4 /usr/local/popcorn/aarch64/lib/libc.a(fprintf.o)
 .text.fprintf  0x000000000041e3a8       0x74 0x4 /usr/local/popcorn/aarch64/lib/libc.a(fprintf.o)
                0x000000000041e3a8                fprintf
 .text          0x000000000041e41c        0x0 0x4 /usr/local/popcorn/aarch64/lib/libc.a(fscanf.o)
 .text.fscanf   0x000000000041e41c       0x74 0x4 /usr/local/popcorn/aarch64/lib/libc.a(fscanf.o)
                0x000000000041e41c                __isoc99_fscanf
                0x000000000041e41c                fscanf
 .text          0x000000000041e490        0x0 0x4 /usr/local/popcorn/aarch64/lib/libc.a(fseek.o)
 .text.__fseeko_unlocked
                0x000000000041e490       0xc0 0x4 /usr/local/popcorn/aarch64/lib/libc.a(fseek.o)
                0x000000000041e490                __fseeko_unlocked
 .text.__fseeko
                0x000000000041e550       0x7c 0x4 /usr/local/popcorn/aarch64/lib/libc.a(fseek.o)
                0x000000000041e550                __fseeko
                0x000000000041e550                fseeko
                0x000000000041e550                fseeko64
 .text.fseek    0x000000000041e5cc        0x4 0x4 /usr/local/popcorn/aarch64/lib/libc.a(fseek.o)
                0x000000000041e5cc                fseek
 .text          0x000000000041e5d0        0x0 0x4 /usr/local/popcorn/aarch64/lib/libc.a(getc.o)
 .text.getc     0x000000000041e5d0       0xa0 0x4 /usr/local/popcorn/aarch64/lib/libc.a(getc.o)
                0x000000000041e5d0                _IO_getc
                0x000000000041e5d0                getc
 .text          0x000000000041e670        0x0 0x4 /usr/local/popcorn/aarch64/lib/libc.a(getline.o)
 .text.getline  0x000000000041e670       0x10 0x4 /usr/local/popcorn/aarch64/lib/libc.a(getline.o)
                0x000000000041e670                getline
 .text          0x000000000041e680        0x0 0x4 /usr/local/popcorn/aarch64/lib/libc.a(bsearch.o)
 .text.bsearch  0x000000000041e680       0x84 0x4 /usr/local/popcorn/aarch64/lib/libc.a(bsearch.o)
                0x000000000041e680                bsearch
 .text          0x000000000041e704        0x0 0x4 /usr/local/popcorn/aarch64/lib/libc.a(qsort.o)
 .text.qsort    0x000000000041e704      0x34c 0x4 /usr/local/popcorn/aarch64/lib/libc.a(qsort.o)
                0x000000000041e704                qsort
 .text.sift     0x000000000041ea50      0x108 0x4 /usr/local/popcorn/aarch64/lib/libc.a(qsort.o)
 .text.trinkle  0x000000000041eb58      0x1dc 0x4 /usr/local/popcorn/aarch64/lib/libc.a(qsort.o)
 .text.cycle    0x000000000041ed34       0xbc 0x4 /usr/local/popcorn/aarch64/lib/libc.a(qsort.o)
 .text          0x000000000041edf0        0x0 0x4 /usr/local/popcorn/aarch64/lib/libc.a(pthread_attr_get.o)
 .text.pthread_attr_getdetachstate
                0x000000000041edf0       0x10 0x4 /usr/local/popcorn/aarch64/lib/libc.a(pthread_attr_get.o)
                0x000000000041edf0                pthread_attr_getdetachstate
 .text.pthread_attr_getguardsize
                0x000000000041ee00       0x10 0x4 /usr/local/popcorn/aarch64/lib/libc.a(pthread_attr_get.o)
                0x000000000041ee00                pthread_attr_getguardsize
 .text.pthread_attr_getinheritsched
                0x000000000041ee10       0x10 0x4 /usr/local/popcorn/aarch64/lib/libc.a(pthread_attr_get.o)
                0x000000000041ee10                pthread_attr_getinheritsched
 .text.pthread_attr_getschedparam
                0x000000000041ee20       0x10 0x4 /usr/local/popcorn/aarch64/lib/libc.a(pthread_attr_get.o)
                0x000000000041ee20                pthread_attr_getschedparam
 .text.pthread_attr_getschedpolicy
                0x000000000041ee30       0x10 0x4 /usr/local/popcorn/aarch64/lib/libc.a(pthread_attr_get.o)
                0x000000000041ee30                pthread_attr_getschedpolicy
 .text.pthread_attr_getscope
                0x000000000041ee40        0xc 0x4 /usr/local/popcorn/aarch64/lib/libc.a(pthread_attr_get.o)
                0x000000000041ee40                pthread_attr_getscope
 .text.pthread_attr_getstack
                0x000000000041ee4c       0x2c 0x4 /usr/local/popcorn/aarch64/lib/libc.a(pthread_attr_get.o)
                0x000000000041ee4c                pthread_attr_getstack
 .text.pthread_attr_getstacksize
                0x000000000041ee78       0x10 0x4 /usr/local/popcorn/aarch64/lib/libc.a(pthread_attr_get.o)
                0x000000000041ee78                pthread_attr_getstacksize
 .text.pthread_barrierattr_getpshared
                0x000000000041ee88       0x18 0x4 /usr/local/popcorn/aarch64/lib/libc.a(pthread_attr_get.o)
                0x000000000041ee88                pthread_barrierattr_getpshared
 .text.pthread_condattr_getclock
                0x000000000041eea0       0x14 0x4 /usr/local/popcorn/aarch64/lib/libc.a(pthread_attr_get.o)
                0x000000000041eea0                pthread_condattr_getclock
 .text.pthread_condattr_getpshared
                0x000000000041eeb4       0x14 0x4 /usr/local/popcorn/aarch64/lib/libc.a(pthread_attr_get.o)
                0x000000000041eeb4                pthread_condattr_getpshared
 .text.pthread_mutexattr_getprotocol
                0x000000000041eec8        0xc 0x4 /usr/local/popcorn/aarch64/lib/libc.a(pthread_attr_get.o)
                0x000000000041eec8                pthread_mutexattr_getprotocol
 .text.pthread_mutexattr_getpshared
                0x000000000041eed4       0x14 0x4 /usr/local/popcorn/aarch64/lib/libc.a(pthread_attr_get.o)
                0x000000000041eed4                pthread_mutexattr_getpshared
 .text.pthread_mutexattr_getrobust
                0x000000000041eee8       0x14 0x4 /usr/local/popcorn/aarch64/lib/libc.a(pthread_attr_get.o)
                0x000000000041eee8                pthread_mutexattr_getrobust
 .text.pthread_mutexattr_gettype
                0x000000000041eefc       0x14 0x4 /usr/local/popcorn/aarch64/lib/libc.a(pthread_attr_get.o)
                0x000000000041eefc                pthread_mutexattr_gettype
 .text.pthread_rwlockattr_getpshared
                0x000000000041ef10       0x10 0x4 /usr/local/popcorn/aarch64/lib/libc.a(pthread_attr_get.o)
                0x000000000041ef10                pthread_rwlockattr_getpshared
 .text          0x000000000041ef20        0x0 0x4 /usr/local/popcorn/aarch64/lib/libc.a(pthread_getattr_np.o)
 .text.pthread_getattr_np
                0x000000000041ef20       0xec 0x4 /usr/local/popcorn/aarch64/lib/libc.a(pthread_getattr_np.o)
                0x000000000041ef20                pthread_getattr_np
 .text          0x000000000041f00c        0x0 0x4 /usr/local/popcorn/aarch64/lib/libc.a(pthread_getspecific.o)
 .text.__pthread_getspecific
                0x000000000041f00c       0x10 0x4 /usr/local/popcorn/aarch64/lib/libc.a(pthread_getspecific.o)
                0x000000000041f00c                pthread_getspecific
                0x000000000041f00c                tss_get
 .text          0x000000000041f01c        0x0 0x4 /usr/local/popcorn/aarch64/lib/libc.a(pthread_key_create.o)
 .text.__pthread_key_create
                0x000000000041f01c       0x8c 0x4 /usr/local/popcorn/aarch64/lib/libc.a(pthread_key_create.o)
                0x000000000041f01c                __pthread_key_create
                0x000000000041f01c                pthread_key_create
 .text.nodtor   0x000000000041f0a8        0x4 0x4 /usr/local/popcorn/aarch64/lib/libc.a(pthread_key_create.o)
 .text.__pthread_key_delete
                0x000000000041f0ac       0x14 0x4 /usr/local/popcorn/aarch64/lib/libc.a(pthread_key_create.o)
                0x000000000041f0ac                __pthread_key_delete
                0x000000000041f0ac                pthread_key_delete
 .text.__pthread_tsd_run_dtors
                0x000000000041f0c0       0x8c 0x4 /usr/local/popcorn/aarch64/lib/libc.a(pthread_key_create.o)
                0x000000000041f0c0                __pthread_tsd_run_dtors
 .text          0x000000000041f14c        0x0 0x4 /usr/local/popcorn/aarch64/lib/libc.a(pthread_migrate.o)
 .text.pthread_migrate_args
                0x000000000041f14c        0xc 0x4 /usr/local/popcorn/aarch64/lib/libc.a(pthread_migrate.o)
                0x000000000041f14c                pthread_migrate_args
 .text          0x000000000041f158        0x0 0x4 /usr/local/popcorn/aarch64/lib/libc.a(pthread_self.o)
 .text.__pthread_self_internal
                0x000000000041f158        0x8 0x4 /usr/local/popcorn/aarch64/lib/libc.a(pthread_self.o)
                0x000000000041f158                pthread_self
                0x000000000041f158                thrd_current
 .text          0x000000000041f160        0x0 0x4 /usr/local/popcorn/aarch64/lib/libc.a(pthread_setspecific.o)
 .text.pthread_setspecific
                0x000000000041f160       0x2c 0x4 /usr/local/popcorn/aarch64/lib/libc.a(pthread_setspecific.o)
                0x000000000041f160                pthread_setspecific
 .text          0x000000000041f18c        0x0 0x4 /usr/local/popcorn/aarch64/lib/libc.a(lseek.o)
 .text.lseek    0x000000000041f18c       0x14 0x4 /usr/local/popcorn/aarch64/lib/libc.a(lseek.o)
                0x000000000041f18c                lseek
                0x000000000041f18c                lseek64
 .text          0x000000000041f1a0        0x0 0x4 /usr/local/popcorn/aarch64/lib/libc.a(abort.o)
 .text.abort    0x000000000041f1a0       0x34 0x4 /usr/local/popcorn/aarch64/lib/libc.a(abort.o)
                0x000000000041f1a0                abort
 .text          0x000000000041f1d4        0x0 0x4 /usr/local/popcorn/aarch64/lib/libc.a(raise.o)
 .text.raise    0x000000000041f1d4       0x58 0x4 /usr/local/popcorn/aarch64/lib/libc.a(raise.o)
                0x000000000041f1d4                raise
 .text          0x000000000041f22c        0x0 0x4 /usr/local/popcorn/aarch64/lib/libc.a(__fdopen.o)
 .text.__fdopen
                0x000000000041f22c      0x1b4 0x4 /usr/local/popcorn/aarch64/lib/libc.a(__fdopen.o)
                0x000000000041f22c                __fdopen
                0x000000000041f22c                fdopen
 .text          0x000000000041f3e0        0x0 0x4 /usr/local/popcorn/aarch64/lib/libc.a(__fmodeflags.o)
 .text.__fmodeflags
                0x000000000041f3e0       0x94 0x4 /usr/local/popcorn/aarch64/lib/libc.a(__fmodeflags.o)
                0x000000000041f3e0                __fmodeflags
 .text          0x000000000041f474        0x0 0x4 /usr/local/popcorn/aarch64/lib/libc.a(__stdio_read.o)
 .text.__stdio_read
                0x000000000041f474       0xe0 0x4 /usr/local/popcorn/aarch64/lib/libc.a(__stdio_read.o)
                0x000000000041f474                __stdio_read
 .text          0x000000000041f554        0x0 0x4 /usr/local/popcorn/aarch64/lib/libc.a(getdelim.o)
 .text.getdelim
                0x000000000041f554      0x270 0x4 /usr/local/popcorn/aarch64/lib/libc.a(getdelim.o)
                0x000000000041f554                __getdelim
                0x000000000041f554                getdelim
 .text          0x000000000041f7c4        0x0 0x4 /usr/local/popcorn/aarch64/lib/libc.a(ofl_add.o)
 .text.__ofl_add
                0x000000000041f7c4       0x40 0x4 /usr/local/popcorn/aarch64/lib/libc.a(ofl_add.o)
                0x000000000041f7c4                __ofl_add
 .text          0x000000000041f808      0xca4 0x8 /usr/lib/gcc-cross/aarch64-linux-gnu/6/libgcc.a(addtf3.o)
                0x000000000041f808                __addtf3
 .text          0x00000000004204b0      0x948 0x8 /usr/lib/gcc-cross/aarch64-linux-gnu/6/libgcc.a(divtf3.o)
                0x00000000004204b0                __divtf3
 .text          0x0000000000420df8      0x110 0x8 /usr/lib/gcc-cross/aarch64-linux-gnu/6/libgcc.a(eqtf2.o)
                0x0000000000420df8                __eqtf2
                0x0000000000420df8                __netf2
 .text          0x0000000000420f08      0x154 0x8 /usr/lib/gcc-cross/aarch64-linux-gnu/6/libgcc.a(getf2.o)
                0x0000000000420f08                __getf2
                0x0000000000420f08                __gttf2
 .text          0x0000000000421060      0x174 0x8 /usr/lib/gcc-cross/aarch64-linux-gnu/6/libgcc.a(letf2.o)
                0x0000000000421060                __letf2
                0x0000000000421060                __lttf2
 .text          0x00000000004211d8      0x790 0x8 /usr/lib/gcc-cross/aarch64-linux-gnu/6/libgcc.a(multf3.o)
                0x00000000004211d8                __multf3
 .text          0x0000000000421968      0xcb8 0x8 /usr/lib/gcc-cross/aarch64-linux-gnu/6/libgcc.a(subtf3.o)
                0x0000000000421968                __subtf3
 .text          0x0000000000422620       0xd0 0x8 /usr/lib/gcc-cross/aarch64-linux-gnu/6/libgcc.a(unordtf2.o)
                0x0000000000422620                __unordtf2
 .text          0x00000000004226f0      0x100 0x8 /usr/lib/gcc-cross/aarch64-linux-gnu/6/libgcc.a(fixtfsi.o)
                0x00000000004226f0                __fixtfsi
 .text          0x00000000004227f0       0xec 0x8 /usr/lib/gcc-cross/aarch64-linux-gnu/6/libgcc.a(fixunstfsi.o)
                0x00000000004227f0                __fixunstfsi
 .text          0x00000000004228e0       0x7c 0x8 /usr/lib/gcc-cross/aarch64-linux-gnu/6/libgcc.a(floatsitf.o)
                0x00000000004228e0                __floatsitf
 .text          0x0000000000422960       0x70 0x8 /usr/lib/gcc-cross/aarch64-linux-gnu/6/libgcc.a(floatunsitf.o)
                0x0000000000422960                __floatunsitf
 .text          0x00000000004229d0       0xf0 0x8 /usr/lib/gcc-cross/aarch64-linux-gnu/6/libgcc.a(extendsftf2.o)
                0x00000000004229d0                __extendsftf2
 .text          0x0000000000422ac0      0x114 0x8 /usr/lib/gcc-cross/aarch64-linux-gnu/6/libgcc.a(extenddftf2.o)
                0x0000000000422ac0                __extenddftf2
 .text          0x0000000000422bd8      0x318 0x8 /usr/lib/gcc-cross/aarch64-linux-gnu/6/libgcc.a(trunctfsf2.o)
                0x0000000000422bd8                __trunctfsf2
 .text          0x0000000000422ef0      0x370 0x8 /usr/lib/gcc-cross/aarch64-linux-gnu/6/libgcc.a(trunctfdf2.o)
                0x0000000000422ef0                __trunctfdf2
 .text          0x0000000000423260       0x6c 0x8 /usr/lib/gcc-cross/aarch64-linux-gnu/6/libgcc.a(sfp-exceptions.o)
                0x0000000000423260                __sfp_handle_exceptions

.rodata         0x00000000004232d0     0x4013
 ** merge constants
                0x00000000004232d0       0x20
 .rodata.tiny__str__css_
                0x00000000004232f0        0x5 0x1 tiny_aarch64.o
                0x00000000004232f0                tiny__str__css_
 .rodata.tiny__str_1_text_css_
                0x00000000004232f5        0x9 0x1 tiny_aarch64.o
                0x00000000004232f5                tiny__str_1_text_css_
 .rodata.tiny__str_2__gif_
                0x00000000004232fe        0x5 0x1 tiny_aarch64.o
                0x00000000004232fe                tiny__str_2__gif_
 .rodata.tiny__str_3_image_gif_
                0x0000000000423303        0xa 0x1 tiny_aarch64.o
                0x0000000000423303                tiny__str_3_image_gif_
 .rodata.tiny__str_4__htm_
                0x000000000042330d        0x5 0x1 tiny_aarch64.o
                0x000000000042330d                tiny__str_4__htm_
 .rodata.tiny__str_5_text_html_
                0x0000000000423312        0xa 0x1 tiny_aarch64.o
                0x0000000000423312                tiny__str_5_text_html_
 .rodata.tiny__str_6__html_
                0x000000000042331c        0x6 0x1 tiny_aarch64.o
                0x000000000042331c                tiny__str_6__html_
 .rodata.tiny__str_7__jpeg_
                0x0000000000423322        0x6 0x1 tiny_aarch64.o
                0x0000000000423322                tiny__str_7__jpeg_
 .rodata.tiny__str_8_image_jpeg
                0x0000000000423328        0xb 0x1 tiny_aarch64.o
                0x0000000000423328                tiny__str_8_image_jpeg
 .rodata.tiny__str_9__jpg_
                0x0000000000423333        0x5 0x1 tiny_aarch64.o
                0x0000000000423333                tiny__str_9__jpg_
 .rodata.tiny__str_10__ico_
                0x0000000000423338        0x5 0x1 tiny_aarch64.o
                0x0000000000423338                tiny__str_10__ico_
 .rodata.tiny__str_11_image_x_ic
                0x000000000042333d        0xd 0x1 tiny_aarch64.o
                0x000000000042333d                tiny__str_11_image_x_ic
 .rodata.tiny__str_12__js_
                0x000000000042334a        0x4 0x1 tiny_aarch64.o
                0x000000000042334a                tiny__str_12__js_
 .rodata.tiny__str_13_applicatio
                0x000000000042334e       0x17 0x1 tiny_aarch64.o
                0x000000000042334e                tiny__str_13_applicatio
 .rodata.tiny__str_14__pdf_
                0x0000000000423365        0x5 0x1 tiny_aarch64.o
                0x0000000000423365                tiny__str_14__pdf_
 .rodata.tiny__str_15_applicatio
                0x000000000042336a       0x10 0x1 tiny_aarch64.o
                0x000000000042336a                tiny__str_15_applicatio
 .rodata.tiny__str_16__mp4_
                0x000000000042337a        0x5 0x1 tiny_aarch64.o
                0x000000000042337a                tiny__str_16__mp4_
 .rodata.tiny__str_17_video_mp4_
                0x000000000042337f        0xa 0x1 tiny_aarch64.o
                0x000000000042337f                tiny__str_17_video_mp4_
 .rodata.tiny__str_18__png_
                0x0000000000423389        0x5 0x1 tiny_aarch64.o
                0x0000000000423389                tiny__str_18__png_
 .rodata.tiny__str_19_image_png_
                0x000000000042338e        0xa 0x1 tiny_aarch64.o
                0x000000000042338e                tiny__str_19_image_png_
 .rodata.tiny__str_20__svg_
                0x0000000000423398        0x5 0x1 tiny_aarch64.o
                0x0000000000423398                tiny__str_20__svg_
 .rodata.tiny__str_21_image_svg_
                0x000000000042339d        0xe 0x1 tiny_aarch64.o
                0x000000000042339d                tiny__str_21_image_svg_
 .rodata.tiny__str_22__xml_
                0x00000000004233ab        0x5 0x1 tiny_aarch64.o
                0x00000000004233ab                tiny__str_22__xml_
 .rodata.tiny__str_23_text_xml_
                0x00000000004233b0        0x9 0x1 tiny_aarch64.o
                0x00000000004233b0                tiny__str_23_text_xml_
 .rodata.tiny__str_24_text_plain
                0x00000000004233b9        0xb 0x1 tiny_aarch64.o
                0x00000000004233b9                tiny__str_24_text_plain
 .rodata.tiny__str_25__s_
                0x00000000004233c4        0x3 0x1 tiny_aarch64.o
                0x00000000004233c4                tiny__str_25__s_
 .rodata.tiny__str_26__DIR__
                0x00000000004233c7        0x6 0x1 tiny_aarch64.o
                0x00000000004233c7                tiny__str_26__DIR__
 .rodata.tiny__str_27__lu_
                0x00000000004233cd        0x4 0x1 tiny_aarch64.o
                0x00000000004233cd                tiny__str_27__lu_
 .rodata.tiny__str_28___1fK_
                0x00000000004233d1        0x6 0x1 tiny_aarch64.o
                0x00000000004233d1                tiny__str_28___1fK_
 .rodata.tiny__str_29___1fM_
                0x00000000004233d7        0x6 0x1 tiny_aarch64.o
                0x00000000004233d7                tiny__str_29___1fM_
 .rodata.tiny__str_30___1fG_
                0x00000000004233dd        0x6 0x1 tiny_aarch64.o
                0x00000000004233dd                tiny__str_30___1fG_
 .rodata.tiny__str_31_HTTP_1_1_2
                0x00000000004233e3       0x1c 0x1 tiny_aarch64.o
                0x00000000004233e3                tiny__str_31_HTTP_1_1_2
 .rodata.tiny__str_32_Content_Ty
                0x00000000004233ff       0x1c 0x1 tiny_aarch64.o
                0x00000000004233ff                tiny__str_32_Content_Ty
 .rodata.tiny__str_33__html__hea
                0x000000000042341b       0x14 0x1 tiny_aarch64.o
                0x000000000042341b                tiny__str_33__html__hea
 .rodata.tiny__str_34_body_font_
                0x000000000042342f       0x2f 0x1 tiny_aarch64.o
                0x000000000042342f                tiny__str_34_body_font_
 .rodata.tiny__str_35_td__paddin
                0x000000000042345e       0x19 0x1 tiny_aarch64.o
                0x000000000042345e                tiny__str_35_td__paddin
 .rodata.tiny__str_36___style___
                0x0000000000423477       0x1e 0x1 tiny_aarch64.o
                0x0000000000423477                tiny__str_36___style___
 .rodata.tiny__str_37___
                0x0000000000423495        0x2 0x1 tiny_aarch64.o
                0x0000000000423495                tiny__str_37___
 .rodata.tiny__str_38____
                0x0000000000423497        0x3 0x1 tiny_aarch64.o
                0x0000000000423497                tiny__str_38____
 .rodata.tiny__str_39__Y__m__d__
                0x000000000042349a        0xf 0x1 tiny_aarch64.o
                0x000000000042349a                tiny__str_39__Y__m__d__
 .rodata.tiny__str_40___
                0x00000000004234a9        0x2 0x1 tiny_aarch64.o
                0x00000000004234a9                tiny__str_40___
 .rodata.tiny__str_41_
                0x00000000004234ab        0x1 0x1 tiny_aarch64.o
                0x00000000004234ab                tiny__str_41_
 .rodata.tiny__str_42__tr__td__a
                0x00000000004234ac       0x41 0x1 tiny_aarch64.o
                0x00000000004234ac                tiny__str_42__tr__td__a
 .rodata.tiny__str_43___table___
                0x00000000004234ed       0x17 0x1 tiny_aarch64.o
                0x00000000004234ed                tiny__str_43___table___
 .rodata.tiny__str_44__s__s_
                0x0000000000423504        0x6 0x1 tiny_aarch64.o
                0x0000000000423504                tiny__str_44__s__s_
 .rodata.tiny__str_45_Range__byt
                0x000000000042350a       0x15 0x1 tiny_aarch64.o
                0x000000000042350a                tiny__str_45_Range__byt
 .rodata.tiny__str_46__s__d__d__
                0x000000000042351f        0xf 0x1 tiny_aarch64.o
                0x000000000042351f                tiny__str_46__s__d__d__
 .rodata.tiny__str_47_HTTP_1_1__
                0x000000000042352e       0x11 0x1 tiny_aarch64.o
                0x000000000042352e                tiny__str_47_HTTP_1_1__
 .rodata.tiny__str_48_Content_le
                0x000000000042353f       0x18 0x1 tiny_aarch64.o
                0x000000000042353f                tiny__str_48_Content_le
 .rodata.tiny__str_49_HTTP_1_1_2
                0x0000000000423557       0x17 0x1 tiny_aarch64.o
                0x0000000000423557                tiny__str_49_HTTP_1_1_2
 .rodata.tiny__str_50_Content_Ra
                0x000000000042356e       0x23 0x1 tiny_aarch64.o
                0x000000000042356e                tiny__str_50_Content_Ra
 .rodata.tiny__str_51_HTTP_1_1_2
                0x0000000000423591       0x28 0x1 tiny_aarch64.o
                0x0000000000423591                tiny__str_51_HTTP_1_1_2
 .rodata.tiny__str_52_Cache_Cont
                0x00000000004235b9       0x1a 0x1 tiny_aarch64.o
                0x00000000004235b9                tiny__str_52_Cache_Cont
 .rodata.tiny__str_53_Content_le
                0x00000000004235d3       0x16 0x1 tiny_aarch64.o
                0x00000000004235d3                tiny__str_53_Content_le
 .rodata.tiny__str_54_Content_ty
                0x00000000004235e9       0x15 0x1 tiny_aarch64.o
                0x00000000004235e9                tiny__str_54_Content_ty
 .rodata.tiny__str_55_offset___l
                0x00000000004235fe        0xf 0x1 tiny_aarch64.o
                0x00000000004235fe                tiny__str_55_offset_(long)
 .rodata.tiny__str_56_stat_sbuf_
                0x000000000042360d       0x21 0x1 tiny_aarch64.o
                0x000000000042360d                tiny__str_56_stat_sbuf_
 .rodata.tiny__str_57_stat_sbuf_
                0x000000000042362e       0x32 0x1 tiny_aarch64.o
                0x000000000042362e                tiny__str_57_stat_sbuf_
 .rodata.tiny__str_58_stat_sbuf_
                0x0000000000423660       0x1d 0x1 tiny_aarch64.o
                0x0000000000423660                tiny__str_58_stat_sbuf_
 .rodata.tiny__str_59_stat_sbuf_
                0x000000000042367d       0x1d 0x1 tiny_aarch64.o
                0x000000000042367d                tiny__str_59_stat_sbuf_
 .rodata.tiny__str_60_stat_sbuf_
                0x000000000042369a       0x20 0x1 tiny_aarch64.o
                0x000000000042369a                tiny__str_60_stat_sbuf_
 .rodata.tiny__str_61_filename__
                0x00000000004236ba       0x25 0x1 tiny_aarch64.o
                0x00000000004236ba                tiny__str_61_filename__
 .rodata.tiny__str_62_accept_req
                0x00000000004236df       0x25 0x1 tiny_aarch64.o
                0x00000000004236df                tiny__str_62_accept_req
 .rodata.tiny__str_63_File_not_f
                0x0000000000423704        0xf 0x1 tiny_aarch64.o
                0x0000000000423704                tiny__str_63_File_not_f
 .rodata.tiny__str_64_Not_found_
                0x0000000000423713        0xa 0x1 tiny_aarch64.o
                0x0000000000423713                tiny__str_64_Not_found_
 .rodata.tiny__str_65_stat_sbuf_
                0x000000000042371d       0x2d 0x1 tiny_aarch64.o
                0x000000000042371d                tiny__str_65_stat_sbuf_
 .rodata.tiny__str_66_Unknow_Err
                0x000000000042374a        0xd 0x1 tiny_aarch64.o
                0x000000000042374a                tiny__str_66_Unknow_Err
 .rodata.tiny__str_67_Error_
                0x0000000000423757        0x6 0x1 tiny_aarch64.o
                0x0000000000423757                tiny__str_67_Error_
 .rodata.tiny__str_68_listen_on_
                0x000000000042375d       0x1d 0x1 tiny_aarch64.o
                0x000000000042375d                tiny__str_68_listen_on_
 .rodata.tiny__str_69_ERROR_
                0x000000000042377a        0x6 0x1 tiny_aarch64.o
                0x000000000042377a                tiny__str_69_ERROR_
 .rodata.tiny__str_70_child_pid_
                0x0000000000423780       0x11 0x1 tiny_aarch64.o
                0x0000000000423780                tiny__str_70_child_pid_
 .rodata.tiny__str_71_fork_
                0x0000000000423791        0x5 0x1 tiny_aarch64.o
                0x0000000000423791                tiny__str_71_fork_
 .rodata.src_env___libc_start_main__str_
                0x0000000000423796        0x1 0x1 /usr/local/popcorn/aarch64/lib/libc.a(__libc_start_main.o)
                0x0000000000423796                src_env___libc_start_main__str_
 .rodata.src_env___libc_start_main___init_libc_pfd_
                0x0000000000423798       0x18 0x4 /usr/local/popcorn/aarch64/lib/libc.a(__libc_start_main.o)
                0x0000000000423798                src_env___libc_start_main___init_libc_pfd_
 .rodata.src_env___libc_start_main__str_1__dev_null_
                0x00000000004237b0        0xa 0x1 /usr/local/popcorn/aarch64/lib/libc.a(__libc_start_main.o)
                0x00000000004237b0                src_env___libc_start_main__str_1__dev_null_
 .rodata.src_malloc_malloc_c_bin_tab
                0x00000000004237ba       0x3c 0x1 /usr/local/popcorn/aarch64/lib/libc.a(malloc.o)
 .rodata.src_malloc_popcorn_malloc_c_bin_tab
                0x00000000004237f6       0x3c 0x1 /usr/local/popcorn/aarch64/lib/libc.a(popcorn_malloc.o)
 .rodata.src_network_inet_ntoa__str__d__d__d__
                0x0000000000423832        0xc 0x1 /usr/local/popcorn/aarch64/lib/libc.a(inet_ntoa.o)
                0x0000000000423832                src_network_inet_ntoa__str__d__d__d__
 .rodata.src_signal_block_c_all_mask
                0x0000000000423840        0x8 0x8 /usr/local/popcorn/aarch64/lib/libc.a(block.o)
 .rodata.src_signal_block_c_app_mask
                0x0000000000423848        0x8 0x8 /usr/local/popcorn/aarch64/lib/libc.a(block.o)
 .rodata.stderr
                0x0000000000423850        0x8 0x8 /usr/local/popcorn/aarch64/lib/libc.a(stderr.o)
                0x0000000000423850                stderr
 .rodata.stdout
                0x0000000000423858        0x8 0x8 /usr/local/popcorn/aarch64/lib/libc.a(stdout.o)
                0x0000000000423858                stdout
 ** merge constants
                0x0000000000423860      0x140
 .rodata        0x00000000004239a0       0x20 0x10 /usr/local/popcorn/aarch64/lib/libc.a(vfprintf.o)
 .rodata.printf_core
                0x00000000004239c0      0x170 0x8 /usr/local/popcorn/aarch64/lib/libc.a(vfprintf.o)
 .rodata.pop_arg
                0x0000000000423b30       0x90 0x8 /usr/local/popcorn/aarch64/lib/libc.a(vfprintf.o)
 .rodata.src_stdio_vfprintf_c_states
                0x0000000000423bc0      0x1d0 0x1 /usr/local/popcorn/aarch64/lib/libc.a(vfprintf.o)
 .rodata.src_stdio_vfprintf__str______0X0x_
                0x0000000000423d90        0xa 0x1 /usr/local/popcorn/aarch64/lib/libc.a(vfprintf.o)
                0x0000000000423d90                src_stdio_vfprintf__str______0X0x_
 .rodata.src_stdio_vfprintf__str_1__null__
                0x0000000000423d9a        0x7 0x1 /usr/local/popcorn/aarch64/lib/libc.a(vfprintf.o)
                0x0000000000423d9a                src_stdio_vfprintf__str_1__null__
 .rodata.src_stdio_vfprintf_c_xdigits
                0x0000000000423da1       0x10 0x1 /usr/local/popcorn/aarch64/lib/libc.a(vfprintf.o)
 .rodata.src_stdio_vfprintf__str_2__0X_0X_0X_
                0x0000000000423db1       0x13 0x1 /usr/local/popcorn/aarch64/lib/libc.a(vfprintf.o)
                0x0000000000423db1                src_stdio_vfprintf__str_2__0X_0X_0X_
 .rodata.src_stdio_vfprintf__str_3_inf_
                0x0000000000423dc4        0x4 0x1 /usr/local/popcorn/aarch64/lib/libc.a(vfprintf.o)
                0x0000000000423dc4                src_stdio_vfprintf__str_3_inf_
 .rodata.src_stdio_vfprintf__str_4_INF_
                0x0000000000423dc8        0x4 0x1 /usr/local/popcorn/aarch64/lib/libc.a(vfprintf.o)
                0x0000000000423dc8                src_stdio_vfprintf__str_4_INF_
 .rodata.src_stdio_vfprintf__str_5_nan_
                0x0000000000423dcc        0x4 0x1 /usr/local/popcorn/aarch64/lib/libc.a(vfprintf.o)
                0x0000000000423dcc                src_stdio_vfprintf__str_5_nan_
 .rodata.src_stdio_vfprintf__str_6_NAN_
                0x0000000000423dd0        0x4 0x1 /usr/local/popcorn/aarch64/lib/libc.a(vfprintf.o)
                0x0000000000423dd0                src_stdio_vfprintf__str_6_NAN_
 .rodata.src_stdio_vfprintf__str_7___
                0x0000000000423dd4        0x2 0x1 /usr/local/popcorn/aarch64/lib/libc.a(vfprintf.o)
                0x0000000000423dd4                src_stdio_vfprintf__str_7___
 .rodata.__strftime_fmt_1
                0x0000000000423dd8      0x2b0 0x8 /usr/local/popcorn/aarch64/lib/libc.a(strftime.o)
 .rodata.src_time_strftime__str___
                0x0000000000424088        0x2 0x1 /usr/local/popcorn/aarch64/lib/libc.a(strftime.o)
                0x0000000000424088                src_time_strftime__str___
 .rodata.src_time_strftime__str_1__m__d__y_
                0x000000000042408a        0x9 0x1 /usr/local/popcorn/aarch64/lib/libc.a(strftime.o)
                0x000000000042408a                src_time_strftime__str_1__m__d__y_
 .rodata.src_time_strftime__str_2__2d_
                0x0000000000424093        0x4 0x1 /usr/local/popcorn/aarch64/lib/libc.a(strftime.o)
                0x0000000000424093                d_::src_time_strftime__str_2(void)
 .rodata.src_time_strftime__str_3__Y__m__d_
                0x0000000000424097        0x9 0x1 /usr/local/popcorn/aarch64/lib/libc.a(strftime.o)
                0x0000000000424097                src_time_strftime__str_3__Y__m__d_
 .rodata.src_time_strftime__str_4___
                0x00000000004240a0        0x2 0x1 /usr/local/popcorn/aarch64/lib/libc.a(strftime.o)
                0x00000000004240a0                src_time_strftime__str_4___
 .rodata.src_time_strftime__str_5__H__M_
                0x00000000004240a2        0x6 0x1 /usr/local/popcorn/aarch64/lib/libc.a(strftime.o)
                0x00000000004240a2                src_time_strftime__str_5__H__M_
 .rodata.src_time_strftime__str_6___
                0x00000000004240a8        0x2 0x1 /usr/local/popcorn/aarch64/lib/libc.a(strftime.o)
                0x00000000004240a8                src_time_strftime__str_6___
 .rodata.src_time_strftime__str_7__H__M__S_
                0x00000000004240aa        0x9 0x1 /usr/local/popcorn/aarch64/lib/libc.a(strftime.o)
                0x00000000004240aa                src_time_strftime__str_7__H__M__S_
 .rodata.src_time_strftime__str_8___lld_
                0x00000000004240b3        0x6 0x1 /usr/local/popcorn/aarch64/lib/libc.a(strftime.o)
                0x00000000004240b3                src_time_strftime__str_8___lld_
 .rodata.src_time_strftime__str_9_
                0x00000000004240b9        0x1 0x1 /usr/local/popcorn/aarch64/lib/libc.a(strftime.o)
                0x00000000004240b9                src_time_strftime__str_9_
 .rodata.src_time_strftime__str_10____2d__2d_
                0x00000000004240ba        0xa 0x1 /usr/local/popcorn/aarch64/lib/libc.a(strftime.o)
                0x00000000004240ba                d_::src_time_strftime__str_10____2d(void)
 .rodata.src_time_strftime__str_11___
                0x00000000004240c4        0x2 0x1 /usr/local/popcorn/aarch64/lib/libc.a(strftime.o)
                0x00000000004240c4                src_time_strftime__str_11___
 .rodata.src_time_strftime__str_12__0_lld_
                0x00000000004240c6        0x7 0x1 /usr/local/popcorn/aarch64/lib/libc.a(strftime.o)
                0x00000000004240c6                src_time_strftime__str_12__0_lld_
 .rodata.src_errno_strerror_c_errid
                0x00000000004240cd       0x58 0x1 /usr/local/popcorn/aarch64/lib/libc.a(strerror.o)
 .rodata.src_errno_strerror_c_errmsg
                0x0000000000424125      0x70c 0x1 /usr/local/popcorn/aarch64/lib/libc.a(strerror.o)
 .rodata.src_internal_intscan_c_table
                0x0000000000424831      0x101 0x1 /usr/local/popcorn/aarch64/lib/libc.a(intscan.o)
 .rodata.src_internal_intscan__str__________
                0x0000000000424932        0x9 0x1 /usr/local/popcorn/aarch64/lib/libc.a(intscan.o)
                0x0000000000424932                src_internal_intscan__str__________
 .rodata.__nl_langinfo_l
                0x0000000000424940       0x28 0x8 /usr/local/popcorn/aarch64/lib/libc.a(langinfo.o)
 .rodata.src_locale_langinfo__str_ASCII_
                0x0000000000424968        0x6 0x1 /usr/local/popcorn/aarch64/lib/libc.a(langinfo.o)
                0x0000000000424968                src_locale_langinfo__str_ASCII_
 .rodata.src_locale_langinfo__str_1_UTF_8_
                0x000000000042496e        0x6 0x1 /usr/local/popcorn/aarch64/lib/libc.a(langinfo.o)
                0x000000000042496e                src_locale_langinfo__str_1_UTF_8_
 .rodata.src_locale_langinfo__str_2_C_
                0x0000000000424974        0x2 0x1 /usr/local/popcorn/aarch64/lib/libc.a(langinfo.o)
                0x0000000000424974                src_locale_langinfo__str_2_C_
 .rodata.src_locale_langinfo__str_3_
                0x0000000000424976        0x1 0x1 /usr/local/popcorn/aarch64/lib/libc.a(langinfo.o)
                0x0000000000424976                src_locale_langinfo__str_3_
 .rodata.src_locale_langinfo_c_c_numeric
                0x0000000000424977        0x3 0x1 /usr/local/popcorn/aarch64/lib/libc.a(langinfo.o)
 .rodata.src_locale_langinfo_c_c_time
                0x000000000042497a      0x13c 0x1 /usr/local/popcorn/aarch64/lib/libc.a(langinfo.o)
 .rodata.src_locale_langinfo_c_c_messages
                0x0000000000424ab6       0x13 0x1 /usr/local/popcorn/aarch64/lib/libc.a(langinfo.o)
 .rodata.vfscanf
                0x0000000000424ad0      0x338 0x8 /usr/local/popcorn/aarch64/lib/libc.a(vfscanf.o)
 .rodata.src_time___secs_to_tm_c___secs_to_tm_days_in_month
                0x0000000000424e08        0xc 0x1 /usr/local/popcorn/aarch64/lib/libc.a(__secs_to_tm.o)
 .rodata.__gmt  0x0000000000424e14        0x4 0x1 /usr/local/popcorn/aarch64/lib/libc.a(__tz.o)
                0x0000000000424e14                __gmt
 .rodata.src_time___tz__str_
                0x0000000000424e18        0x1 0x1 /usr/local/popcorn/aarch64/lib/libc.a(__tz.o)
                0x0000000000424e18                src_time___tz__str_
 .rodata.src_time___tz_c_do_tzset_search
                0x0000000000424e19       0x36 0x1 /usr/local/popcorn/aarch64/lib/libc.a(__tz.o)
 .rodata.src_time___tz__str_1_TZ_
                0x0000000000424e4f        0x3 0x1 /usr/local/popcorn/aarch64/lib/libc.a(__tz.o)
                0x0000000000424e4f                src_time___tz__str_1_TZ_
 .rodata.src_time___tz__str_2__etc_local
                0x0000000000424e52        0xf 0x1 /usr/local/popcorn/aarch64/lib/libc.a(__tz.o)
                0x0000000000424e52                src_time___tz__str_2__etc_local
 .rodata.src_time___tz__str_3_TZif_
                0x0000000000424e61        0x5 0x1 /usr/local/popcorn/aarch64/lib/libc.a(__tz.o)
                0x0000000000424e61                src_time___tz__str_3_TZif_
 ** merge constants
                0x0000000000424e68        0x4
 .rodata.src_internal_floatscan__str_infinity_
                0x0000000000424e6c        0x9 0x1 /usr/local/popcorn/aarch64/lib/libc.a(floatscan.o)
                0x0000000000424e6c                src_internal_floatscan__str_infinity_
 .rodata.src_internal_floatscan_c_decfloat_p10s
                0x0000000000424e78       0x20 0x4 /usr/local/popcorn/aarch64/lib/libc.a(floatscan.o)
 .rodata.src_internal_floatscan_switch_table_
                0x0000000000424e98        0xc 0x4 /usr/local/popcorn/aarch64/lib/libc.a(floatscan.o)
                0x0000000000424e98                src_internal_floatscan_switch_table_
 .rodata.src_internal_floatscan_switch_table_2_
                0x0000000000424ea4        0xc 0x4 /usr/local/popcorn/aarch64/lib/libc.a(floatscan.o)
                0x0000000000424ea4                src_internal_floatscan_switch_table_2_
 .rodata.src_time___month_to_secs_c___month_to_secs_secs_through_month
                0x0000000000424eb0       0x30 0x4 /usr/local/popcorn/aarch64/lib/libc.a(__month_to_secs.o)
 .rodata.__fsmu8
                0x0000000000424ee0       0xcc 0x4 /usr/local/popcorn/aarch64/lib/libc.a(internal.o)
                0x0000000000424ee0                __fsmu8
 .rodata.src_migrate__str_Cannot_ret
                0x0000000000424fac       0x29 0x1 /usr/local/popcorn/aarch64/lib/libmigrate.a(migrate.o)
                0x0000000000424fac                src_migrate__str_Cannot_ret
 .rodata.src_migrate__str_1_Destinatio
                0x0000000000424fd5       0x24 0x1 /usr/local/popcorn/aarch64/lib/libmigrate.a(migrate.o)
                0x0000000000424fd5                src_migrate__str_1_Destinatio
 .rodata.src_migrate__str_2_0_____Unsu
                0x0000000000424ff9       0x21 0x1 /usr/local/popcorn/aarch64/lib/libmigrate.a(migrate.o)
                0x0000000000424ff9                src_migrate__str_2_0_____Unsu
 .rodata.src_migrate__str_3_src_migrat
                0x000000000042501a        0xe 0x1 /usr/local/popcorn/aarch64/lib/libmigrate.a(migrate.o)
                0x000000000042501a                src_migrate__str_3_src_migrat
 .rodata.src_migrate___func_____migrate_shim_internal___migrate_
                0x0000000000425028       0x18 0x1 /usr/local/popcorn/aarch64/lib/libmigrate.a(migrate.o)
                0x0000000000425028                src_migrate___func_____migrate_shim_internal___migrate_
 .rodata.src_migrate__str_4_Could_not_
                0x0000000000425040       0x1a 0x1 /usr/local/popcorn/aarch64/lib/libmigrate.a(migrate.o)
                0x0000000000425040                src_migrate__str_4_Could_not_
 .rodata.src_migrate__str_5_Could_not_
                0x000000000042505a       0x1a 0x1 /usr/local/popcorn/aarch64/lib/libmigrate.a(migrate.o)
                0x000000000042505a                src_migrate__str_5_Could_not_
 .rodata.src_mapping__str_POPCORN_TH
                0x0000000000425074       0x18 0x1 /usr/local/popcorn/aarch64/lib/libmigrate.a(mapping.o)
                0x0000000000425074                src_mapping__str_POPCORN_TH
 .rodata.src_mapping__str_1_thread_sch
                0x000000000042508c       0x14 0x1 /usr/local/popcorn/aarch64/lib/libmigrate.a(mapping.o)
                0x000000000042508c                src_mapping__str_1_thread_sch
 .rodata.src_mapping__str_2_r_
                0x00000000004250a0        0x2 0x1 /usr/local/popcorn/aarch64/lib/libmigrate.a(mapping.o)
                0x00000000004250a0                src_mapping__str_2_r_
 .rodata.src_mapping__str_3__lu__lu_
                0x00000000004250a2        0x8 0x1 /usr/local/popcorn/aarch64/lib/libmigrate.a(mapping.o)
                0x00000000004250a2                src_mapping__str_3__lu__lu_
 .rodata.src_mapping__str_4__d_
                0x00000000004250aa        0x3 0x1 /usr/local/popcorn/aarch64/lib/libmigrate.a(mapping.o)
                0x00000000004250aa                src_mapping__str_4__d_
 .rodata.src_userspace__str_ST_AARCH64
                0x00000000004250ad        0xf 0x1 /usr/local/popcorn/aarch64/lib/libstack-transform.a(userspace.o)
                0x00000000004250ad                src_userspace__str_ST_AARCH64
 .rodata.src_userspace__str_1__s_aarch64
                0x00000000004250bc        0xb 0x1 /usr/local/popcorn/aarch64/lib/libstack-transform.a(userspace.o)
                0x00000000004250bc                src_userspace__str_1__s_aarch64
 .rodata.src_userspace__str_2_ST_POWERPC
                0x00000000004250c7       0x11 0x1 /usr/local/popcorn/aarch64/lib/libstack-transform.a(userspace.o)
                0x00000000004250c7                src_userspace__str_2_ST_POWERPC
 .rodata.src_userspace__str_3__s_powerpc
                0x00000000004250d8        0xd 0x1 /usr/local/popcorn/aarch64/lib/libstack-transform.a(userspace.o)
                0x00000000004250d8                src_userspace__str_3__s_powerpc
 .rodata.src_userspace__str_4_ST_X86_64_
                0x00000000004250e5        0xe 0x1 /usr/local/popcorn/aarch64/lib/libstack-transform.a(userspace.o)
                0x00000000004250e5                src_userspace__str_4_ST_X86_64_
 .rodata.src_userspace__str_5__s_x86_64_
                0x00000000004250f3        0xa 0x1 /usr/local/popcorn/aarch64/lib/libstack-transform.a(userspace.o)
                0x00000000004250f3                src_userspace__str_5__s_x86_64_
 .rodata.src_userspace__str_6__proc__d_m
                0x00000000004250fd        0xe 0x1 /usr/local/popcorn/aarch64/lib/libstack-transform.a(userspace.o)
                0x00000000004250fd                src_userspace__str_6__proc__d_m
 .rodata.src_userspace__str_7_r_
                0x000000000042510b        0x2 0x1 /usr/local/popcorn/aarch64/lib/libstack-transform.a(userspace.o)
                0x000000000042510b                src_userspace__str_7_r_
 .rodata.src_userspace__str_8__lx__lx__s
                0x000000000042510d       0x19 0x1 /usr/local/popcorn/aarch64/lib/libstack-transform.a(userspace.o)
                0x000000000042510d                src_userspace__str_8__lx__lx(short)
 .rodata.src_userspace__str_9__stack__
                0x0000000000425126        0x8 0x1 /usr/local/popcorn/aarch64/lib/libstack-transform.a(userspace.o)
                0x0000000000425126                src_userspace__str_9__stack__
 .rodata.src_userspace_switch_table_10_
                0x0000000000425130       0x18 0x10 /usr/local/popcorn/aarch64/lib/libstack-transform.a(userspace.o)
                0x0000000000425130                src_userspace_switch_table_10_
 .rodata.src_init__str__stack_tra
                0x0000000000425148       0x1f 0x1 /usr/local/popcorn/aarch64/lib/libstack-transform.a(init.o)
                0x0000000000425148                src_init__str__stack_tra
 .rodata.src_init__str_1__stack_tra
                0x0000000000425167       0x18 0x1 /usr/local/popcorn/aarch64/lib/libstack-transform.a(init.o)
                0x0000000000425167                src_init__str_1__stack_tra
 .rodata.src_init__str_2__stack_tra
                0x000000000042517f       0x14 0x1 /usr/local/popcorn/aarch64/lib/libstack-transform.a(init.o)
                0x000000000042517f                src_init__str_2__stack_tra
 .rodata.src_init__str_3__stack_tra
                0x0000000000425193       0x16 0x1 /usr/local/popcorn/aarch64/lib/libstack-transform.a(init.o)
                0x0000000000425193                src_init__str_3__stack_tra
 .rodata.src_init__str_4__stack_tra
                0x00000000004251a9       0x16 0x1 /usr/local/popcorn/aarch64/lib/libstack-transform.a(init.o)
                0x00000000004251a9                src_init__str_4__stack_tra
 .rodata.src_init__str_5__stack_tra
                0x00000000004251bf       0x1c 0x1 /usr/local/popcorn/aarch64/lib/libstack-transform.a(init.o)
                0x00000000004251bf                src_init__str_5__stack_tra
 .rodata.src_rewrite__str__src_rewri
                0x00000000004251db       0x42 0x1 /usr/local/popcorn/aarch64/lib/libstack-transform.a(rewrite.o)
                0x00000000004251db                src_rewrite__str__src_rewri
 .rodata.src_rewrite__str_1__src_rewri
                0x000000000042521d       0x68 0x1 /usr/local/popcorn/aarch64/lib/libstack-transform.a(rewrite.o)
                0x000000000042521d                src_rewrite__str_1__src_rewri
 .rodata.src_rewrite__str_2__src_rewri
                0x0000000000425285       0x54 0x1 /usr/local/popcorn/aarch64/lib/libstack-transform.a(rewrite.o)
                0x0000000000425285                src_rewrite__str_2__src_rewri
 .rodata.src_rewrite__str_3__src_rewri
                0x00000000004252d9       0x61 0x1 /usr/local/popcorn/aarch64/lib/libstack-transform.a(rewrite.o)
                0x00000000004252d9                src_rewrite__str_3__src_rewri
 .rodata.src_util__str_aarch64_
                0x000000000042533a        0x8 0x1 /usr/local/popcorn/aarch64/lib/libstack-transform.a(util.o)
                0x000000000042533a                src_util__str_aarch64_
 .rodata.src_util__str_1_powerpc64_
                0x0000000000425342        0xa 0x1 /usr/local/popcorn/aarch64/lib/libstack-transform.a(util.o)
                0x0000000000425342                src_util__str_1_powerpc64_
 .rodata.src_util__str_2_x86_64_
                0x000000000042534c        0x7 0x1 /usr/local/popcorn/aarch64/lib/libstack-transform.a(util.o)
                0x000000000042534c                src_util__str_2_x86_64_
 .rodata.src_util__str_3_unknown_un
                0x0000000000425353       0x21 0x1 /usr/local/popcorn/aarch64/lib/libstack-transform.a(util.o)
                0x0000000000425353                src_util__str_3_unknown_un
 .rodata.src_arch_aarch64_properties_c_callee_saved_aarch64
                0x0000000000425374       0x28 0x2 /usr/local/popcorn/aarch64/lib/libstack-transform.a(properties.o)
 .rodata.src_arch_aarch64_properties_c_callee_saved_size_aarch64
                0x000000000042539c       0x28 0x2 /usr/local/popcorn/aarch64/lib/libstack-transform.a(properties.o)
 .rodata.properties_aarch64
                0x00000000004253c8       0x38 0x8 /usr/local/popcorn/aarch64/lib/libstack-transform.a(properties.o)
                0x00000000004253c8                properties_aarch64
 .rodata.src_arch_aarch64_properties__str__src_arch_
                0x0000000000425400       0x51 0x1 /usr/local/popcorn/aarch64/lib/libstack-transform.a(properties.o)
                0x0000000000425400                src_arch_aarch64_properties__str__src_arch_
 .rodata.reg_aarch64
                0x0000000000425458      0x300 0x8 /usr/local/popcorn/aarch64/lib/libstack-transform.a(regs.o)
 .rodata.regs_aarch64
                0x0000000000425758       0xa8 0x8 /usr/local/popcorn/aarch64/lib/libstack-transform.a(regs.o)
                0x0000000000425758                regs_aarch64
 .rodata.src_arch_aarch64_regs__str__src_arch_
                0x0000000000425800       0x4c 0x1 /usr/local/popcorn/aarch64/lib/libstack-transform.a(regs.o)
                0x0000000000425800                src_arch_aarch64_regs__str__src_arch_
 .rodata.src_arch_aarch64_regs__str_1__src_arch_
                0x000000000042584c       0x4c 0x1 /usr/local/popcorn/aarch64/lib/libstack-transform.a(regs.o)
                0x000000000042584c                src_arch_aarch64_regs__str_1__src_arch_
 .rodata.is_callee_saved_powerpc64
                0x0000000000425898      0x208 0x8 /usr/local/popcorn/aarch64/lib/libstack-transform.a(properties.o)
 .rodata.callee_reg_size_powerpc64
                0x0000000000425aa0      0x210 0x8 /usr/local/popcorn/aarch64/lib/libstack-transform.a(properties.o)
 .rodata.src_arch_powerpc64_properties_c_callee_saved_powerpc64
                0x0000000000425cb0       0x4e 0x2 /usr/local/popcorn/aarch64/lib/libstack-transform.a(properties.o)
 .rodata.src_arch_powerpc64_properties_c_callee_saved_size_powerpc64
                0x0000000000425cfe       0x4c 0x2 /usr/local/popcorn/aarch64/lib/libstack-transform.a(properties.o)
 .rodata.properties_powerpc64
                0x0000000000425d50       0x38 0x8 /usr/local/popcorn/aarch64/lib/libstack-transform.a(properties.o)
                0x0000000000425d50                properties_powerpc64
 .rodata.src_arch_powerpc64_properties__str__src_arch_
                0x0000000000425d88       0x56 0x1 /usr/local/popcorn/aarch64/lib/libstack-transform.a(properties.o)
                0x0000000000425d88                src_arch_powerpc64_properties__str__src_arch_
 .rodata.reg_powerpc64
                0x0000000000425de0      0x218 0x8 /usr/local/popcorn/aarch64/lib/libstack-transform.a(regs.o)
 .rodata.regs_powerpc64
                0x0000000000425ff8       0xa8 0x8 /usr/local/popcorn/aarch64/lib/libstack-transform.a(regs.o)
                0x0000000000425ff8                regs_powerpc64
 .rodata.src_arch_powerpc64_regs__str__src_arch_
                0x00000000004260a0       0x50 0x1 /usr/local/popcorn/aarch64/lib/libstack-transform.a(regs.o)
                0x00000000004260a0                src_arch_powerpc64_regs__str__src_arch_
 .rodata.src_arch_powerpc64_regs__str_1__src_arch_
                0x00000000004260f0       0x50 0x1 /usr/local/popcorn/aarch64/lib/libstack-transform.a(regs.o)
                0x00000000004260f0                src_arch_powerpc64_regs__str_1__src_arch_
 .rodata.src_arch_x86_64_properties_c_callee_saved_x86_64
                0x0000000000426140        0xe 0x2 /usr/local/popcorn/aarch64/lib/libstack-transform.a(properties.o)
 .rodata.src_arch_x86_64_properties_c_callee_saved_size_x86_64
                0x000000000042614e        0xe 0x2 /usr/local/popcorn/aarch64/lib/libstack-transform.a(properties.o)
 .rodata.properties_x86_64
                0x0000000000426160       0x38 0x8 /usr/local/popcorn/aarch64/lib/libstack-transform.a(properties.o)
                0x0000000000426160                properties_x86_64
 .rodata.src_arch_x86_64_properties__str__src_arch_
                0x0000000000426198       0x4f 0x1 /usr/local/popcorn/aarch64/lib/libstack-transform.a(properties.o)
                0x0000000000426198                src_arch_x86_64_properties__str__src_arch_
 .rodata.reg_x86_64
                0x00000000004261e8      0x108 0x8 /usr/local/popcorn/aarch64/lib/libstack-transform.a(regs.o)
 .rodata.regs_x86_64
                0x00000000004262f0       0xa8 0x8 /usr/local/popcorn/aarch64/lib/libstack-transform.a(regs.o)
                0x00000000004262f0                regs_x86_64
 .rodata.src_arch_x86_64_regs__str__src_arch_
                0x0000000000426398       0x4b 0x1 /usr/local/popcorn/aarch64/lib/libstack-transform.a(regs.o)
                0x0000000000426398                src_arch_x86_64_regs__str__src_arch_
 .rodata.src_arch_x86_64_regs__str_1__src_arch_
                0x00000000004263e3       0x4b 0x1 /usr/local/popcorn/aarch64/lib/libstack-transform.a(regs.o)
                0x00000000004263e3                src_arch_x86_64_regs__str_1__src_arch_
 .rodata.src_arch_x86_64_regs__str_2__src_arch_
                0x000000000042642e       0x4a 0x1 /usr/local/popcorn/aarch64/lib/libstack-transform.a(regs.o)
                0x000000000042642e                src_arch_x86_64_regs__str_2__src_arch_
 .rodata.src_arch_x86_64_regs__str_3__src_arch_
                0x0000000000426478       0x4a 0x1 /usr/local/popcorn/aarch64/lib/libstack-transform.a(regs.o)
                0x0000000000426478                src_arch_x86_64_regs__str_3__src_arch_
 .rodata.put_val_arch
                0x00000000004264c8       0xb0 0x8 /usr/local/popcorn/aarch64/lib/libstack-transform.a(data.o)
 .rodata.points_to_stack
                0x0000000000426578       0x28 0x8 /usr/local/popcorn/aarch64/lib/libstack-transform.a(data.o)
 .rodata.src_data__str__src_data_
                0x00000000004265a0       0x50 0x1 /usr/local/popcorn/aarch64/lib/libstack-transform.a(data.o)
                0x00000000004265a0                src_data__str__src_data_
 .rodata.src_data__str_1__src_data_
                0x00000000004265f0       0x3d 0x1 /usr/local/popcorn/aarch64/lib/libstack-transform.a(data.o)
                0x00000000004265f0                src_data__str_1__src_data_
 .rodata.src_data__str_2__src_data_
                0x000000000042662d       0x30 0x1 /usr/local/popcorn/aarch64/lib/libstack-transform.a(data.o)
                0x000000000042662d                src_data__str_2__src_data_
 .rodata.src_data__str_3__src_data_
                0x000000000042665d       0x49 0x1 /usr/local/popcorn/aarch64/lib/libstack-transform.a(data.o)
                0x000000000042665d                src_data__str_3__src_data_
 .rodata.src_data__str_4__src_data_
                0x00000000004266a6       0x3f 0x1 /usr/local/popcorn/aarch64/lib/libstack-transform.a(data.o)
                0x00000000004266a6                src_data__str_4__src_data_
 .rodata.src_data__str_5__src_data_
                0x00000000004266e5       0x3d 0x1 /usr/local/popcorn/aarch64/lib/libstack-transform.a(data.o)
                0x00000000004266e5                src_data__str_5__src_data_
 .rodata.src_data__str_6__src_data_
                0x0000000000426722       0x3f 0x1 /usr/local/popcorn/aarch64/lib/libstack-transform.a(data.o)
                0x0000000000426722                src_data__str_6__src_data_
 .rodata.src_data__str_7__src_data_
                0x0000000000426761       0x37 0x1 /usr/local/popcorn/aarch64/lib/libstack-transform.a(data.o)
                0x0000000000426761                src_data__str_7__src_data_
 .rodata.src_data__str_8__src_data_
                0x0000000000426798       0x37 0x1 /usr/local/popcorn/aarch64/lib/libstack-transform.a(data.o)
                0x0000000000426798                src_data__str_8__src_data_
 .rodata.src_data__str_9__src_data_
                0x00000000004267cf       0x3f 0x1 /usr/local/popcorn/aarch64/lib/libstack-transform.a(data.o)
                0x00000000004267cf                src_data__str_9__src_data_
 .rodata.src_data__str_10__src_data_
                0x000000000042680e       0x3f 0x1 /usr/local/popcorn/aarch64/lib/libstack-transform.a(data.o)
                0x000000000042680e                src_data__str_10__src_data_
 .rodata.elf_begin
                0x0000000000426850       0x40 0x8 /usr/local/popcorn/aarch64/lib/libelf.a(begin.o)
 .rodata.begin_c__elf_init
                0x0000000000426890       0xe0 0x8 /usr/local/popcorn/aarch64/lib/libelf.a(begin.o)
 .rodata.begin_c_fmag
                0x0000000000426970        0x3 0x1 /usr/local/popcorn/aarch64/lib/libelf.a(begin.o)
 .rodata.begin__str__ELF_
                0x0000000000426973        0x5 0x1 /usr/local/popcorn/aarch64/lib/libelf.a(begin.o)
                0x0000000000426973                begin__str__ELF_
 .rodata.begin__str_1___arch___
                0x0000000000426978        0x9 0x1 /usr/local/popcorn/aarch64/lib/libelf.a(begin.o)
                0x0000000000426978                begin__str_1___arch___
 .rodata.version__str_LIBELF_SAN
                0x0000000000426981       0x15 0x1 /usr/local/popcorn/aarch64/lib/libelf.a(version.o)
                0x0000000000426981                version__str_LIBELF_SAN
 .rodata.32_xlatetof_c_xlate32_11
                0x0000000000426998      0x220 0x8 /usr/local/popcorn/aarch64/lib/libelf.a(32.xlatetof.o)
 .rodata._elf_scn_type
                0x0000000000426bb8       0x88 0x8 /usr/local/popcorn/aarch64/lib/libelf.a(cook.o)
 .rodata._elf_cook
                0x0000000000426c40      0x110 0x8 /usr/local/popcorn/aarch64/lib/libelf.a(cook.o)
 .rodata._elf_scn_init
                0x0000000000426d50       0xa0 0x8 /usr/local/popcorn/aarch64/lib/libelf.a(cook.o)
                0x0000000000426d50                _elf_scn_init
 .rodata._elf_data_init
                0x0000000000426df0       0x58 0x8 /usr/local/popcorn/aarch64/lib/libelf.a(cook.o)
                0x0000000000426df0                _elf_data_init
 .rodata.64_xlatetof_c_xlate64_11
                0x0000000000426e48      0x220 0x8 /usr/local/popcorn/aarch64/lib/libelf.a(64.xlatetof.o)
 .rodata._elf_fmsize
                0x0000000000427068      0x220 0x8 /usr/local/popcorn/aarch64/lib/libelf.a(32.fsize.o)
                0x0000000000427068                _elf_fmsize
 .rodata.src_exit_assert__str_Assertion_
                0x0000000000427288       0x23 0x1 /usr/local/popcorn/aarch64/lib/libc.a(assert.o)
                0x0000000000427288                src_exit_assert__str_Assertion_
 .rodata.src_stdio_fopen__str_rwa_
                0x00000000004272ab        0x4 0x1 /usr/local/popcorn/aarch64/lib/libc.a(fopen.o)
                0x00000000004272ab                src_stdio_fopen__str_rwa_
 .rodata.src_stdlib_qsort_qsort_p_
                0x00000000004272b0       0x10 0x8 /usr/local/popcorn/aarch64/lib/libc.a(qsort.o)
                0x00000000004272b0                src_stdlib_qsort_qsort_p_
 .rodata.src_stdio___fdopen__str_rwa_
                0x00000000004272c0        0x4 0x1 /usr/local/popcorn/aarch64/lib/libc.a(__fdopen.o)
                0x00000000004272c0                src_stdio___fdopen__str_rwa_
 .rodata        0x00000000004272c4        0xf 0x4 /usr/lib/gcc-cross/aarch64-linux-gnu/6/libgcc.a(divtf3.o)
 .rodata        0x00000000004272d4        0xf 0x4 /usr/lib/gcc-cross/aarch64-linux-gnu/6/libgcc.a(multf3.o)

.llvm_stackmaps
                0x00000000004272e8     0x42e0
 .llvm_stackmaps
                0x00000000004272e8     0x3c18 0x8 tiny_aarch64.o
 .llvm_stackmaps
                0x000000000042af00       0x48 0x8 /usr/local/popcorn/aarch64/lib/libc.a(__libc_start_main.o)
 .llvm_stackmaps
                0x000000000042af48      0x408 0x8 /usr/local/popcorn/aarch64/lib/libmigrate.a(migrate.o)
 .llvm_stackmaps
                0x000000000042b350      0x278 0x8 /usr/local/popcorn/aarch64/lib/libmigrate.a(mapping.o)

.eh_frame       0x000000000042b5c8      0x2a0
 ** eh_frame    0x000000000042b5c8      0x2a0

.data.rel.ro.local
                0x000000000043ffa8       0x28
 .data.rel.ro.local
                0x000000000043ffa8       0x10 0x8 /usr/local/popcorn/aarch64/lib/libc.a(__libc_start_main.o)
 .data.rel.ro.local
                0x000000000043ffb8       0x10 0x8 /usr/local/popcorn/aarch64/lib/libc.a(exit.o)
 .data.rel.ro.local
                0x000000000043ffc8        0x8 0x8 /usr/local/popcorn/aarch64/lib/libc.a(__init_tls.o)

.data.rel.ro    0x000000000043ffd0       0x10
 .data.rel.ro   0x000000000043ffd0       0x10 0x8 /usr/local/popcorn/aarch64/lib/crt1.o

.init_array     0x000000000043ffe0       0x18
 .init_array    0x000000000043ffe0        0x8 0x8 /usr/local/popcorn/aarch64/lib/libmigrate.a(migrate.o)
 .init_array    0x000000000043ffe8        0x8 0x8 /usr/local/popcorn/aarch64/lib/libmigrate.a(mapping.o)
 .init_array    0x000000000043fff0        0x8 0x8 /usr/local/popcorn/aarch64/lib/libstack-transform.a(init.o)

.fini_array     0x000000000043fff8        0x8
 .fini_array    0x000000000043fff8        0x8 0x8 /usr/local/popcorn/aarch64/lib/libmigrate.a(mapping.o)

.data           0x0000000000440000      0x2e8
 .data          0x0000000000440000        0x0 0x4 tiny_aarch64.o
 .data.meme_types
                0x0000000000440000       0xe0 0x10 tiny_aarch64.o
                0x0000000000440000                meme_types
 .data.default_mime_type
                0x00000000004400e0        0x8 0x8 tiny_aarch64.o
                0x00000000004400e0                default_mime_type
 .data          0x00000000004400e8        0x0 0x4 /usr/local/popcorn/aarch64/lib/crt1.o
 .data          0x00000000004400e8        0x0 0x4 /usr/local/popcorn/aarch64/lib/libc.a(closedir.o)
 .data          0x00000000004400e8        0x0 0x4 /usr/local/popcorn/aarch64/lib/libc.a(fdopendir.o)
 .data          0x00000000004400e8        0x0 0x4 /usr/local/popcorn/aarch64/lib/libc.a(readdir.o)
 .data          0x00000000004400e8        0x0 0x4 /usr/local/popcorn/aarch64/lib/libc.a(__libc_start_main.o)
 .data          0x00000000004400e8        0x0 0x4 /usr/local/popcorn/aarch64/lib/libc.a(__errno_location.o)
 .data          0x00000000004400e8        0x0 0x4 /usr/local/popcorn/aarch64/lib/libc.a(exit.o)
 .data          0x00000000004400e8        0x0 0x4 /usr/local/popcorn/aarch64/lib/libc.a(fcntl.o)
 .data          0x00000000004400e8        0x0 0x4 /usr/local/popcorn/aarch64/lib/libc.a(open.o)
 .data          0x00000000004400e8        0x0 0x4 /usr/local/popcorn/aarch64/lib/libc.a(openat.o)
 .data          0x00000000004400e8        0x0 0x4 /usr/local/popcorn/aarch64/lib/libc.a(libc.o)
 .data          0x00000000004400e8        0x0 0x4 /usr/local/popcorn/aarch64/lib/libc.a(syscall_ret.o)
 .data          0x00000000004400e8        0x0 0x4 /usr/local/popcorn/aarch64/lib/libc.a(sendfile.o)
 .data          0x00000000004400e8        0x0 0x4 /usr/local/popcorn/aarch64/lib/libc.a(calloc.o)
 .data          0x00000000004400e8        0x0 0x4 /usr/local/popcorn/aarch64/lib/libc.a(lite_malloc.o)
 .data          0x00000000004400e8        0x0 0x4 /usr/local/popcorn/aarch64/lib/libc.a(malloc.o)
 .data          0x00000000004400e8        0x0 0x4 /usr/local/popcorn/aarch64/lib/libc.a(popcorn_malloc.o)
 .data          0x00000000004400e8        0x0 0x4 /usr/local/popcorn/aarch64/lib/libc.a(madvise.o)
 .data          0x00000000004400e8        0x0 0x4 /usr/local/popcorn/aarch64/lib/libc.a(mmap.o)
 .data          0x00000000004400e8        0x0 0x4 /usr/local/popcorn/aarch64/lib/libc.a(mremap.o)
 .data          0x00000000004400e8        0x0 0x4 /usr/local/popcorn/aarch64/lib/libc.a(munmap.o)
 .data          0x00000000004400e8        0x0 0x4 /usr/local/popcorn/aarch64/lib/libc.a(accept.o)
 .data          0x00000000004400e8        0x0 0x4 /usr/local/popcorn/aarch64/lib/libc.a(bind.o)
 .data          0x00000000004400e8        0x0 0x4 /usr/local/popcorn/aarch64/lib/libc.a(htonl.o)
 .data          0x00000000004400e8        0x0 0x4 /usr/local/popcorn/aarch64/lib/libc.a(htons.o)
 .data          0x00000000004400e8        0x0 0x4 /usr/local/popcorn/aarch64/lib/libc.a(inet_ntoa.o)
 .data          0x00000000004400e8        0x0 0x4 /usr/local/popcorn/aarch64/lib/libc.a(listen.o)
 .data          0x00000000004400e8        0x0 0x4 /usr/local/popcorn/aarch64/lib/libc.a(ntohs.o)
 .data          0x00000000004400e8        0x0 0x4 /usr/local/popcorn/aarch64/lib/libc.a(setsockopt.o)
 .data          0x00000000004400e8        0x0 0x4 /usr/local/popcorn/aarch64/lib/libc.a(socket.o)
 .data          0x00000000004400e8        0x0 0x4 /usr/local/popcorn/aarch64/lib/libc.a(fork.o)
 .data          0x00000000004400e8        0x0 0x4 /usr/local/popcorn/aarch64/lib/libc.a(block.o)
 .data          0x00000000004400e8        0x0 0x4 /usr/local/popcorn/aarch64/lib/libc.a(signal.o)
 .data          0x00000000004400e8        0x0 0x4 /usr/local/popcorn/aarch64/lib/libc.a(fstat.o)
 .data          0x00000000004400e8        0x0 0x4 /usr/local/popcorn/aarch64/lib/libc.a(perror.o)
 .data          0x00000000004400e8        0x0 0x4 /usr/local/popcorn/aarch64/lib/libc.a(printf.o)
 .data          0x00000000004400e8        0x0 0x4 /usr/local/popcorn/aarch64/lib/libc.a(snprintf.o)
 .data          0x00000000004400e8        0x0 0x4 /usr/local/popcorn/aarch64/lib/libc.a(sprintf.o)
 .data          0x00000000004400e8        0x0 0x4 /usr/local/popcorn/aarch64/lib/libc.a(sscanf.o)
 .data          0x00000000004400e8        0x0 0x4 /usr/local/popcorn/aarch64/lib/libc.a(stderr.o)
 .data.src_stdio_stderr_c_f
                0x00000000004400e8       0xe8 0x8 /usr/local/popcorn/aarch64/lib/libc.a(stderr.o)
 .data.__stderr_used
                0x00000000004401d0        0x8 0x8 /usr/local/popcorn/aarch64/lib/libc.a(stderr.o)
                0x00000000004401d0                __stderr_used
 .data          0x00000000004401d8        0x0 0x4 /usr/local/popcorn/aarch64/lib/libc.a(stdout.o)
 .data.src_stdio_stdout_c_f
                0x00000000004401d8       0xe8 0x8 /usr/local/popcorn/aarch64/lib/libc.a(stdout.o)
 .data.__stdout_used
                0x00000000004402c0        0x8 0x8 /usr/local/popcorn/aarch64/lib/libc.a(stdout.o)
                0x00000000004402c0                __stdout_used
 .data          0x00000000004402c8        0x0 0x4 /usr/local/popcorn/aarch64/lib/libc.a(vfprintf.o)
 .data          0x00000000004402c8        0x0 0x4 /usr/local/popcorn/aarch64/lib/libc.a(vsnprintf.o)
 .data          0x00000000004402c8        0x0 0x4 /usr/local/popcorn/aarch64/lib/libc.a(vsprintf.o)
 .data          0x00000000004402c8        0x0 0x4 /usr/local/popcorn/aarch64/lib/libc.a(vsscanf.o)
 .data          0x00000000004402c8        0x0 0x4 /usr/local/popcorn/aarch64/lib/libc.a(atoi.o)
 .data          0x00000000004402c8        0x0 0x4 /usr/local/popcorn/aarch64/lib/libc.a(strtol.o)
 .data          0x00000000004402c8        0x0 0x4 /usr/local/popcorn/aarch64/lib/libc.a(memcpy.o)
 .data          0x00000000004402c8        0x0 0x4 /usr/local/popcorn/aarch64/lib/libc.a(memset.o)
 .data          0x00000000004402c8        0x0 0x4 /usr/local/popcorn/aarch64/lib/libc.a(strcmp.o)
 .data          0x00000000004402c8        0x0 0x4 /usr/local/popcorn/aarch64/lib/libc.a(strlen.o)
 .data          0x00000000004402c8        0x0 0x4 /usr/local/popcorn/aarch64/lib/libc.a(strnlen.o)
 .data          0x00000000004402c8        0x0 0x4 /usr/local/popcorn/aarch64/lib/libc.a(strrchr.o)
 .data          0x00000000004402c8        0x0 0x4 /usr/local/popcorn/aarch64/lib/libc.a(__lock.o)
 .data          0x00000000004402c8        0x0 0x4 /usr/local/popcorn/aarch64/lib/libc.a(__syscall_cp.o)
 .data          0x00000000004402c8        0x0 0x4 /usr/local/popcorn/aarch64/lib/libc.a(__wait.o)
 .data          0x00000000004402c8        0x0 0x4 /usr/local/popcorn/aarch64/lib/libc.a(localtime.o)
 .data          0x00000000004402c8        0x0 0x4 /usr/local/popcorn/aarch64/lib/libc.a(localtime_r.o)
 .data          0x00000000004402c8        0x0 0x4 /usr/local/popcorn/aarch64/lib/libc.a(strftime.o)
 .data          0x00000000004402c8        0x0 0x4 /usr/local/popcorn/aarch64/lib/libc.a(chdir.o)
 .data          0x00000000004402c8        0x0 0x4 /usr/local/popcorn/aarch64/lib/libc.a(close.o)
 .data          0x00000000004402c8        0x0 0x4 /usr/local/popcorn/aarch64/lib/libc.a(getcwd.o)
 .data          0x00000000004402c8        0x0 0x4 /usr/local/popcorn/aarch64/lib/libc.a(getpid.o)
 .data          0x00000000004402c8        0x0 0x4 /usr/local/popcorn/aarch64/lib/libc.a(read.o)
 .data          0x00000000004402c8        0x0 0x4 /usr/local/popcorn/aarch64/lib/libc.a(write.o)
 .data          0x00000000004402c8        0x0 0x4 /usr/local/popcorn/aarch64/lib/libc.a(__environ.o)
 .data          0x00000000004402c8        0x0 0x4 /usr/local/popcorn/aarch64/lib/libc.a(__init_tls.o)
 .data          0x00000000004402c8        0x0 0x4 /usr/local/popcorn/aarch64/lib/libc.a(strerror.o)
 .data          0x00000000004402c8        0x0 0x4 /usr/local/popcorn/aarch64/lib/libc.a(_Exit.o)
 .data          0x00000000004402c8        0x0 0x4 /usr/local/popcorn/aarch64/lib/libc.a(syscall.o)
 .data          0x00000000004402c8        0x0 0x4 /usr/local/popcorn/aarch64/lib/libc.a(intscan.o)
 .data          0x00000000004402c8        0x0 0x4 /usr/local/popcorn/aarch64/lib/libc.a(procfdname.o)
 .data          0x00000000004402c8        0x0 0x4 /usr/local/popcorn/aarch64/lib/libc.a(shgetc.o)
 .data          0x00000000004402c8        0x0 0x4 /usr/local/popcorn/aarch64/lib/libc.a(__lctrans.o)
 .data          0x00000000004402c8        0x0 0x4 /usr/local/popcorn/aarch64/lib/libc.a(langinfo.o)
 .data          0x00000000004402c8        0x0 0x4 /usr/local/popcorn/aarch64/lib/libc.a(expand_heap.o)
 .data          0x00000000004402c8        0x0 0x4 /usr/local/popcorn/aarch64/lib/libc.a(__fpclassifyl.o)
 .data          0x00000000004402c8        0x0 0x4 /usr/local/popcorn/aarch64/lib/libc.a(__signbitl.o)
 .data          0x00000000004402c8        0x0 0x4 /usr/local/popcorn/aarch64/lib/libc.a(frexpl.o)
 .data          0x00000000004402c8        0x0 0x4 /usr/local/popcorn/aarch64/lib/libc.a(wctomb.o)
 .data          0x00000000004402c8        0x0 0x4 /usr/local/popcorn/aarch64/lib/libc.a(sigaction.o)
 .data          0x00000000004402c8        0x0 0x4 /usr/local/popcorn/aarch64/lib/libc.a(__lockfile.o)
 .data          0x00000000004402c8        0x0 0x4 /usr/local/popcorn/aarch64/lib/libc.a(__stdio_close.o)
 .data          0x00000000004402c8        0x0 0x4 /usr/local/popcorn/aarch64/lib/libc.a(__stdio_seek.o)
 .data          0x00000000004402c8        0x0 0x4 /usr/local/popcorn/aarch64/lib/libc.a(__stdio_write.o)
 .data          0x00000000004402c8        0x0 0x4 /usr/local/popcorn/aarch64/lib/libc.a(__stdout_write.o)
 .data          0x00000000004402c8        0x0 0x4 /usr/local/popcorn/aarch64/lib/libc.a(__string_read.o)
 .data          0x00000000004402c8        0x0 0x4 /usr/local/popcorn/aarch64/lib/libc.a(__uflow.o)
 .data          0x00000000004402c8        0x0 0x4 /usr/local/popcorn/aarch64/lib/libc.a(fputc.o)
 .data          0x00000000004402c8        0x0 0x4 /usr/local/popcorn/aarch64/lib/libc.a(fwrite.o)
 .data          0x00000000004402c8        0x0 0x4 /usr/local/popcorn/aarch64/lib/libc.a(vfscanf.o)
 .data          0x00000000004402c8        0x0 0x4 /usr/local/popcorn/aarch64/lib/libc.a(abs.o)
 .data          0x00000000004402c8        0x0 0x4 /usr/local/popcorn/aarch64/lib/libc.a(memchr.o)
 .data          0x00000000004402c8        0x0 0x4 /usr/local/popcorn/aarch64/lib/libc.a(memrchr.o)
 .data          0x00000000004402c8        0x0 0x4 /usr/local/popcorn/aarch64/lib/libc.a(strdup.o)
 .data          0x00000000004402c8        0x0 0x4 /usr/local/popcorn/aarch64/lib/libc.a(__set_thread_area.o)
 .data          0x00000000004402c8        0x0 0x4 /usr/local/popcorn/aarch64/lib/libc.a(__secs_to_tm.o)
 .data          0x00000000004402c8        0x0 0x4 /usr/local/popcorn/aarch64/lib/libc.a(__tm_to_secs.o)
 .data          0x00000000004402c8        0x0 0x4 /usr/local/popcorn/aarch64/lib/libc.a(__tz.o)
 .data.src_time___tz_c_old_tz
                0x00000000004402c8        0x8 0x8 /usr/local/popcorn/aarch64/lib/libc.a(__tz.o)
 .data.src_time___tz_c_old_tz_size
                0x00000000004402d0        0x8 0x8 /usr/local/popcorn/aarch64/lib/libc.a(__tz.o)
 .data          0x00000000004402d8        0x0 0x4 /usr/local/popcorn/aarch64/lib/libc.a(__year_to_secs.o)
 .data          0x00000000004402d8        0x0 0x4 /usr/local/popcorn/aarch64/lib/libc.a(getenv.o)
 .data          0x00000000004402d8        0x0 0x4 /usr/local/popcorn/aarch64/lib/libc.a(floatscan.o)
 .data          0x00000000004402d8        0x0 0x4 /usr/local/popcorn/aarch64/lib/libc.a(fabs.o)
 .data          0x00000000004402d8        0x0 0x4 /usr/local/popcorn/aarch64/lib/libc.a(copysignl.o)
 .data          0x00000000004402d8        0x0 0x4 /usr/local/popcorn/aarch64/lib/libc.a(fmodl.o)
 .data          0x00000000004402d8        0x0 0x4 /usr/local/popcorn/aarch64/lib/libc.a(scalbn.o)
 .data          0x00000000004402d8        0x0 0x4 /usr/local/popcorn/aarch64/lib/libc.a(scalbnl.o)
 .data          0x00000000004402d8        0x0 0x4 /usr/local/popcorn/aarch64/lib/libc.a(mbrtowc.o)
 .data          0x00000000004402d8        0x0 0x4 /usr/local/popcorn/aarch64/lib/libc.a(mbsinit.o)
 .data          0x00000000004402d8        0x0 0x4 /usr/local/popcorn/aarch64/lib/libc.a(wcrtomb.o)
 .data          0x00000000004402d8        0x0 0x4 /usr/local/popcorn/aarch64/lib/libc.a(restore.o)
 .data          0x00000000004402d8        0x0 0x4 /usr/local/popcorn/aarch64/lib/libc.a(__overflow.o)
 .data          0x00000000004402d8        0x0 0x4 /usr/local/popcorn/aarch64/lib/libc.a(__toread.o)
 .data          0x00000000004402d8        0x0 0x4 /usr/local/popcorn/aarch64/lib/libc.a(__towrite.o)
 .data          0x00000000004402d8        0x0 0x4 /usr/local/popcorn/aarch64/lib/libc.a(memcmp.o)
 .data          0x00000000004402d8        0x0 0x4 /usr/local/popcorn/aarch64/lib/libc.a(strchr.o)
 .data          0x00000000004402d8        0x0 0x4 /usr/local/popcorn/aarch64/lib/libc.a(strchrnul.o)
 .data          0x00000000004402d8        0x0 0x4 /usr/local/popcorn/aarch64/lib/libc.a(strncmp.o)
 .data          0x00000000004402d8        0x0 0x4 /usr/local/popcorn/aarch64/lib/libc.a(__map_file.o)
 .data          0x00000000004402d8        0x0 0x4 /usr/local/popcorn/aarch64/lib/libc.a(__month_to_secs.o)
 .data          0x00000000004402d8        0x0 0x4 /usr/local/popcorn/aarch64/lib/libc.a(internal.o)
 .data          0x00000000004402d8        0x0 0x4 /usr/local/popcorn/aarch64/lib/libc.a(__stdio_exit.o)
 .data          0x00000000004402d8        0x0 0x4 /usr/local/popcorn/aarch64/lib/libc.a(ofl.o)
 .data          0x00000000004402d8        0x0 0x4 /usr/local/popcorn/aarch64/lib/libmigrate.a(migrate.o)
 .data.src_migrate_c_origin_nid
                0x00000000004402d8        0x4 0x4 /usr/local/popcorn/aarch64/lib/libmigrate.a(migrate.o)
 .data          0x00000000004402dc        0x0 0x1 /usr/local/popcorn/aarch64/lib/libmigrate.a(migrate_x86_64.o)
 .data          0x00000000004402dc        0x0 0x1 /usr/local/popcorn/aarch64/lib/libmigrate.a(migrate_powerpc64.o)
 .data          0x00000000004402dc        0x0 0x1 /usr/local/popcorn/aarch64/lib/libmigrate.a(migrate_aarch64.o)
 .data          0x00000000004402dc        0x0 0x4 /usr/local/popcorn/aarch64/lib/libmigrate.a(mapping.o)
 .data          0x00000000004402dc        0x0 0x4 /usr/local/popcorn/aarch64/lib/libstack-transform.a(userspace.o)
 .data          0x00000000004402dc        0x0 0x4 /usr/local/popcorn/aarch64/lib/libstack-transform.a(init.o)
 .data          0x00000000004402dc        0x0 0x4 /usr/local/popcorn/aarch64/lib/libstack-transform.a(rewrite.o)
 .data          0x00000000004402dc        0x0 0x4 /usr/local/popcorn/aarch64/lib/libstack-transform.a(unwind.o)
 .data          0x00000000004402dc        0x0 0x4 /usr/local/popcorn/aarch64/lib/libstack-transform.a(util.o)
 .data          0x00000000004402dc        0x0 0x4 /usr/local/popcorn/aarch64/lib/libstack-transform.a(properties.o)
 .data          0x00000000004402dc        0x0 0x4 /usr/local/popcorn/aarch64/lib/libstack-transform.a(regs.o)
 .data          0x00000000004402dc        0x0 0x4 /usr/local/popcorn/aarch64/lib/libstack-transform.a(properties.o)
 .data          0x00000000004402dc        0x0 0x4 /usr/local/popcorn/aarch64/lib/libstack-transform.a(regs.o)
 .data          0x00000000004402dc        0x0 0x4 /usr/local/popcorn/aarch64/lib/libstack-transform.a(properties.o)
 .data          0x00000000004402dc        0x0 0x4 /usr/local/popcorn/aarch64/lib/libstack-transform.a(regs.o)
 .data          0x00000000004402dc        0x0 0x4 /usr/local/popcorn/aarch64/lib/libstack-transform.a(data.o)
 .data          0x00000000004402dc        0x0 0x4 /usr/local/popcorn/aarch64/lib/libelf.a(begin.o)
 .data          0x00000000004402dc        0x0 0x4 /usr/local/popcorn/aarch64/lib/libelf.a(end.o)
 .data          0x00000000004402dc        0x0 0x4 /usr/local/popcorn/aarch64/lib/libelf.a(getdata.o)
 .data          0x00000000004402dc        0x0 0x4 /usr/local/popcorn/aarch64/lib/libelf.a(getident.o)
 .data          0x00000000004402dc        0x0 0x4 /usr/local/popcorn/aarch64/lib/libelf.a(nextscn.o)
 .data          0x00000000004402dc        0x0 0x4 /usr/local/popcorn/aarch64/lib/libelf.a(strptr.o)
 .data          0x00000000004402dc        0x0 0x4 /usr/local/popcorn/aarch64/lib/libelf.a(version.o)
 .data          0x00000000004402dc        0x0 0x4 /usr/local/popcorn/aarch64/lib/libelf.a(32.getehdr.o)
 .data          0x00000000004402dc        0x0 0x4 /usr/local/popcorn/aarch64/lib/libelf.a(32.xlatetof.o)
 .data          0x00000000004402dc        0x0 0x4 /usr/local/popcorn/aarch64/lib/libelf.a(cook.o)
 .data          0x00000000004402dc        0x0 0x4 /usr/local/popcorn/aarch64/lib/libelf.a(data.o)
 .data._elf_sanity_checks
                0x00000000004402dc        0x4 0x4 /usr/local/popcorn/aarch64/lib/libelf.a(data.o)
                0x00000000004402dc                _elf_sanity_checks
 .data          0x00000000004402e0        0x0 0x4 /usr/local/popcorn/aarch64/lib/libelf.a(input.o)
 .data          0x00000000004402e0        0x0 0x4 /usr/local/popcorn/aarch64/lib/libelf.a(x.elfext.o)
 .data          0x00000000004402e0        0x0 0x4 /usr/local/popcorn/aarch64/lib/libelf.a(64.xlatetof.o)
 .data          0x00000000004402e0        0x0 0x4 /usr/local/popcorn/aarch64/lib/libelf.a(gelfshdr.o)
 .data          0x00000000004402e0        0x0 0x4 /usr/local/popcorn/aarch64/lib/libelf.a(swap64.o)
 .data          0x00000000004402e0        0x0 0x4 /usr/local/popcorn/aarch64/lib/libelf.a(verdef_32_tof.o)
 .data          0x00000000004402e0        0x0 0x4 /usr/local/popcorn/aarch64/lib/libelf.a(verdef_32_tom.o)
 .data          0x00000000004402e0        0x0 0x4 /usr/local/popcorn/aarch64/lib/libelf.a(verdef_64_tof.o)
 .data          0x00000000004402e0        0x0 0x4 /usr/local/popcorn/aarch64/lib/libelf.a(verdef_64_tom.o)
 .data          0x00000000004402e0        0x0 0x4 /usr/local/popcorn/aarch64/lib/libelf.a(getscn.o)
 .data          0x00000000004402e0        0x0 0x4 /usr/local/popcorn/aarch64/lib/libelf.a(newscn.o)
 .data          0x00000000004402e0        0x0 0x4 /usr/local/popcorn/aarch64/lib/libelf.a(32.fsize.o)
 .data          0x00000000004402e0        0x0 0x4 /usr/local/popcorn/aarch64/lib/libc.a(arch_crash.o)
 .data          0x00000000004402e0        0x0 0x4 /usr/local/popcorn/aarch64/lib/libc.a(assert.o)
 .data          0x00000000004402e0        0x0 0x4 /usr/local/popcorn/aarch64/lib/libc.a(getrlimit.o)
 .data          0x00000000004402e0        0x0 0x4 /usr/local/popcorn/aarch64/lib/libc.a(syscall.o)
 .data          0x00000000004402e0        0x0 0x4 /usr/local/popcorn/aarch64/lib/libc.a(fclose.o)
 .data          0x00000000004402e0        0x0 0x4 /usr/local/popcorn/aarch64/lib/libc.a(fflush.o)
 .data          0x00000000004402e0        0x0 0x4 /usr/local/popcorn/aarch64/lib/libc.a(fopen.o)
 .data          0x00000000004402e0        0x0 0x4 /usr/local/popcorn/aarch64/lib/libc.a(fprintf.o)
 .data          0x00000000004402e0        0x0 0x4 /usr/local/popcorn/aarch64/lib/libc.a(fscanf.o)
 .data          0x00000000004402e0        0x0 0x4 /usr/local/popcorn/aarch64/lib/libc.a(fseek.o)
 .data          0x00000000004402e0        0x0 0x4 /usr/local/popcorn/aarch64/lib/libc.a(getc.o)
 .data          0x00000000004402e0        0x0 0x4 /usr/local/popcorn/aarch64/lib/libc.a(getline.o)
 .data          0x00000000004402e0        0x0 0x4 /usr/local/popcorn/aarch64/lib/libc.a(bsearch.o)
 .data          0x00000000004402e0        0x0 0x4 /usr/local/popcorn/aarch64/lib/libc.a(qsort.o)
 .data          0x00000000004402e0        0x0 0x4 /usr/local/popcorn/aarch64/lib/libc.a(pthread_attr_get.o)
 .data          0x00000000004402e0        0x0 0x4 /usr/local/popcorn/aarch64/lib/libc.a(pthread_getattr_np.o)
 .data          0x00000000004402e0        0x0 0x4 /usr/local/popcorn/aarch64/lib/libc.a(pthread_getspecific.o)
 .data          0x00000000004402e0        0x0 0x4 /usr/local/popcorn/aarch64/lib/libc.a(pthread_key_create.o)
 .data.__pthread_tsd_size
                0x00000000004402e0        0x8 0x8 /usr/local/popcorn/aarch64/lib/libc.a(pthread_key_create.o)
                0x00000000004402e0                __pthread_tsd_size
 .data          0x00000000004402e8        0x0 0x4 /usr/local/popcorn/aarch64/lib/libc.a(pthread_migrate.o)
 .data          0x00000000004402e8        0x0 0x4 /usr/local/popcorn/aarch64/lib/libc.a(pthread_self.o)
 .data          0x00000000004402e8        0x0 0x4 /usr/local/popcorn/aarch64/lib/libc.a(pthread_setspecific.o)
 .data          0x00000000004402e8        0x0 0x4 /usr/local/popcorn/aarch64/lib/libc.a(lseek.o)
 .data          0x00000000004402e8        0x0 0x4 /usr/local/popcorn/aarch64/lib/libc.a(abort.o)
 .data          0x00000000004402e8        0x0 0x4 /usr/local/popcorn/aarch64/lib/libc.a(raise.o)
 .data          0x00000000004402e8        0x0 0x4 /usr/local/popcorn/aarch64/lib/libc.a(__fdopen.o)
 .data          0x00000000004402e8        0x0 0x4 /usr/local/popcorn/aarch64/lib/libc.a(__fmodeflags.o)
 .data          0x00000000004402e8        0x0 0x4 /usr/local/popcorn/aarch64/lib/libc.a(__stdio_read.o)
 .data          0x00000000004402e8        0x0 0x4 /usr/local/popcorn/aarch64/lib/libc.a(getdelim.o)
 .data          0x00000000004402e8        0x0 0x4 /usr/local/popcorn/aarch64/lib/libc.a(ofl_add.o)
 .data          0x00000000004402e8        0x0 0x1 /usr/lib/gcc-cross/aarch64-linux-gnu/6/libgcc.a(addtf3.o)
 .data          0x00000000004402e8        0x0 0x1 /usr/lib/gcc-cross/aarch64-linux-gnu/6/libgcc.a(divtf3.o)
 .data          0x00000000004402e8        0x0 0x1 /usr/lib/gcc-cross/aarch64-linux-gnu/6/libgcc.a(eqtf2.o)
 .data          0x00000000004402e8        0x0 0x1 /usr/lib/gcc-cross/aarch64-linux-gnu/6/libgcc.a(getf2.o)
 .data          0x00000000004402e8        0x0 0x1 /usr/lib/gcc-cross/aarch64-linux-gnu/6/libgcc.a(letf2.o)
 .data          0x00000000004402e8        0x0 0x1 /usr/lib/gcc-cross/aarch64-linux-gnu/6/libgcc.a(multf3.o)
 .data          0x00000000004402e8        0x0 0x1 /usr/lib/gcc-cross/aarch64-linux-gnu/6/libgcc.a(subtf3.o)
 .data          0x00000000004402e8        0x0 0x1 /usr/lib/gcc-cross/aarch64-linux-gnu/6/libgcc.a(unordtf2.o)
 .data          0x00000000004402e8        0x0 0x1 /usr/lib/gcc-cross/aarch64-linux-gnu/6/libgcc.a(fixtfsi.o)
 .data          0x00000000004402e8        0x0 0x1 /usr/lib/gcc-cross/aarch64-linux-gnu/6/libgcc.a(fixunstfsi.o)
 .data          0x00000000004402e8        0x0 0x1 /usr/lib/gcc-cross/aarch64-linux-gnu/6/libgcc.a(floatsitf.o)
 .data          0x00000000004402e8        0x0 0x1 /usr/lib/gcc-cross/aarch64-linux-gnu/6/libgcc.a(floatunsitf.o)
 .data          0x00000000004402e8        0x0 0x1 /usr/lib/gcc-cross/aarch64-linux-gnu/6/libgcc.a(extendsftf2.o)
 .data          0x00000000004402e8        0x0 0x1 /usr/lib/gcc-cross/aarch64-linux-gnu/6/libgcc.a(extenddftf2.o)
 .data          0x00000000004402e8        0x0 0x1 /usr/lib/gcc-cross/aarch64-linux-gnu/6/libgcc.a(trunctfsf2.o)
 .data          0x00000000004402e8        0x0 0x1 /usr/lib/gcc-cross/aarch64-linux-gnu/6/libgcc.a(trunctfdf2.o)
 .data          0x00000000004402e8        0x0 0x1 /usr/lib/gcc-cross/aarch64-linux-gnu/6/libgcc.a(sfp-exceptions.o)

.bss            0x00000000004402f0     0xde28
 .bss           0x00000000004402f0        0x0 0x4 tiny_aarch64.o
 .bss           0x00000000004402f0        0x0 0x4 /usr/local/popcorn/aarch64/lib/crt1.o
 .bss           0x00000000004402f0        0x0 0x4 /usr/local/popcorn/aarch64/lib/libc.a(closedir.o)
 .bss           0x00000000004402f0        0x0 0x4 /usr/local/popcorn/aarch64/lib/libc.a(fdopendir.o)
 .bss           0x00000000004402f0        0x0 0x4 /usr/local/popcorn/aarch64/lib/libc.a(readdir.o)
 .bss           0x00000000004402f0        0x0 0x4 /usr/local/popcorn/aarch64/lib/libc.a(__libc_start_main.o)
 .bss.__popcorn_stack_base
                0x00000000004402f0        0x8 0x8 /usr/local/popcorn/aarch64/lib/libc.a(__libc_start_main.o)
                0x00000000004402f0                __popcorn_stack_base
 .bss           0x00000000004402f8        0x0 0x4 /usr/local/popcorn/aarch64/lib/libc.a(__errno_location.o)
 .bss           0x00000000004402f8        0x0 0x4 /usr/local/popcorn/aarch64/lib/libc.a(exit.o)
 .bss           0x00000000004402f8        0x0 0x4 /usr/local/popcorn/aarch64/lib/libc.a(fcntl.o)
 .bss           0x00000000004402f8        0x0 0x4 /usr/local/popcorn/aarch64/lib/libc.a(open.o)
 .bss           0x00000000004402f8        0x0 0x4 /usr/local/popcorn/aarch64/lib/libc.a(openat.o)
 .bss           0x00000000004402f8        0x0 0x4 /usr/local/popcorn/aarch64/lib/libc.a(libc.o)
 .bss.__progname
                0x00000000004402f8        0x8 0x8 /usr/local/popcorn/aarch64/lib/libc.a(libc.o)
                0x00000000004402f8                __progname
                0x00000000004402f8                program_invocation_short_name
 .bss.__progname_full
                0x0000000000440300        0x8 0x8 /usr/local/popcorn/aarch64/lib/libc.a(libc.o)
                0x0000000000440300                __progname_full
                0x0000000000440300                program_invocation_name
 .bss           0x0000000000440308        0x0 0x4 /usr/local/popcorn/aarch64/lib/libc.a(syscall_ret.o)
 .bss           0x0000000000440308        0x0 0x4 /usr/local/popcorn/aarch64/lib/libc.a(sendfile.o)
 .bss           0x0000000000440308        0x0 0x4 /usr/local/popcorn/aarch64/lib/libc.a(calloc.o)
 .bss           0x0000000000440308        0x0 0x4 /usr/local/popcorn/aarch64/lib/libc.a(lite_malloc.o)
 .bss.src_malloc_lite_malloc_c___simple_malloc_cur
                0x0000000000440308        0x8 0x8 /usr/local/popcorn/aarch64/lib/libc.a(lite_malloc.o)
 .bss.src_malloc_lite_malloc_c___simple_malloc_end
                0x0000000000440310        0x8 0x8 /usr/local/popcorn/aarch64/lib/libc.a(lite_malloc.o)
 .bss.src_malloc_lite_malloc_c___simple_malloc_lock
                0x0000000000440318        0x8 0x4 /usr/local/popcorn/aarch64/lib/libc.a(lite_malloc.o)
 .bss           0x0000000000440320        0x0 0x4 /usr/local/popcorn/aarch64/lib/libc.a(malloc.o)
 .bss.src_malloc_malloc_c_mal
                0x0000000000440320      0x610 0x8 /usr/local/popcorn/aarch64/lib/libc.a(malloc.o)
 .bss.src_malloc_malloc_c_expand_heap_heap_lock
                0x0000000000440930        0x8 0x4 /usr/local/popcorn/aarch64/lib/libc.a(malloc.o)
 .bss.src_malloc_malloc_c_expand_heap_end
                0x0000000000440938        0x8 0x8 /usr/local/popcorn/aarch64/lib/libc.a(malloc.o)
 .bss           0x0000000000440940        0x0 0x4 /usr/local/popcorn/aarch64/lib/libc.a(popcorn_malloc.o)
 .bss.src_malloc_popcorn_malloc_c_mal
                0x0000000000440940     0xc200 0x8 /usr/local/popcorn/aarch64/lib/libc.a(popcorn_malloc.o)
 .bss.src_malloc_popcorn_malloc_c_expand_heap_heap_lock
                0x000000000044cb40      0x100 0x4 /usr/local/popcorn/aarch64/lib/libc.a(popcorn_malloc.o)
 .bss.src_malloc_popcorn_malloc_c_expand_heap_end
                0x000000000044cc40      0x100 0x8 /usr/local/popcorn/aarch64/lib/libc.a(popcorn_malloc.o)
 .bss           0x000000000044cd40        0x0 0x4 /usr/local/popcorn/aarch64/lib/libc.a(madvise.o)
 .bss           0x000000000044cd40        0x0 0x4 /usr/local/popcorn/aarch64/lib/libc.a(mmap.o)
 .bss           0x000000000044cd40        0x0 0x4 /usr/local/popcorn/aarch64/lib/libc.a(mremap.o)
 .bss           0x000000000044cd40        0x0 0x4 /usr/local/popcorn/aarch64/lib/libc.a(munmap.o)
 .bss           0x000000000044cd40        0x0 0x4 /usr/local/popcorn/aarch64/lib/libc.a(accept.o)
 .bss           0x000000000044cd40        0x0 0x4 /usr/local/popcorn/aarch64/lib/libc.a(bind.o)
 .bss           0x000000000044cd40        0x0 0x4 /usr/local/popcorn/aarch64/lib/libc.a(htonl.o)
 .bss           0x000000000044cd40        0x0 0x4 /usr/local/popcorn/aarch64/lib/libc.a(htons.o)
 .bss           0x000000000044cd40        0x0 0x4 /usr/local/popcorn/aarch64/lib/libc.a(inet_ntoa.o)
 .bss.src_network_inet_ntoa_c_inet_ntoa_buf
                0x000000000044cd40       0x10 0x1 /usr/local/popcorn/aarch64/lib/libc.a(inet_ntoa.o)
 .bss           0x000000000044cd50        0x0 0x4 /usr/local/popcorn/aarch64/lib/libc.a(listen.o)
 .bss           0x000000000044cd50        0x0 0x4 /usr/local/popcorn/aarch64/lib/libc.a(ntohs.o)
 .bss           0x000000000044cd50        0x0 0x4 /usr/local/popcorn/aarch64/lib/libc.a(setsockopt.o)
 .bss           0x000000000044cd50        0x0 0x4 /usr/local/popcorn/aarch64/lib/libc.a(socket.o)
 .bss           0x000000000044cd50        0x0 0x4 /usr/local/popcorn/aarch64/lib/libc.a(fork.o)
 .bss           0x000000000044cd50        0x0 0x4 /usr/local/popcorn/aarch64/lib/libc.a(block.o)
 .bss           0x000000000044cd50        0x0 0x4 /usr/local/popcorn/aarch64/lib/libc.a(signal.o)
 .bss           0x000000000044cd50        0x0 0x4 /usr/local/popcorn/aarch64/lib/libc.a(fstat.o)
 .bss           0x000000000044cd50        0x0 0x4 /usr/local/popcorn/aarch64/lib/libc.a(perror.o)
 .bss           0x000000000044cd50        0x0 0x4 /usr/local/popcorn/aarch64/lib/libc.a(printf.o)
 .bss           0x000000000044cd50        0x0 0x4 /usr/local/popcorn/aarch64/lib/libc.a(snprintf.o)
 .bss           0x000000000044cd50        0x0 0x4 /usr/local/popcorn/aarch64/lib/libc.a(sprintf.o)
 .bss           0x000000000044cd50        0x0 0x4 /usr/local/popcorn/aarch64/lib/libc.a(sscanf.o)
 .bss           0x000000000044cd50        0x0 0x4 /usr/local/popcorn/aarch64/lib/libc.a(stderr.o)
 .bss.src_stdio_stderr_c_buf
                0x000000000044cd50        0x8 0x1 /usr/local/popcorn/aarch64/lib/libc.a(stderr.o)
 .bss           0x000000000044cd58        0x0 0x4 /usr/local/popcorn/aarch64/lib/libc.a(stdout.o)
 .bss.src_stdio_stdout_c_buf
                0x000000000044cd58      0x408 0x1 /usr/local/popcorn/aarch64/lib/libc.a(stdout.o)
 .bss           0x000000000044d160        0x0 0x4 /usr/local/popcorn/aarch64/lib/libc.a(vfprintf.o)
 .bss           0x000000000044d160        0x0 0x4 /usr/local/popcorn/aarch64/lib/libc.a(vsnprintf.o)
 .bss           0x000000000044d160        0x0 0x4 /usr/local/popcorn/aarch64/lib/libc.a(vsprintf.o)
 .bss           0x000000000044d160        0x0 0x4 /usr/local/popcorn/aarch64/lib/libc.a(vsscanf.o)
 .bss           0x000000000044d160        0x0 0x4 /usr/local/popcorn/aarch64/lib/libc.a(atoi.o)
 .bss           0x000000000044d160        0x0 0x4 /usr/local/popcorn/aarch64/lib/libc.a(strtol.o)
 .bss           0x000000000044d160        0x0 0x4 /usr/local/popcorn/aarch64/lib/libc.a(memcpy.o)
 .bss           0x000000000044d160        0x0 0x4 /usr/local/popcorn/aarch64/lib/libc.a(memset.o)
 .bss           0x000000000044d160        0x0 0x4 /usr/local/popcorn/aarch64/lib/libc.a(strcmp.o)
 .bss           0x000000000044d160        0x0 0x4 /usr/local/popcorn/aarch64/lib/libc.a(strlen.o)
 .bss           0x000000000044d160        0x0 0x4 /usr/local/popcorn/aarch64/lib/libc.a(strnlen.o)
 .bss           0x000000000044d160        0x0 0x4 /usr/local/popcorn/aarch64/lib/libc.a(strrchr.o)
 .bss           0x000000000044d160        0x0 0x4 /usr/local/popcorn/aarch64/lib/libc.a(__lock.o)
 .bss           0x000000000044d160        0x0 0x4 /usr/local/popcorn/aarch64/lib/libc.a(__syscall_cp.o)
 .bss           0x000000000044d160        0x0 0x4 /usr/local/popcorn/aarch64/lib/libc.a(__wait.o)
 .bss           0x000000000044d160        0x0 0x4 /usr/local/popcorn/aarch64/lib/libc.a(localtime.o)
 .bss.src_time_localtime_c_localtime_tm
                0x000000000044d160       0x38 0x8 /usr/local/popcorn/aarch64/lib/libc.a(localtime.o)
 .bss           0x000000000044d198        0x0 0x4 /usr/local/popcorn/aarch64/lib/libc.a(localtime_r.o)
 .bss           0x000000000044d198        0x0 0x4 /usr/local/popcorn/aarch64/lib/libc.a(strftime.o)
 .bss           0x000000000044d198        0x0 0x4 /usr/local/popcorn/aarch64/lib/libc.a(chdir.o)
 .bss           0x000000000044d198        0x0 0x4 /usr/local/popcorn/aarch64/lib/libc.a(close.o)
 .bss           0x000000000044d198        0x0 0x4 /usr/local/popcorn/aarch64/lib/libc.a(getcwd.o)
 .bss           0x000000000044d198        0x0 0x4 /usr/local/popcorn/aarch64/lib/libc.a(getpid.o)
 .bss           0x000000000044d198        0x0 0x4 /usr/local/popcorn/aarch64/lib/libc.a(read.o)
 .bss           0x000000000044d198        0x0 0x4 /usr/local/popcorn/aarch64/lib/libc.a(write.o)
 .bss           0x000000000044d198        0x0 0x4 /usr/local/popcorn/aarch64/lib/libc.a(__environ.o)
 .bss.__environ
                0x000000000044d198        0x8 0x8 /usr/local/popcorn/aarch64/lib/libc.a(__environ.o)
                0x000000000044d198                ___environ
                0x000000000044d198                __environ
                0x000000000044d198                _environ
                0x000000000044d198                environ
 .bss           0x000000000044d1a0        0x0 0x4 /usr/local/popcorn/aarch64/lib/libc.a(__init_tls.o)
 .bss.src_env___init_tls_c_main_tls
                0x000000000044d1a0       0x30 0x8 /usr/local/popcorn/aarch64/lib/libc.a(__init_tls.o)
 .bss.src_env___init_tls_c_builtin_tls
                0x000000000044d1d0      0x1a8 0x8 /usr/local/popcorn/aarch64/lib/libc.a(__init_tls.o)
 .bss           0x000000000044d378        0x0 0x4 /usr/local/popcorn/aarch64/lib/libc.a(strerror.o)
 .bss           0x000000000044d378        0x0 0x4 /usr/local/popcorn/aarch64/lib/libc.a(_Exit.o)
 .bss           0x000000000044d378        0x0 0x4 /usr/local/popcorn/aarch64/lib/libc.a(syscall.o)
 .bss           0x000000000044d378        0x0 0x4 /usr/local/popcorn/aarch64/lib/libc.a(intscan.o)
 .bss           0x000000000044d378        0x0 0x4 /usr/local/popcorn/aarch64/lib/libc.a(procfdname.o)
 .bss           0x000000000044d378        0x0 0x4 /usr/local/popcorn/aarch64/lib/libc.a(shgetc.o)
 .bss           0x000000000044d378        0x0 0x4 /usr/local/popcorn/aarch64/lib/libc.a(__lctrans.o)
 .bss           0x000000000044d378        0x0 0x4 /usr/local/popcorn/aarch64/lib/libc.a(langinfo.o)
 .bss           0x000000000044d378        0x0 0x4 /usr/local/popcorn/aarch64/lib/libc.a(expand_heap.o)
 .bss.src_malloc_expand_heap_c___expand_heap_brk
                0x000000000044d378        0x8 0x8 /usr/local/popcorn/aarch64/lib/libc.a(expand_heap.o)
 .bss.src_malloc_expand_heap_c___expand_heap_mmap_step
                0x000000000044d380        0x4 0x4 /usr/local/popcorn/aarch64/lib/libc.a(expand_heap.o)
 .bss.src_malloc_expand_heap_c___expand_heap_node_node_arenas
                0x000000000044d388      0x100 0x8 /usr/local/popcorn/aarch64/lib/libc.a(expand_heap.o)
 .bss.src_malloc_expand_heap_c___expand_heap_node_node_sizes
                0x000000000044d488      0x100 0x8 /usr/local/popcorn/aarch64/lib/libc.a(expand_heap.o)
 .bss.src_malloc_expand_heap_c_arena_start
                0x000000000044d588        0x8 0x8 /usr/local/popcorn/aarch64/lib/libc.a(expand_heap.o)
 .bss.src_malloc_expand_heap_c_set_arena_start_lock
                0x000000000044d590        0x8 0x4 /usr/local/popcorn/aarch64/lib/libc.a(expand_heap.o)
 .bss           0x000000000044d598        0x0 0x4 /usr/local/popcorn/aarch64/lib/libc.a(__fpclassifyl.o)
 .bss           0x000000000044d598        0x0 0x4 /usr/local/popcorn/aarch64/lib/libc.a(__signbitl.o)
 .bss           0x000000000044d598        0x0 0x4 /usr/local/popcorn/aarch64/lib/libc.a(frexpl.o)
 .bss           0x000000000044d598        0x0 0x4 /usr/local/popcorn/aarch64/lib/libc.a(wctomb.o)
 .bss           0x000000000044d598        0x0 0x4 /usr/local/popcorn/aarch64/lib/libc.a(sigaction.o)
 .bss.src_signal_sigaction_c_handler_set
                0x000000000044d598        0x8 0x8 /usr/local/popcorn/aarch64/lib/libc.a(sigaction.o)
 .bss.src_signal_sigaction_c_unmask_done
                0x000000000044d5a0        0x1 0x1 /usr/local/popcorn/aarch64/lib/libc.a(sigaction.o)
 .bss           0x000000000044d5a4        0x0 0x4 /usr/local/popcorn/aarch64/lib/libc.a(__lockfile.o)
 .bss           0x000000000044d5a4        0x0 0x4 /usr/local/popcorn/aarch64/lib/libc.a(__stdio_close.o)
 .bss           0x000000000044d5a4        0x0 0x4 /usr/local/popcorn/aarch64/lib/libc.a(__stdio_seek.o)
 .bss           0x000000000044d5a4        0x0 0x4 /usr/local/popcorn/aarch64/lib/libc.a(__stdio_write.o)
 .bss           0x000000000044d5a4        0x0 0x4 /usr/local/popcorn/aarch64/lib/libc.a(__stdout_write.o)
 .bss           0x000000000044d5a4        0x0 0x4 /usr/local/popcorn/aarch64/lib/libc.a(__string_read.o)
 .bss           0x000000000044d5a4        0x0 0x4 /usr/local/popcorn/aarch64/lib/libc.a(__uflow.o)
 .bss           0x000000000044d5a4        0x0 0x4 /usr/local/popcorn/aarch64/lib/libc.a(fputc.o)
 .bss           0x000000000044d5a4        0x0 0x4 /usr/local/popcorn/aarch64/lib/libc.a(fwrite.o)
 .bss           0x000000000044d5a4        0x0 0x4 /usr/local/popcorn/aarch64/lib/libc.a(vfscanf.o)
 .bss           0x000000000044d5a4        0x0 0x4 /usr/local/popcorn/aarch64/lib/libc.a(abs.o)
 .bss           0x000000000044d5a4        0x0 0x4 /usr/local/popcorn/aarch64/lib/libc.a(memchr.o)
 .bss           0x000000000044d5a4        0x0 0x4 /usr/local/popcorn/aarch64/lib/libc.a(memrchr.o)
 .bss           0x000000000044d5a4        0x0 0x4 /usr/local/popcorn/aarch64/lib/libc.a(strdup.o)
 .bss           0x000000000044d5a4        0x0 0x4 /usr/local/popcorn/aarch64/lib/libc.a(__set_thread_area.o)
 .bss           0x000000000044d5a4        0x0 0x4 /usr/local/popcorn/aarch64/lib/libc.a(__secs_to_tm.o)
 .bss           0x000000000044d5a4        0x0 0x4 /usr/local/popcorn/aarch64/lib/libc.a(__tm_to_secs.o)
 .bss           0x000000000044d5a4        0x0 0x4 /usr/local/popcorn/aarch64/lib/libc.a(__tz.o)
 .bss.__timezone
                0x000000000044d5a8        0x8 0x8 /usr/local/popcorn/aarch64/lib/libc.a(__tz.o)
                0x000000000044d5a8                __timezone
                0x000000000044d5a8                timezone
 .bss.__daylight
                0x000000000044d5b0        0x4 0x4 /usr/local/popcorn/aarch64/lib/libc.a(__tz.o)
                0x000000000044d5b0                __daylight
                0x000000000044d5b0                daylight
 .bss.__tzname  0x000000000044d5c0       0x10 0x10 /usr/local/popcorn/aarch64/lib/libc.a(__tz.o)
                0x000000000044d5c0                __tzname
                0x000000000044d5c0                tzname
 .bss.src_time___tz_c_lock
                0x000000000044d5d0        0x8 0x4 /usr/local/popcorn/aarch64/lib/libc.a(__tz.o)
 .bss.src_time___tz_c_zi
                0x000000000044d5d8        0x8 0x8 /usr/local/popcorn/aarch64/lib/libc.a(__tz.o)
 .bss.src_time___tz_c_types
                0x000000000044d5e0        0x8 0x8 /usr/local/popcorn/aarch64/lib/libc.a(__tz.o)
 .bss.src_time___tz_c_abbrevs
                0x000000000044d5e8        0x8 0x8 /usr/local/popcorn/aarch64/lib/libc.a(__tz.o)
 .bss.src_time___tz_c_r0
                0x000000000044d5f0       0x14 0x4 /usr/local/popcorn/aarch64/lib/libc.a(__tz.o)
 .bss.src_time___tz_c_r1
                0x000000000044d604       0x14 0x4 /usr/local/popcorn/aarch64/lib/libc.a(__tz.o)
 .bss.src_time___tz_c_dst_off
                0x000000000044d618        0x4 0x4 /usr/local/popcorn/aarch64/lib/libc.a(__tz.o)
 .bss.src_time___tz_c_abbrevs_end
                0x000000000044d620        0x8 0x8 /usr/local/popcorn/aarch64/lib/libc.a(__tz.o)
 .bss.src_time___tz_c_map_size
                0x000000000044d628        0x8 0x8 /usr/local/popcorn/aarch64/lib/libc.a(__tz.o)
 .bss.src_time___tz_c_trans
                0x000000000044d630        0x8 0x8 /usr/local/popcorn/aarch64/lib/libc.a(__tz.o)
 .bss.src_time___tz_c_index
                0x000000000044d638        0x8 0x8 /usr/local/popcorn/aarch64/lib/libc.a(__tz.o)
 .bss.src_time___tz_c_std_name
                0x000000000044d640        0x7 0x1 /usr/local/popcorn/aarch64/lib/libc.a(__tz.o)
 .bss.src_time___tz_c_dst_name
                0x000000000044d647        0x7 0x1 /usr/local/popcorn/aarch64/lib/libc.a(__tz.o)
 .bss.src_time___tz_c_old_tz_buf
                0x000000000044d64e       0x20 0x1 /usr/local/popcorn/aarch64/lib/libc.a(__tz.o)
 .bss           0x000000000044d670        0x0 0x4 /usr/local/popcorn/aarch64/lib/libc.a(__year_to_secs.o)
 .bss           0x000000000044d670        0x0 0x4 /usr/local/popcorn/aarch64/lib/libc.a(getenv.o)
 .bss           0x000000000044d670        0x0 0x4 /usr/local/popcorn/aarch64/lib/libc.a(floatscan.o)
 .bss           0x000000000044d670        0x0 0x4 /usr/local/popcorn/aarch64/lib/libc.a(fabs.o)
 .bss           0x000000000044d670        0x0 0x4 /usr/local/popcorn/aarch64/lib/libc.a(copysignl.o)
 .bss           0x000000000044d670        0x0 0x4 /usr/local/popcorn/aarch64/lib/libc.a(fmodl.o)
 .bss           0x000000000044d670        0x0 0x4 /usr/local/popcorn/aarch64/lib/libc.a(scalbn.o)
 .bss           0x000000000044d670        0x0 0x4 /usr/local/popcorn/aarch64/lib/libc.a(scalbnl.o)
 .bss           0x000000000044d670        0x0 0x4 /usr/local/popcorn/aarch64/lib/libc.a(mbrtowc.o)
 .bss.src_multibyte_mbrtowc_c_mbrtowc_internal_state
                0x000000000044d670        0x4 0x4 /usr/local/popcorn/aarch64/lib/libc.a(mbrtowc.o)
 .bss           0x000000000044d674        0x0 0x4 /usr/local/popcorn/aarch64/lib/libc.a(mbsinit.o)
 .bss           0x000000000044d674        0x0 0x4 /usr/local/popcorn/aarch64/lib/libc.a(wcrtomb.o)
 .bss           0x000000000044d674        0x0 0x4 /usr/local/popcorn/aarch64/lib/libc.a(restore.o)
 .bss           0x000000000044d674        0x0 0x4 /usr/local/popcorn/aarch64/lib/libc.a(__overflow.o)
 .bss           0x000000000044d674        0x0 0x4 /usr/local/popcorn/aarch64/lib/libc.a(__toread.o)
 .bss           0x000000000044d674        0x0 0x4 /usr/local/popcorn/aarch64/lib/libc.a(__towrite.o)
 .bss           0x000000000044d674        0x0 0x4 /usr/local/popcorn/aarch64/lib/libc.a(memcmp.o)
 .bss           0x000000000044d674        0x0 0x4 /usr/local/popcorn/aarch64/lib/libc.a(strchr.o)
 .bss           0x000000000044d674        0x0 0x4 /usr/local/popcorn/aarch64/lib/libc.a(strchrnul.o)
 .bss           0x000000000044d674        0x0 0x4 /usr/local/popcorn/aarch64/lib/libc.a(strncmp.o)
 .bss           0x000000000044d674        0x0 0x4 /usr/local/popcorn/aarch64/lib/libc.a(__map_file.o)
 .bss           0x000000000044d674        0x0 0x4 /usr/local/popcorn/aarch64/lib/libc.a(__month_to_secs.o)
 .bss           0x000000000044d674        0x0 0x4 /usr/local/popcorn/aarch64/lib/libc.a(internal.o)
 .bss           0x000000000044d674        0x0 0x4 /usr/local/popcorn/aarch64/lib/libc.a(__stdio_exit.o)
 .bss.src_stdio___stdio_exit_c_dummy_file
                0x000000000044d678        0x8 0x8 /usr/local/popcorn/aarch64/lib/libc.a(__stdio_exit.o)
                0x000000000044d678                __stdin_used
 .bss           0x000000000044d680        0x0 0x4 /usr/local/popcorn/aarch64/lib/libc.a(ofl.o)
 .bss.src_stdio_ofl_c_ofl_lock
                0x000000000044d680        0x8 0x4 /usr/local/popcorn/aarch64/lib/libc.a(ofl.o)
 .bss.src_stdio_ofl_c_ofl_head
                0x000000000044d688        0x8 0x8 /usr/local/popcorn/aarch64/lib/libc.a(ofl.o)
 .bss           0x000000000044d690        0x0 0x4 /usr/local/popcorn/aarch64/lib/libmigrate.a(migrate.o)
 .bss.src_migrate_c_ni
                0x000000000044d690      0x180 0x4 /usr/local/popcorn/aarch64/lib/libmigrate.a(migrate.o)
 .bss           0x000000000044d810        0x0 0x1 /usr/local/popcorn/aarch64/lib/libmigrate.a(migrate_x86_64.o)
 .bss           0x000000000044d810        0x0 0x1 /usr/local/popcorn/aarch64/lib/libmigrate.a(migrate_powerpc64.o)
 .bss           0x000000000044d810        0x0 0x1 /usr/local/popcorn/aarch64/lib/libmigrate.a(migrate_aarch64.o)
 .bss           0x000000000044d810        0x0 0x4 /usr/local/popcorn/aarch64/lib/libmigrate.a(mapping.o)
 .bss.src_mapping_c_default_node
                0x000000000044d810        0x4 0x4 /usr/local/popcorn/aarch64/lib/libmigrate.a(mapping.o)
 .bss.src_mapping_c_mappings
                0x000000000044d818        0x8 0x8 /usr/local/popcorn/aarch64/lib/libmigrate.a(mapping.o)
 .bss.src_mapping_c_num_mappings
                0x000000000044d820        0x8 0x8 /usr/local/popcorn/aarch64/lib/libmigrate.a(mapping.o)
 .bss           0x000000000044d828        0x0 0x4 /usr/local/popcorn/aarch64/lib/libstack-transform.a(userspace.o)
 .bss.aarch64_fn
                0x000000000044d828        0x8 0x8 /usr/local/popcorn/aarch64/lib/libstack-transform.a(userspace.o)
                0x000000000044d828                aarch64_fn
 .bss.powerpc64_fn
                0x000000000044d830        0x8 0x8 /usr/local/popcorn/aarch64/lib/libstack-transform.a(userspace.o)
                0x000000000044d830                powerpc64_fn
 .bss.x86_64_fn
                0x000000000044d838        0x8 0x8 /usr/local/popcorn/aarch64/lib/libstack-transform.a(userspace.o)
                0x000000000044d838                x86_64_fn
 .bss.src_userspace_c_aarch64_handle
                0x000000000044d840        0x8 0x8 /usr/local/popcorn/aarch64/lib/libstack-transform.a(userspace.o)
 .bss.src_userspace_c_alloc_aarch64_fn
                0x000000000044d848        0x1 0x1 /usr/local/popcorn/aarch64/lib/libstack-transform.a(userspace.o)
 .bss.src_userspace_c_powerpc64_handle
                0x000000000044d850        0x8 0x8 /usr/local/popcorn/aarch64/lib/libstack-transform.a(userspace.o)
 .bss.src_userspace_c_alloc_powerpc64_fn
                0x000000000044d858        0x1 0x1 /usr/local/popcorn/aarch64/lib/libstack-transform.a(userspace.o)
 .bss.src_userspace_c_x86_64_handle
                0x000000000044d860        0x8 0x8 /usr/local/popcorn/aarch64/lib/libstack-transform.a(userspace.o)
 .bss.src_userspace_c_alloc_x86_64_fn
                0x000000000044d868        0x1 0x1 /usr/local/popcorn/aarch64/lib/libstack-transform.a(userspace.o)
 .bss.src_userspace_c_stack_bounds_key
                0x000000000044d86c        0x4 0x4 /usr/local/popcorn/aarch64/lib/libstack-transform.a(userspace.o)
 .bss           0x000000000044d870        0x0 0x4 /usr/local/popcorn/aarch64/lib/libstack-transform.a(init.o)
 .bss           0x000000000044d870        0x0 0x4 /usr/local/popcorn/aarch64/lib/libstack-transform.a(rewrite.o)
 .bss           0x000000000044d870        0x0 0x4 /usr/local/popcorn/aarch64/lib/libstack-transform.a(unwind.o)
 .bss           0x000000000044d870        0x0 0x4 /usr/local/popcorn/aarch64/lib/libstack-transform.a(util.o)
 .bss           0x000000000044d870        0x0 0x4 /usr/local/popcorn/aarch64/lib/libstack-transform.a(properties.o)
 .bss           0x000000000044d870        0x0 0x4 /usr/local/popcorn/aarch64/lib/libstack-transform.a(regs.o)
 .bss           0x000000000044d870        0x0 0x4 /usr/local/popcorn/aarch64/lib/libstack-transform.a(properties.o)
 .bss           0x000000000044d870        0x0 0x4 /usr/local/popcorn/aarch64/lib/libstack-transform.a(regs.o)
 .bss           0x000000000044d870        0x0 0x4 /usr/local/popcorn/aarch64/lib/libstack-transform.a(properties.o)
 .bss           0x000000000044d870        0x0 0x4 /usr/local/popcorn/aarch64/lib/libstack-transform.a(regs.o)
 .bss           0x000000000044d870        0x0 0x4 /usr/local/popcorn/aarch64/lib/libstack-transform.a(data.o)
 .bss           0x000000000044d870        0x0 0x4 /usr/local/popcorn/aarch64/lib/libelf.a(begin.o)
 .bss           0x000000000044d870        0x0 0x4 /usr/local/popcorn/aarch64/lib/libelf.a(end.o)
 .bss           0x000000000044d870        0x0 0x4 /usr/local/popcorn/aarch64/lib/libelf.a(getdata.o)
 .bss           0x000000000044d870        0x0 0x4 /usr/local/popcorn/aarch64/lib/libelf.a(getident.o)
 .bss           0x000000000044d870        0x0 0x4 /usr/local/popcorn/aarch64/lib/libelf.a(nextscn.o)
 .bss           0x000000000044d870        0x0 0x4 /usr/local/popcorn/aarch64/lib/libelf.a(strptr.o)
 .bss           0x000000000044d870        0x0 0x4 /usr/local/popcorn/aarch64/lib/libelf.a(version.o)
 .bss           0x000000000044d870        0x0 0x4 /usr/local/popcorn/aarch64/lib/libelf.a(32.getehdr.o)
 .bss           0x000000000044d870        0x0 0x4 /usr/local/popcorn/aarch64/lib/libelf.a(32.xlatetof.o)
 .bss           0x000000000044d870        0x0 0x4 /usr/local/popcorn/aarch64/lib/libelf.a(cook.o)
 .bss           0x000000000044d870        0x0 0x4 /usr/local/popcorn/aarch64/lib/libelf.a(data.o)
 .bss._elf_version
                0x000000000044d870        0x4 0x4 /usr/local/popcorn/aarch64/lib/libelf.a(data.o)
                0x000000000044d870                _elf_version
 .bss._elf_errno
                0x000000000044d874        0x4 0x4 /usr/local/popcorn/aarch64/lib/libelf.a(data.o)
                0x000000000044d874                _elf_errno
 .bss._elf_fill
                0x000000000044d878        0x4 0x4 /usr/local/popcorn/aarch64/lib/libelf.a(data.o)
                0x000000000044d878                _elf_fill
 .bss           0x000000000044d87c        0x0 0x4 /usr/local/popcorn/aarch64/lib/libelf.a(input.o)
 .bss           0x000000000044d87c        0x0 0x4 /usr/local/popcorn/aarch64/lib/libelf.a(x.elfext.o)
 .bss           0x000000000044d87c        0x0 0x4 /usr/local/popcorn/aarch64/lib/libelf.a(64.xlatetof.o)
 .bss           0x000000000044d87c        0x0 0x4 /usr/local/popcorn/aarch64/lib/libelf.a(gelfshdr.o)
 .bss           0x000000000044d87c        0x0 0x4 /usr/local/popcorn/aarch64/lib/libelf.a(swap64.o)
 .bss           0x000000000044d87c        0x0 0x4 /usr/local/popcorn/aarch64/lib/libelf.a(verdef_32_tof.o)
 .bss           0x000000000044d87c        0x0 0x4 /usr/local/popcorn/aarch64/lib/libelf.a(verdef_32_tom.o)
 .bss           0x000000000044d87c        0x0 0x4 /usr/local/popcorn/aarch64/lib/libelf.a(verdef_64_tof.o)
 .bss           0x000000000044d87c        0x0 0x4 /usr/local/popcorn/aarch64/lib/libelf.a(verdef_64_tom.o)
 .bss           0x000000000044d87c        0x0 0x4 /usr/local/popcorn/aarch64/lib/libelf.a(getscn.o)
 .bss           0x000000000044d87c        0x0 0x4 /usr/local/popcorn/aarch64/lib/libelf.a(newscn.o)
 .bss           0x000000000044d87c        0x0 0x4 /usr/local/popcorn/aarch64/lib/libelf.a(32.fsize.o)
 .bss           0x000000000044d87c        0x0 0x4 /usr/local/popcorn/aarch64/lib/libc.a(arch_crash.o)
 .bss           0x000000000044d87c        0x0 0x4 /usr/local/popcorn/aarch64/lib/libc.a(assert.o)
 .bss           0x000000000044d87c        0x0 0x4 /usr/local/popcorn/aarch64/lib/libc.a(getrlimit.o)
 .bss           0x000000000044d87c        0x0 0x4 /usr/local/popcorn/aarch64/lib/libc.a(syscall.o)
 .bss           0x000000000044d87c        0x0 0x4 /usr/local/popcorn/aarch64/lib/libc.a(fclose.o)
 .bss           0x000000000044d87c        0x0 0x4 /usr/local/popcorn/aarch64/lib/libc.a(fflush.o)
 .bss.src_stdio_fflush_c_dummy
                0x000000000044d880        0x8 0x8 /usr/local/popcorn/aarch64/lib/libc.a(fflush.o)
 .bss           0x000000000044d888        0x0 0x4 /usr/local/popcorn/aarch64/lib/libc.a(fopen.o)
 .bss           0x000000000044d888        0x0 0x4 /usr/local/popcorn/aarch64/lib/libc.a(fprintf.o)
 .bss           0x000000000044d888        0x0 0x4 /usr/local/popcorn/aarch64/lib/libc.a(fscanf.o)
 .bss           0x000000000044d888        0x0 0x4 /usr/local/popcorn/aarch64/lib/libc.a(fseek.o)
 .bss           0x000000000044d888        0x0 0x4 /usr/local/popcorn/aarch64/lib/libc.a(getc.o)
 .bss           0x000000000044d888        0x0 0x4 /usr/local/popcorn/aarch64/lib/libc.a(getline.o)
 .bss           0x000000000044d888        0x0 0x4 /usr/local/popcorn/aarch64/lib/libc.a(bsearch.o)
 .bss           0x000000000044d888        0x0 0x4 /usr/local/popcorn/aarch64/lib/libc.a(qsort.o)
 .bss           0x000000000044d888        0x0 0x4 /usr/local/popcorn/aarch64/lib/libc.a(pthread_attr_get.o)
 .bss           0x000000000044d888        0x0 0x4 /usr/local/popcorn/aarch64/lib/libc.a(pthread_getattr_np.o)
 .bss           0x000000000044d888        0x0 0x4 /usr/local/popcorn/aarch64/lib/libc.a(pthread_getspecific.o)
 .bss           0x000000000044d888        0x0 0x4 /usr/local/popcorn/aarch64/lib/libc.a(pthread_key_create.o)
 .bss.__pthread_tsd_main
                0x000000000044d888      0x400 0x8 /usr/local/popcorn/aarch64/lib/libc.a(pthread_key_create.o)
                0x000000000044d888                __pthread_tsd_main
 .bss.src_thread_pthread_key_create_c_keys
                0x000000000044dc88      0x400 0x8 /usr/local/popcorn/aarch64/lib/libc.a(pthread_key_create.o)
 .bss           0x000000000044e088        0x0 0x4 /usr/local/popcorn/aarch64/lib/libc.a(pthread_migrate.o)
 .bss           0x000000000044e088        0x0 0x4 /usr/local/popcorn/aarch64/lib/libc.a(pthread_self.o)
 .bss           0x000000000044e088        0x0 0x4 /usr/local/popcorn/aarch64/lib/libc.a(pthread_setspecific.o)
 .bss           0x000000000044e088        0x0 0x4 /usr/local/popcorn/aarch64/lib/libc.a(lseek.o)
 .bss           0x000000000044e088        0x0 0x4 /usr/local/popcorn/aarch64/lib/libc.a(abort.o)
 .bss           0x000000000044e088        0x0 0x4 /usr/local/popcorn/aarch64/lib/libc.a(raise.o)
 .bss           0x000000000044e088        0x0 0x4 /usr/local/popcorn/aarch64/lib/libc.a(__fdopen.o)
 .bss           0x000000000044e088        0x0 0x4 /usr/local/popcorn/aarch64/lib/libc.a(__fmodeflags.o)
 .bss           0x000000000044e088        0x0 0x4 /usr/local/popcorn/aarch64/lib/libc.a(__stdio_read.o)
 .bss           0x000000000044e088        0x0 0x4 /usr/local/popcorn/aarch64/lib/libc.a(getdelim.o)
 .bss           0x000000000044e088        0x0 0x4 /usr/local/popcorn/aarch64/lib/libc.a(ofl_add.o)
 .bss           0x000000000044e088        0x0 0x1 /usr/lib/gcc-cross/aarch64-linux-gnu/6/libgcc.a(addtf3.o)
 .bss           0x000000000044e088        0x0 0x1 /usr/lib/gcc-cross/aarch64-linux-gnu/6/libgcc.a(divtf3.o)
 .bss           0x000000000044e088        0x0 0x1 /usr/lib/gcc-cross/aarch64-linux-gnu/6/libgcc.a(eqtf2.o)
 .bss           0x000000000044e088        0x0 0x1 /usr/lib/gcc-cross/aarch64-linux-gnu/6/libgcc.a(getf2.o)
 .bss           0x000000000044e088        0x0 0x1 /usr/lib/gcc-cross/aarch64-linux-gnu/6/libgcc.a(letf2.o)
 .bss           0x000000000044e088        0x0 0x1 /usr/lib/gcc-cross/aarch64-linux-gnu/6/libgcc.a(multf3.o)
 .bss           0x000000000044e088        0x0 0x1 /usr/lib/gcc-cross/aarch64-linux-gnu/6/libgcc.a(subtf3.o)
 .bss           0x000000000044e088        0x0 0x1 /usr/lib/gcc-cross/aarch64-linux-gnu/6/libgcc.a(unordtf2.o)
 .bss           0x000000000044e088        0x0 0x1 /usr/lib/gcc-cross/aarch64-linux-gnu/6/libgcc.a(fixtfsi.o)
 .bss           0x000000000044e088        0x0 0x1 /usr/lib/gcc-cross/aarch64-linux-gnu/6/libgcc.a(fixunstfsi.o)
 .bss           0x000000000044e088        0x0 0x1 /usr/lib/gcc-cross/aarch64-linux-gnu/6/libgcc.a(floatsitf.o)
 .bss           0x000000000044e088        0x0 0x1 /usr/lib/gcc-cross/aarch64-linux-gnu/6/libgcc.a(floatunsitf.o)
 .bss           0x000000000044e088        0x0 0x1 /usr/lib/gcc-cross/aarch64-linux-gnu/6/libgcc.a(extendsftf2.o)
 .bss           0x000000000044e088        0x0 0x1 /usr/lib/gcc-cross/aarch64-linux-gnu/6/libgcc.a(extenddftf2.o)
 .bss           0x000000000044e088        0x0 0x1 /usr/lib/gcc-cross/aarch64-linux-gnu/6/libgcc.a(trunctfsf2.o)
 .bss           0x000000000044e088        0x0 0x1 /usr/lib/gcc-cross/aarch64-linux-gnu/6/libgcc.a(trunctfdf2.o)
 .bss           0x000000000044e088        0x0 0x1 /usr/lib/gcc-cross/aarch64-linux-gnu/6/libgcc.a(sfp-exceptions.o)
 ** common      0x000000000044e088       0x90

.debug_str      0x0000000000000000     0x47bf
 ** merge strings
                0x0000000000000000     0x47bf

.debug_loc      0x0000000000000000    0x1918c
 .debug_loc     0x0000000000000000       0x6c 0x1 tiny_aarch64.o
 .debug_loc     0x000000000000006c       0x36 0x1 /usr/local/popcorn/aarch64/lib/crt1.o
 .debug_loc     0x00000000000000a2       0x59 0x1 /usr/local/popcorn/aarch64/lib/libc.a(closedir.o)
 .debug_loc     0x00000000000000fb       0x96 0x1 /usr/local/popcorn/aarch64/lib/libc.a(fdopendir.o)
 .debug_loc     0x0000000000000191       0x9f 0x1 /usr/local/popcorn/aarch64/lib/libc.a(readdir.o)
 .debug_loc     0x0000000000000230      0x265 0x1 /usr/local/popcorn/aarch64/lib/libc.a(__libc_start_main.o)
 .debug_loc     0x0000000000000495        0x0 0x1 /usr/local/popcorn/aarch64/lib/libc.a(__errno_location.o)
 .debug_loc     0x0000000000000495       0x6c 0x1 /usr/local/popcorn/aarch64/lib/libc.a(exit.o)
 .debug_loc     0x0000000000000501      0x265 0x1 /usr/local/popcorn/aarch64/lib/libc.a(fcntl.o)
 .debug_loc     0x0000000000000766       0xb5 0x1 /usr/local/popcorn/aarch64/lib/libc.a(open.o)
 .debug_loc     0x000000000000081b       0xa2 0x1 /usr/local/popcorn/aarch64/lib/libc.a(openat.o)
 .debug_loc     0x00000000000008bd        0x0 0x1 /usr/local/popcorn/aarch64/lib/libc.a(libc.o)
 .debug_loc     0x00000000000008bd       0x23 0x1 /usr/local/popcorn/aarch64/lib/libc.a(syscall_ret.o)
 .debug_loc     0x00000000000008e0       0x46 0x1 /usr/local/popcorn/aarch64/lib/libc.a(sendfile.o)
 .debug_loc     0x0000000000000926       0xa2 0x1 /usr/local/popcorn/aarch64/lib/libc.a(calloc.o)
 .debug_loc     0x00000000000009c8      0x1fb 0x1 /usr/local/popcorn/aarch64/lib/libc.a(lite_malloc.o)
 .debug_loc     0x0000000000000bc3     0x1f44 0x1 /usr/local/popcorn/aarch64/lib/libc.a(malloc.o)
 .debug_loc     0x0000000000002b07     0x2b96 0x1 /usr/local/popcorn/aarch64/lib/libc.a(popcorn_malloc.o)
 .debug_loc     0x000000000000569d       0x69 0x1 /usr/local/popcorn/aarch64/lib/libc.a(madvise.o)
 .debug_loc     0x0000000000005706      0x24b 0x1 /usr/local/popcorn/aarch64/lib/libc.a(mmap.o)
 .debug_loc     0x0000000000005951      0x193 0x1 /usr/local/popcorn/aarch64/lib/libc.a(mremap.o)
 .debug_loc     0x0000000000005ae4       0xb5 0x1 /usr/local/popcorn/aarch64/lib/libc.a(munmap.o)
 .debug_loc     0x0000000000005b99       0xb5 0x1 /usr/local/popcorn/aarch64/lib/libc.a(accept.o)
 .debug_loc     0x0000000000005c4e       0x69 0x1 /usr/local/popcorn/aarch64/lib/libc.a(bind.o)
 .debug_loc     0x0000000000005cb7       0x46 0x1 /usr/local/popcorn/aarch64/lib/libc.a(htonl.o)
 .debug_loc     0x0000000000005cfd        0x0 0x1 /usr/local/popcorn/aarch64/lib/libc.a(htons.o)
 .debug_loc     0x0000000000005cfd        0x0 0x1 /usr/local/popcorn/aarch64/lib/libc.a(inet_ntoa.o)
 .debug_loc     0x0000000000005cfd       0x69 0x1 /usr/local/popcorn/aarch64/lib/libc.a(listen.o)
 .debug_loc     0x0000000000005d66        0x0 0x1 /usr/local/popcorn/aarch64/lib/libc.a(ntohs.o)
 .debug_loc     0x0000000000005d66       0xaf 0x1 /usr/local/popcorn/aarch64/lib/libc.a(setsockopt.o)
 .debug_loc     0x0000000000005e15       0xf8 0x1 /usr/local/popcorn/aarch64/lib/libc.a(socket.o)
 .debug_loc     0x0000000000005f0d       0xa1 0x1 /usr/local/popcorn/aarch64/lib/libc.a(fork.o)
 .debug_loc     0x0000000000005fae       0xdb 0x1 /usr/local/popcorn/aarch64/lib/libc.a(block.o)
 .debug_loc     0x0000000000006089       0xc7 0x1 /usr/local/popcorn/aarch64/lib/libc.a(signal.o)
 .debug_loc     0x0000000000006150      0x19d 0x1 /usr/local/popcorn/aarch64/lib/libc.a(fstat.o)
 .debug_loc     0x00000000000062ed       0x9f 0x1 /usr/local/popcorn/aarch64/lib/libc.a(perror.o)
 .debug_loc     0x000000000000638c       0x49 0x1 /usr/local/popcorn/aarch64/lib/libc.a(printf.o)
 .debug_loc     0x00000000000063d5       0x23 0x1 /usr/local/popcorn/aarch64/lib/libc.a(snprintf.o)
 .debug_loc     0x00000000000063f8       0x23 0x1 /usr/local/popcorn/aarch64/lib/libc.a(sprintf.o)
 .debug_loc     0x000000000000641b       0x23 0x1 /usr/local/popcorn/aarch64/lib/libc.a(sscanf.o)
 .debug_loc     0x000000000000643e        0x0 0x1 /usr/local/popcorn/aarch64/lib/libc.a(stderr.o)
 .debug_loc     0x000000000000643e        0x0 0x1 /usr/local/popcorn/aarch64/lib/libc.a(stdout.o)
 .debug_loc     0x000000000000643e     0x36de 0x1 /usr/local/popcorn/aarch64/lib/libc.a(vfprintf.o)
 .debug_loc     0x0000000000009b1c      0x20d 0x1 /usr/local/popcorn/aarch64/lib/libc.a(vsnprintf.o)
 .debug_loc     0x0000000000009d29       0x90 0x1 /usr/local/popcorn/aarch64/lib/libc.a(vsprintf.o)
 .debug_loc     0x0000000000009db9       0xdb 0x1 /usr/local/popcorn/aarch64/lib/libc.a(vsscanf.o)
 .debug_loc     0x0000000000009e94       0x98 0x1 /usr/local/popcorn/aarch64/lib/libc.a(atoi.o)
 .debug_loc     0x0000000000009f2c      0x168 0x1 /usr/local/popcorn/aarch64/lib/libc.a(strtol.o)
 .debug_loc     0x000000000000a094      0x604 0x1 /usr/local/popcorn/aarch64/lib/libc.a(memcpy.o)
 .debug_loc     0x000000000000a698      0x16d 0x1 /usr/local/popcorn/aarch64/lib/libc.a(memset.o)
 .debug_loc     0x000000000000a805       0x46 0x1 /usr/local/popcorn/aarch64/lib/libc.a(strcmp.o)
 .debug_loc     0x000000000000a84b       0xb5 0x1 /usr/local/popcorn/aarch64/lib/libc.a(strlen.o)
 .debug_loc     0x000000000000a900       0x8f 0x1 /usr/local/popcorn/aarch64/lib/libc.a(strnlen.o)
 .debug_loc     0x000000000000a98f       0x7f 0x1 /usr/local/popcorn/aarch64/lib/libc.a(strrchr.o)
 .debug_loc     0x000000000000aa0e      0x11b 0x1 /usr/local/popcorn/aarch64/lib/libc.a(__lock.o)
 .debug_loc     0x000000000000ab29        0x0 0x1 /usr/local/popcorn/aarch64/lib/libc.a(__syscall_cp.o)
 .debug_loc     0x000000000000ab29      0x2f1 0x1 /usr/local/popcorn/aarch64/lib/libc.a(__wait.o)
 .debug_loc     0x000000000000ae1a        0x0 0x1 /usr/local/popcorn/aarch64/lib/libc.a(localtime.o)
 .debug_loc     0x000000000000ae1a       0x59 0x1 /usr/local/popcorn/aarch64/lib/libc.a(localtime_r.o)
 .debug_loc     0x000000000000ae73      0xb3e 0x1 /usr/local/popcorn/aarch64/lib/libc.a(strftime.o)
 .debug_loc     0x000000000000b9b1       0x46 0x1 /usr/local/popcorn/aarch64/lib/libc.a(chdir.o)
 .debug_loc     0x000000000000b9f7       0x46 0x1 /usr/local/popcorn/aarch64/lib/libc.a(close.o)
 .debug_loc     0x000000000000ba3d       0xa2 0x1 /usr/local/popcorn/aarch64/lib/libc.a(getcwd.o)
 .debug_loc     0x000000000000badf        0x0 0x1 /usr/local/popcorn/aarch64/lib/libc.a(getpid.o)
 .debug_loc     0x000000000000badf       0xb5 0x1 /usr/local/popcorn/aarch64/lib/libc.a(read.o)
 .debug_loc     0x000000000000bb94       0xb5 0x1 /usr/local/popcorn/aarch64/lib/libc.a(write.o)
 .debug_loc     0x000000000000bc49        0x0 0x1 /usr/local/popcorn/aarch64/lib/libc.a(__environ.o)
 .debug_loc     0x000000000000bc49      0x2b7 0x1 /usr/local/popcorn/aarch64/lib/libc.a(__init_tls.o)
 .debug_loc     0x000000000000bf00       0x83 0x1 /usr/local/popcorn/aarch64/lib/libc.a(strerror.o)
 .debug_loc     0x000000000000bf83       0x23 0x1 /usr/local/popcorn/aarch64/lib/libc.a(_Exit.o)
 .debug_loc     0x000000000000bfa6      0x3d0 0x1 /usr/local/popcorn/aarch64/lib/libc.a(intscan.o)
 .debug_loc     0x000000000000c376       0xb9 0x1 /usr/local/popcorn/aarch64/lib/libc.a(procfdname.o)
 .debug_loc     0x000000000000c42f       0x6c 0x1 /usr/local/popcorn/aarch64/lib/libc.a(shgetc.o)
 .debug_loc     0x000000000000c49b       0x23 0x1 /usr/local/popcorn/aarch64/lib/libc.a(__lctrans.o)
 .debug_loc     0x000000000000c4be      0x1b6 0x1 /usr/local/popcorn/aarch64/lib/libc.a(langinfo.o)
 .debug_loc     0x000000000000c674      0x57c 0x1 /usr/local/popcorn/aarch64/lib/libc.a(expand_heap.o)
 .debug_loc     0x000000000000cbf0        0x0 0x1 /usr/local/popcorn/aarch64/lib/libc.a(__fpclassifyl.o)
 .debug_loc     0x000000000000cbf0        0x0 0x1 /usr/local/popcorn/aarch64/lib/libc.a(__signbitl.o)
 .debug_loc     0x000000000000cbf0      0x132 0x1 /usr/local/popcorn/aarch64/lib/libc.a(frexpl.o)
 .debug_loc     0x000000000000cd22       0x23 0x1 /usr/local/popcorn/aarch64/lib/libc.a(wctomb.o)
 .debug_loc     0x000000000000cd45      0x3e9 0x1 /usr/local/popcorn/aarch64/lib/libc.a(sigaction.o)
 .debug_loc     0x000000000000d12e      0x1f0 0x1 /usr/local/popcorn/aarch64/lib/libc.a(__lockfile.o)
 .debug_loc     0x000000000000d31e       0x46 0x1 /usr/local/popcorn/aarch64/lib/libc.a(__stdio_close.o)
 .debug_loc     0x000000000000d364       0x46 0x1 /usr/local/popcorn/aarch64/lib/libc.a(__stdio_seek.o)
 .debug_loc     0x000000000000d3aa      0x18d 0x1 /usr/local/popcorn/aarch64/lib/libc.a(__stdio_write.o)
 .debug_loc     0x000000000000d537       0xc5 0x1 /usr/local/popcorn/aarch64/lib/libc.a(__stdout_write.o)
 .debug_loc     0x000000000000d5fc      0x144 0x1 /usr/local/popcorn/aarch64/lib/libc.a(__string_read.o)
 .debug_loc     0x000000000000d740       0x6e 0x1 /usr/local/popcorn/aarch64/lib/libc.a(__uflow.o)
 .debug_loc     0x000000000000d7ae       0x7f 0x1 /usr/local/popcorn/aarch64/lib/libc.a(fputc.o)
 .debug_loc     0x000000000000d82d      0x257 0x1 /usr/local/popcorn/aarch64/lib/libc.a(fwrite.o)
 .debug_loc     0x000000000000da84      0xcb3 0x1 /usr/local/popcorn/aarch64/lib/libc.a(vfscanf.o)
 .debug_loc     0x000000000000e737       0x23 0x1 /usr/local/popcorn/aarch64/lib/libc.a(abs.o)
 .debug_loc     0x000000000000e75a      0x190 0x1 /usr/local/popcorn/aarch64/lib/libc.a(memchr.o)
 .debug_loc     0x000000000000e8ea       0x59 0x1 /usr/local/popcorn/aarch64/lib/libc.a(memrchr.o)
 .debug_loc     0x000000000000e943       0x7c 0x1 /usr/local/popcorn/aarch64/lib/libc.a(strdup.o)
 .debug_loc     0x000000000000e9bf      0x1ba 0x1 /usr/local/popcorn/aarch64/lib/libc.a(__secs_to_tm.o)
 .debug_loc     0x000000000000eb79       0xd8 0x1 /usr/local/popcorn/aarch64/lib/libc.a(__tm_to_secs.o)
 .debug_loc     0x000000000000ec51      0xd64 0x1 /usr/local/popcorn/aarch64/lib/libc.a(__tz.o)
 .debug_loc     0x000000000000f9b5      0x21d 0x1 /usr/local/popcorn/aarch64/lib/libc.a(__year_to_secs.o)
 .debug_loc     0x000000000000fbd2       0x59 0x1 /usr/local/popcorn/aarch64/lib/libc.a(getenv.o)
 .debug_loc     0x000000000000fc2b     0x1363 0x1 /usr/local/popcorn/aarch64/lib/libc.a(floatscan.o)
 .debug_loc     0x0000000000010f8e       0x24 0x1 /usr/local/popcorn/aarch64/lib/libc.a(fabs.o)
 .debug_loc     0x0000000000010fb2       0x48 0x1 /usr/local/popcorn/aarch64/lib/libc.a(copysignl.o)
 .debug_loc     0x0000000000010ffa      0x561 0x1 /usr/local/popcorn/aarch64/lib/libc.a(fmodl.o)
 .debug_loc     0x000000000001155b      0x1b2 0x1 /usr/local/popcorn/aarch64/lib/libc.a(scalbn.o)
 .debug_loc     0x000000000001170d       0xf2 0x1 /usr/local/popcorn/aarch64/lib/libc.a(scalbnl.o)
 .debug_loc     0x00000000000117ff      0x285 0x1 /usr/local/popcorn/aarch64/lib/libc.a(mbrtowc.o)
 .debug_loc     0x0000000000011a84       0x23 0x1 /usr/local/popcorn/aarch64/lib/libc.a(mbsinit.o)
 .debug_loc     0x0000000000011aa7       0x59 0x1 /usr/local/popcorn/aarch64/lib/libc.a(wcrtomb.o)
 .debug_loc     0x0000000000011b00       0xb7 0x1 /usr/local/popcorn/aarch64/lib/libc.a(__overflow.o)
 .debug_loc     0x0000000000011bb7       0x36 0x1 /usr/local/popcorn/aarch64/lib/libc.a(__toread.o)
 .debug_loc     0x0000000000011bed        0x0 0x1 /usr/local/popcorn/aarch64/lib/libc.a(__towrite.o)
 .debug_loc     0x0000000000011bed       0xe8 0x1 /usr/local/popcorn/aarch64/lib/libc.a(memcmp.o)
 .debug_loc     0x0000000000011cd5       0x7c 0x1 /usr/local/popcorn/aarch64/lib/libc.a(strchr.o)
 .debug_loc     0x0000000000011d51       0xfe 0x1 /usr/local/popcorn/aarch64/lib/libc.a(strchrnul.o)
 .debug_loc     0x0000000000011e4f       0xc2 0x1 /usr/local/popcorn/aarch64/lib/libc.a(strncmp.o)
 .debug_loc     0x0000000000011f11      0x15a 0x1 /usr/local/popcorn/aarch64/lib/libc.a(__map_file.o)
 .debug_loc     0x000000000001206b       0x59 0x1 /usr/local/popcorn/aarch64/lib/libc.a(__month_to_secs.o)
 .debug_loc     0x00000000000120c4        0x0 0x1 /usr/local/popcorn/aarch64/lib/libc.a(internal.o)
 .debug_loc     0x00000000000120c4       0x36 0x1 /usr/local/popcorn/aarch64/lib/libc.a(__stdio_exit.o)
 .debug_loc     0x00000000000120fa        0x0 0x1 /usr/local/popcorn/aarch64/lib/libc.a(ofl.o)
 .debug_loc     0x00000000000120fa      0x3de 0x1 /usr/local/popcorn/aarch64/lib/libmigrate.a(migrate.o)
 .debug_loc     0x00000000000124d8      0x29f 0x1 /usr/local/popcorn/aarch64/lib/libmigrate.a(mapping.o)
 .debug_loc     0x0000000000012777      0x7d5 0x1 /usr/local/popcorn/aarch64/lib/libstack-transform.a(userspace.o)
 .debug_loc     0x0000000000012f4c       0xb2 0x1 /usr/local/popcorn/aarch64/lib/libstack-transform.a(init.o)
 .debug_loc     0x0000000000012ffe      0xeeb 0x1 /usr/local/popcorn/aarch64/lib/libstack-transform.a(rewrite.o)
 .debug_loc     0x0000000000013ee9      0x78c 0x1 /usr/local/popcorn/aarch64/lib/libstack-transform.a(unwind.o)
 .debug_loc     0x0000000000014675      0x82b 0x1 /usr/local/popcorn/aarch64/lib/libstack-transform.a(util.o)
 .debug_loc     0x0000000000014ea0       0x23 0x1 /usr/local/popcorn/aarch64/lib/libstack-transform.a(properties.o)
 .debug_loc     0x0000000000014ec3      0x6a0 0x1 /usr/local/popcorn/aarch64/lib/libstack-transform.a(regs.o)
 .debug_loc     0x0000000000015563       0x6c 0x1 /usr/local/popcorn/aarch64/lib/libstack-transform.a(properties.o)
 .debug_loc     0x00000000000155cf      0x6c6 0x1 /usr/local/popcorn/aarch64/lib/libstack-transform.a(regs.o)
 .debug_loc     0x0000000000015c95       0x23 0x1 /usr/local/popcorn/aarch64/lib/libstack-transform.a(properties.o)
 .debug_loc     0x0000000000015cb8      0x499 0x1 /usr/local/popcorn/aarch64/lib/libstack-transform.a(regs.o)
 .debug_loc     0x0000000000016151      0xbe9 0x1 /usr/local/popcorn/aarch64/lib/libstack-transform.a(data.o)
 .debug_loc     0x0000000000016d3a      0x1b0 0x1 /usr/local/popcorn/aarch64/lib/libc.a(arch_crash.o)
 .debug_loc     0x0000000000016eea      0x124 0x1 /usr/local/popcorn/aarch64/lib/libc.a(assert.o)
 .debug_loc     0x000000000001700e       0xea 0x1 /usr/local/popcorn/aarch64/lib/libc.a(getrlimit.o)
 .debug_loc     0x00000000000170f8      0x194 0x1 /usr/local/popcorn/aarch64/lib/libc.a(syscall.o)
 .debug_loc     0x000000000001728c       0xd5 0x1 /usr/local/popcorn/aarch64/lib/libc.a(fclose.o)
 .debug_loc     0x0000000000017361       0xc5 0x1 /usr/local/popcorn/aarch64/lib/libc.a(fflush.o)
 .debug_loc     0x0000000000017426      0x10e 0x1 /usr/local/popcorn/aarch64/lib/libc.a(fopen.o)
 .debug_loc     0x0000000000017534       0x23 0x1 /usr/local/popcorn/aarch64/lib/libc.a(fprintf.o)
 .debug_loc     0x0000000000017557       0x23 0x1 /usr/local/popcorn/aarch64/lib/libc.a(fscanf.o)
 .debug_loc     0x000000000001757a      0x18d 0x1 /usr/local/popcorn/aarch64/lib/libc.a(fseek.o)
 .debug_loc     0x0000000000017707       0x49 0x1 /usr/local/popcorn/aarch64/lib/libc.a(getc.o)
 .debug_loc     0x0000000000017750       0x49 0x1 /usr/local/popcorn/aarch64/lib/libc.a(getline.o)
 .debug_loc     0x0000000000017799      0x157 0x1 /usr/local/popcorn/aarch64/lib/libc.a(bsearch.o)
 .debug_loc     0x00000000000178f0      0xb7e 0x1 /usr/local/popcorn/aarch64/lib/libc.a(qsort.o)
 .debug_loc     0x000000000001846e       0x36 0x1 /usr/local/popcorn/aarch64/lib/libc.a(pthread_attr_get.o)
 .debug_loc     0x00000000000184a4       0xc5 0x1 /usr/local/popcorn/aarch64/lib/libc.a(pthread_getattr_np.o)
 .debug_loc     0x0000000000018569       0x46 0x1 /usr/local/popcorn/aarch64/lib/libc.a(pthread_getspecific.o)
 .debug_loc     0x00000000000185af      0x252 0x1 /usr/local/popcorn/aarch64/lib/libc.a(pthread_key_create.o)
 .debug_loc     0x0000000000018801        0x0 0x1 /usr/local/popcorn/aarch64/lib/libc.a(pthread_migrate.o)
 .debug_loc     0x0000000000018801        0x0 0x1 /usr/local/popcorn/aarch64/lib/libc.a(pthread_self.o)
 .debug_loc     0x0000000000018801       0x23 0x1 /usr/local/popcorn/aarch64/lib/libc.a(pthread_setspecific.o)
 .debug_loc     0x0000000000018824       0x46 0x1 /usr/local/popcorn/aarch64/lib/libc.a(lseek.o)
 .debug_loc     0x000000000001886a        0x0 0x1 /usr/local/popcorn/aarch64/lib/libc.a(abort.o)
 .debug_loc     0x000000000001886a       0x9f 0x1 /usr/local/popcorn/aarch64/lib/libc.a(raise.o)
 .debug_loc     0x0000000000018909      0x1e2 0x1 /usr/local/popcorn/aarch64/lib/libc.a(__fdopen.o)
 .debug_loc     0x0000000000018aeb       0x6c 0x1 /usr/local/popcorn/aarch64/lib/libc.a(__fmodeflags.o)
 .debug_loc     0x0000000000018b57      0x134 0x1 /usr/local/popcorn/aarch64/lib/libc.a(__stdio_read.o)
 .debug_loc     0x0000000000018c8b      0x4a8 0x1 /usr/local/popcorn/aarch64/lib/libc.a(getdelim.o)
 .debug_loc     0x0000000000019133       0x59 0x1 /usr/local/popcorn/aarch64/lib/libc.a(ofl_add.o)

.debug_abbrev   0x0000000000000000     0x9eff
 .debug_abbrev  0x0000000000000000      0x1c8 0x1 tiny_aarch64.o
 .debug_abbrev  0x00000000000001c8       0x62 0x1 /usr/local/popcorn/aarch64/lib/crt1.o
 .debug_abbrev  0x000000000000022a       0xb5 0x1 /usr/local/popcorn/aarch64/lib/libc.a(closedir.o)
 .debug_abbrev  0x00000000000002df       0xf8 0x1 /usr/local/popcorn/aarch64/lib/libc.a(fdopendir.o)
 .debug_abbrev  0x00000000000003d7      0x119 0x1 /usr/local/popcorn/aarch64/lib/libc.a(readdir.o)
 .debug_abbrev  0x00000000000004f0      0x1b0 0x1 /usr/local/popcorn/aarch64/lib/libc.a(__libc_start_main.o)
 .debug_abbrev  0x00000000000006a0      0x12a 0x1 /usr/local/popcorn/aarch64/lib/libc.a(__errno_location.o)
 .debug_abbrev  0x00000000000007ca       0xa0 0x1 /usr/local/popcorn/aarch64/lib/libc.a(exit.o)
 .debug_abbrev  0x000000000000086a       0xf9 0x1 /usr/local/popcorn/aarch64/lib/libc.a(fcntl.o)
 .debug_abbrev  0x0000000000000963      0x100 0x1 /usr/local/popcorn/aarch64/lib/libc.a(open.o)
 .debug_abbrev  0x0000000000000a63       0xaf 0x1 /usr/local/popcorn/aarch64/lib/libc.a(openat.o)
 .debug_abbrev  0x0000000000000b12       0x96 0x1 /usr/local/popcorn/aarch64/lib/libc.a(libc.o)
 .debug_abbrev  0x0000000000000ba8       0x4b 0x1 /usr/local/popcorn/aarch64/lib/libc.a(syscall_ret.o)
 .debug_abbrev  0x0000000000000bf3       0xc6 0x1 /usr/local/popcorn/aarch64/lib/libc.a(sendfile.o)
 .debug_abbrev  0x0000000000000cb9       0x6c 0x1 /usr/local/popcorn/aarch64/lib/libc.a(calloc.o)
 .debug_abbrev  0x0000000000000d25       0xa9 0x1 /usr/local/popcorn/aarch64/lib/libc.a(lite_malloc.o)
 .debug_abbrev  0x0000000000000dce      0x283 0x1 /usr/local/popcorn/aarch64/lib/libc.a(malloc.o)
 .debug_abbrev  0x0000000000001051      0x246 0x1 /usr/local/popcorn/aarch64/lib/libc.a(popcorn_malloc.o)
 .debug_abbrev  0x0000000000001297       0xc4 0x1 /usr/local/popcorn/aarch64/lib/libc.a(madvise.o)
 .debug_abbrev  0x000000000000135b       0xd8 0x1 /usr/local/popcorn/aarch64/lib/libc.a(mmap.o)
 .debug_abbrev  0x0000000000001433       0xec 0x1 /usr/local/popcorn/aarch64/lib/libc.a(mremap.o)
 .debug_abbrev  0x000000000000151f       0xcb 0x1 /usr/local/popcorn/aarch64/lib/libc.a(munmap.o)
 .debug_abbrev  0x00000000000015ea       0x9d 0x1 /usr/local/popcorn/aarch64/lib/libc.a(accept.o)
 .debug_abbrev  0x0000000000001687      0x104 0x1 /usr/local/popcorn/aarch64/lib/libc.a(bind.o)
 .debug_abbrev  0x000000000000178b       0xba 0x1 /usr/local/popcorn/aarch64/lib/libc.a(htonl.o)
 .debug_abbrev  0x0000000000001845       0xa2 0x1 /usr/local/popcorn/aarch64/lib/libc.a(htons.o)
 .debug_abbrev  0x00000000000018e7       0xb5 0x1 /usr/local/popcorn/aarch64/lib/libc.a(inet_ntoa.o)
 .debug_abbrev  0x000000000000199c       0xa1 0x1 /usr/local/popcorn/aarch64/lib/libc.a(listen.o)
 .debug_abbrev  0x0000000000001a3d       0xa2 0x1 /usr/local/popcorn/aarch64/lib/libc.a(ntohs.o)
 .debug_abbrev  0x0000000000001adf       0xcb 0x1 /usr/local/popcorn/aarch64/lib/libc.a(setsockopt.o)
 .debug_abbrev  0x0000000000001baa       0xbf 0x1 /usr/local/popcorn/aarch64/lib/libc.a(socket.o)
 .debug_abbrev  0x0000000000001c69      0x1b6 0x1 /usr/local/popcorn/aarch64/lib/libc.a(fork.o)
 .debug_abbrev  0x0000000000001e1f       0xce 0x1 /usr/local/popcorn/aarch64/lib/libc.a(block.o)
 .debug_abbrev  0x0000000000001eed      0x10b 0x1 /usr/local/popcorn/aarch64/lib/libc.a(signal.o)
 .debug_abbrev  0x0000000000001ff8      0x13e 0x1 /usr/local/popcorn/aarch64/lib/libc.a(fstat.o)
 .debug_abbrev  0x0000000000002136       0xdc 0x1 /usr/local/popcorn/aarch64/lib/libc.a(perror.o)
 .debug_abbrev  0x0000000000002212       0xaf 0x1 /usr/local/popcorn/aarch64/lib/libc.a(printf.o)
 .debug_abbrev  0x00000000000022c1       0xbe 0x1 /usr/local/popcorn/aarch64/lib/libc.a(snprintf.o)
 .debug_abbrev  0x000000000000237f       0xbe 0x1 /usr/local/popcorn/aarch64/lib/libc.a(sprintf.o)
 .debug_abbrev  0x000000000000243d       0xbe 0x1 /usr/local/popcorn/aarch64/lib/libc.a(sscanf.o)
 .debug_abbrev  0x00000000000024fb       0xc2 0x1 /usr/local/popcorn/aarch64/lib/libc.a(stderr.o)
 .debug_abbrev  0x00000000000025bd       0xcb 0x1 /usr/local/popcorn/aarch64/lib/libc.a(stdout.o)
 .debug_abbrev  0x0000000000002688      0x2bd 0x1 /usr/local/popcorn/aarch64/lib/libc.a(vfprintf.o)
 .debug_abbrev  0x0000000000002945      0x136 0x1 /usr/local/popcorn/aarch64/lib/libc.a(vsnprintf.o)
 .debug_abbrev  0x0000000000002a7b       0x8f 0x1 /usr/local/popcorn/aarch64/lib/libc.a(vsprintf.o)
 .debug_abbrev  0x0000000000002b0a      0x129 0x1 /usr/local/popcorn/aarch64/lib/libc.a(vsscanf.o)
 .debug_abbrev  0x0000000000002c33       0xa7 0x1 /usr/local/popcorn/aarch64/lib/libc.a(atoi.o)
 .debug_abbrev  0x0000000000002cda      0x15d 0x1 /usr/local/popcorn/aarch64/lib/libc.a(strtol.o)
 .debug_abbrev  0x0000000000002e37       0x95 0x1 /usr/local/popcorn/aarch64/lib/libc.a(memcpy.o)
 .debug_abbrev  0x0000000000002ecc       0x82 0x1 /usr/local/popcorn/aarch64/lib/libc.a(memset.o)
 .debug_abbrev  0x0000000000002f4e       0x59 0x1 /usr/local/popcorn/aarch64/lib/libc.a(strcmp.o)
 .debug_abbrev  0x0000000000002fa7       0x7a 0x1 /usr/local/popcorn/aarch64/lib/libc.a(strlen.o)
 .debug_abbrev  0x0000000000003021       0x75 0x1 /usr/local/popcorn/aarch64/lib/libc.a(strnlen.o)
 .debug_abbrev  0x0000000000003096       0x59 0x1 /usr/local/popcorn/aarch64/lib/libc.a(strrchr.o)
 .debug_abbrev  0x00000000000030ef       0xfb 0x1 /usr/local/popcorn/aarch64/lib/libc.a(__lock.o)
 .debug_abbrev  0x00000000000031ea       0x70 0x1 /usr/local/popcorn/aarch64/lib/libc.a(__syscall_cp.o)
 .debug_abbrev  0x000000000000325a      0x105 0x1 /usr/local/popcorn/aarch64/lib/libc.a(__wait.o)
 .debug_abbrev  0x000000000000335f       0x91 0x1 /usr/local/popcorn/aarch64/lib/libc.a(localtime.o)
 .debug_abbrev  0x00000000000033f0       0x89 0x1 /usr/local/popcorn/aarch64/lib/libc.a(localtime_r.o)
 .debug_abbrev  0x0000000000003479      0x1ec 0x1 /usr/local/popcorn/aarch64/lib/libc.a(strftime.o)
 .debug_abbrev  0x0000000000003665       0xb1 0x1 /usr/local/popcorn/aarch64/lib/libc.a(chdir.o)
 .debug_abbrev  0x0000000000003716       0x81 0x1 /usr/local/popcorn/aarch64/lib/libc.a(close.o)
 .debug_abbrev  0x0000000000003797       0xe1 0x1 /usr/local/popcorn/aarch64/lib/libc.a(getcwd.o)
 .debug_abbrev  0x0000000000003878       0xa1 0x1 /usr/local/popcorn/aarch64/lib/libc.a(getpid.o)
 .debug_abbrev  0x0000000000003919       0x5d 0x1 /usr/local/popcorn/aarch64/lib/libc.a(read.o)
 .debug_abbrev  0x0000000000003976       0x64 0x1 /usr/local/popcorn/aarch64/lib/libc.a(write.o)
 .debug_abbrev  0x00000000000039da       0x36 0x1 /usr/local/popcorn/aarch64/lib/libc.a(__environ.o)
 .debug_abbrev  0x0000000000003a10      0x1c7 0x1 /usr/local/popcorn/aarch64/lib/libc.a(__init_tls.o)
 .debug_abbrev  0x0000000000003bd7      0x16b 0x1 /usr/local/popcorn/aarch64/lib/libc.a(strerror.o)
 .debug_abbrev  0x0000000000003d42       0x8f 0x1 /usr/local/popcorn/aarch64/lib/libc.a(_Exit.o)
 .debug_abbrev  0x0000000000003dd1       0x28 0x1 /usr/local/popcorn/aarch64/lib/libc.a(syscall.o)
 .debug_abbrev  0x0000000000003df9      0x129 0x1 /usr/local/popcorn/aarch64/lib/libc.a(intscan.o)
 .debug_abbrev  0x0000000000003f22       0x6e 0x1 /usr/local/popcorn/aarch64/lib/libc.a(procfdname.o)
 .debug_abbrev  0x0000000000003f90      0x105 0x1 /usr/local/popcorn/aarch64/lib/libc.a(shgetc.o)
 .debug_abbrev  0x0000000000004095      0x14d 0x1 /usr/local/popcorn/aarch64/lib/libc.a(__lctrans.o)
 .debug_abbrev  0x00000000000041e2      0x174 0x1 /usr/local/popcorn/aarch64/lib/libc.a(langinfo.o)
 .debug_abbrev  0x0000000000004356      0x15f 0x1 /usr/local/popcorn/aarch64/lib/libc.a(expand_heap.o)
 .debug_abbrev  0x00000000000044b5       0x9b 0x1 /usr/local/popcorn/aarch64/lib/libc.a(__fpclassifyl.o)
 .debug_abbrev  0x0000000000004550       0x8e 0x1 /usr/local/popcorn/aarch64/lib/libc.a(__signbitl.o)
 .debug_abbrev  0x00000000000045de       0xa2 0x1 /usr/local/popcorn/aarch64/lib/libc.a(frexpl.o)
 .debug_abbrev  0x0000000000004680       0x6e 0x1 /usr/local/popcorn/aarch64/lib/libc.a(wctomb.o)
 .debug_abbrev  0x00000000000046ee      0x1e0 0x1 /usr/local/popcorn/aarch64/lib/libc.a(sigaction.o)
 .debug_abbrev  0x00000000000048ce      0x1da 0x1 /usr/local/popcorn/aarch64/lib/libc.a(__lockfile.o)
 .debug_abbrev  0x0000000000004aa8      0x14e 0x1 /usr/local/popcorn/aarch64/lib/libc.a(__stdio_close.o)
 .debug_abbrev  0x0000000000004bf6      0x136 0x1 /usr/local/popcorn/aarch64/lib/libc.a(__stdio_seek.o)
 .debug_abbrev  0x0000000000004d2c      0x16e 0x1 /usr/local/popcorn/aarch64/lib/libc.a(__stdio_write.o)
 .debug_abbrev  0x0000000000004e9a      0x127 0x1 /usr/local/popcorn/aarch64/lib/libc.a(__stdout_write.o)
 .debug_abbrev  0x0000000000004fc1       0xde 0x1 /usr/local/popcorn/aarch64/lib/libc.a(__string_read.o)
 .debug_abbrev  0x000000000000509f       0xde 0x1 /usr/local/popcorn/aarch64/lib/libc.a(__uflow.o)
 .debug_abbrev  0x000000000000517d       0xcf 0x1 /usr/local/popcorn/aarch64/lib/libc.a(fputc.o)
 .debug_abbrev  0x000000000000524c      0x10d 0x1 /usr/local/popcorn/aarch64/lib/libc.a(fwrite.o)
 .debug_abbrev  0x0000000000005359      0x1d8 0x1 /usr/local/popcorn/aarch64/lib/libc.a(vfscanf.o)
 .debug_abbrev  0x0000000000005531       0x4b 0x1 /usr/local/popcorn/aarch64/lib/libc.a(abs.o)
 .debug_abbrev  0x000000000000557c       0x88 0x1 /usr/local/popcorn/aarch64/lib/libc.a(memchr.o)
 .debug_abbrev  0x0000000000005604       0x8e 0x1 /usr/local/popcorn/aarch64/lib/libc.a(memrchr.o)
 .debug_abbrev  0x0000000000005692       0x75 0x1 /usr/local/popcorn/aarch64/lib/libc.a(strdup.o)
 .debug_abbrev  0x0000000000005707       0x28 0x1 /usr/local/popcorn/aarch64/lib/libc.a(__set_thread_area.o)
 .debug_abbrev  0x000000000000572f       0xd9 0x1 /usr/local/popcorn/aarch64/lib/libc.a(__secs_to_tm.o)
 .debug_abbrev  0x0000000000005808       0x9a 0x1 /usr/local/popcorn/aarch64/lib/libc.a(__tm_to_secs.o)
 .debug_abbrev  0x00000000000058a2      0x2b0 0x1 /usr/local/popcorn/aarch64/lib/libc.a(__tz.o)
 .debug_abbrev  0x0000000000005b52       0x75 0x1 /usr/local/popcorn/aarch64/lib/libc.a(__year_to_secs.o)
 .debug_abbrev  0x0000000000005bc7       0x89 0x1 /usr/local/popcorn/aarch64/lib/libc.a(getenv.o)
 .debug_abbrev  0x0000000000005c50      0x20a 0x1 /usr/local/popcorn/aarch64/lib/libc.a(floatscan.o)
 .debug_abbrev  0x0000000000005e5a       0x4b 0x1 /usr/local/popcorn/aarch64/lib/libc.a(fabs.o)
 .debug_abbrev  0x0000000000005ea5       0xac 0x1 /usr/local/popcorn/aarch64/lib/libc.a(copysignl.o)
 .debug_abbrev  0x0000000000005f51       0xc5 0x1 /usr/local/popcorn/aarch64/lib/libc.a(fmodl.o)
 .debug_abbrev  0x0000000000006016       0x81 0x1 /usr/local/popcorn/aarch64/lib/libc.a(scalbn.o)
 .debug_abbrev  0x0000000000006097       0x8e 0x1 /usr/local/popcorn/aarch64/lib/libc.a(scalbnl.o)
 .debug_abbrev  0x0000000000006125      0x176 0x1 /usr/local/popcorn/aarch64/lib/libc.a(mbrtowc.o)
 .debug_abbrev  0x000000000000629b       0x82 0x1 /usr/local/popcorn/aarch64/lib/libc.a(mbsinit.o)
 .debug_abbrev  0x000000000000631d      0x167 0x1 /usr/local/popcorn/aarch64/lib/libc.a(wcrtomb.o)
 .debug_abbrev  0x0000000000006484       0x26 0x1 /usr/local/popcorn/aarch64/lib/libc.a(restore.o)
 .debug_abbrev  0x00000000000064aa       0xde 0x1 /usr/local/popcorn/aarch64/lib/libc.a(__overflow.o)
 .debug_abbrev  0x0000000000006588       0xe5 0x1 /usr/local/popcorn/aarch64/lib/libc.a(__toread.o)
 .debug_abbrev  0x000000000000666d       0xe5 0x1 /usr/local/popcorn/aarch64/lib/libc.a(__towrite.o)
 .debug_abbrev  0x0000000000006752       0x7a 0x1 /usr/local/popcorn/aarch64/lib/libc.a(memcmp.o)
 .debug_abbrev  0x00000000000067cc       0x68 0x1 /usr/local/popcorn/aarch64/lib/libc.a(strchr.o)
 .debug_abbrev  0x0000000000006834       0x7a 0x1 /usr/local/popcorn/aarch64/lib/libc.a(strchrnul.o)
 .debug_abbrev  0x00000000000068ae       0x7a 0x1 /usr/local/popcorn/aarch64/lib/libc.a(strncmp.o)
 .debug_abbrev  0x0000000000006928      0x132 0x1 /usr/local/popcorn/aarch64/lib/libc.a(__map_file.o)
 .debug_abbrev  0x0000000000006a5a       0x9a 0x1 /usr/local/popcorn/aarch64/lib/libc.a(__month_to_secs.o)
 .debug_abbrev  0x0000000000006af4       0x5e 0x1 /usr/local/popcorn/aarch64/lib/libc.a(internal.o)
 .debug_abbrev  0x0000000000006b52       0xff 0x1 /usr/local/popcorn/aarch64/lib/libc.a(__stdio_exit.o)
 .debug_abbrev  0x0000000000006c51       0xe7 0x1 /usr/local/popcorn/aarch64/lib/libc.a(ofl.o)
 .debug_abbrev  0x0000000000006d38      0x206 0x1 /usr/local/popcorn/aarch64/lib/libmigrate.a(migrate.o)
 .debug_abbrev  0x0000000000006f3e      0x127 0x1 /usr/local/popcorn/aarch64/lib/libmigrate.a(mapping.o)
 .debug_abbrev  0x0000000000007065      0x241 0x1 /usr/local/popcorn/aarch64/lib/libstack-transform.a(userspace.o)
 .debug_abbrev  0x00000000000072a6      0x166 0x1 /usr/local/popcorn/aarch64/lib/libstack-transform.a(init.o)
 .debug_abbrev  0x000000000000740c      0x274 0x1 /usr/local/popcorn/aarch64/lib/libstack-transform.a(rewrite.o)
 .debug_abbrev  0x0000000000007680      0x1f9 0x1 /usr/local/popcorn/aarch64/lib/libstack-transform.a(unwind.o)
 .debug_abbrev  0x0000000000007879      0x19a 0x1 /usr/local/popcorn/aarch64/lib/libstack-transform.a(util.o)
 .debug_abbrev  0x0000000000007a13       0xdd 0x1 /usr/local/popcorn/aarch64/lib/libstack-transform.a(properties.o)
 .debug_abbrev  0x0000000000007af0      0x131 0x1 /usr/local/popcorn/aarch64/lib/libstack-transform.a(regs.o)
 .debug_abbrev  0x0000000000007c21       0xec 0x1 /usr/local/popcorn/aarch64/lib/libstack-transform.a(properties.o)
 .debug_abbrev  0x0000000000007d0d      0x131 0x1 /usr/local/popcorn/aarch64/lib/libstack-transform.a(regs.o)
 .debug_abbrev  0x0000000000007e3e       0xdd 0x1 /usr/local/popcorn/aarch64/lib/libstack-transform.a(properties.o)
 .debug_abbrev  0x0000000000007f1b      0x131 0x1 /usr/local/popcorn/aarch64/lib/libstack-transform.a(regs.o)
 .debug_abbrev  0x000000000000804c      0x249 0x1 /usr/local/popcorn/aarch64/lib/libstack-transform.a(data.o)
 .debug_abbrev  0x0000000000008295       0xab 0x1 /usr/local/popcorn/aarch64/lib/libc.a(arch_crash.o)
 .debug_abbrev  0x0000000000008340       0x57 0x1 /usr/local/popcorn/aarch64/lib/libc.a(assert.o)
 .debug_abbrev  0x0000000000008397      0x10c 0x1 /usr/local/popcorn/aarch64/lib/libc.a(getrlimit.o)
 .debug_abbrev  0x00000000000084a3       0xdc 0x1 /usr/local/popcorn/aarch64/lib/libc.a(syscall.o)
 .debug_abbrev  0x000000000000857f      0x10c 0x1 /usr/local/popcorn/aarch64/lib/libc.a(fclose.o)
 .debug_abbrev  0x000000000000868b       0xfd 0x1 /usr/local/popcorn/aarch64/lib/libc.a(fflush.o)
 .debug_abbrev  0x0000000000008788      0x14a 0x1 /usr/local/popcorn/aarch64/lib/libc.a(fopen.o)
 .debug_abbrev  0x00000000000088d2       0xd4 0x1 /usr/local/popcorn/aarch64/lib/libc.a(fprintf.o)
 .debug_abbrev  0x00000000000089a6       0xd4 0x1 /usr/local/popcorn/aarch64/lib/libc.a(fscanf.o)
 .debug_abbrev  0x0000000000008a7a       0xfa 0x1 /usr/local/popcorn/aarch64/lib/libc.a(fseek.o)
 .debug_abbrev  0x0000000000008b74       0xdc 0x1 /usr/local/popcorn/aarch64/lib/libc.a(getc.o)
 .debug_abbrev  0x0000000000008c50       0x8b 0x1 /usr/local/popcorn/aarch64/lib/libc.a(getline.o)
 .debug_abbrev  0x0000000000008cdb       0x95 0x1 /usr/local/popcorn/aarch64/lib/libc.a(bsearch.o)
 .debug_abbrev  0x0000000000008d70      0x1a0 0x1 /usr/local/popcorn/aarch64/lib/libc.a(qsort.o)
 .debug_abbrev  0x0000000000008f10      0x109 0x1 /usr/local/popcorn/aarch64/lib/libc.a(pthread_attr_get.o)
 .debug_abbrev  0x0000000000009019      0x125 0x1 /usr/local/popcorn/aarch64/lib/libc.a(pthread_getattr_np.o)
 .debug_abbrev  0x000000000000913e      0x137 0x1 /usr/local/popcorn/aarch64/lib/libc.a(pthread_getspecific.o)
 .debug_abbrev  0x0000000000009275      0x1f3 0x1 /usr/local/popcorn/aarch64/lib/libc.a(pthread_key_create.o)
 .debug_abbrev  0x0000000000009468      0x128 0x1 /usr/local/popcorn/aarch64/lib/libc.a(pthread_migrate.o)
 .debug_abbrev  0x0000000000009590      0x126 0x1 /usr/local/popcorn/aarch64/lib/libc.a(pthread_self.o)
 .debug_abbrev  0x00000000000096b6      0x13e 0x1 /usr/local/popcorn/aarch64/lib/libc.a(pthread_setspecific.o)
 .debug_abbrev  0x00000000000097f4       0xbf 0x1 /usr/local/popcorn/aarch64/lib/libc.a(lseek.o)
 .debug_abbrev  0x00000000000098b3       0x67 0x1 /usr/local/popcorn/aarch64/lib/libc.a(abort.o)
 .debug_abbrev  0x000000000000991a       0xf6 0x1 /usr/local/popcorn/aarch64/lib/libc.a(raise.o)
 .debug_abbrev  0x0000000000009a10      0x15c 0x1 /usr/local/popcorn/aarch64/lib/libc.a(__fdopen.o)
 .debug_abbrev  0x0000000000009b6c       0x68 0x1 /usr/local/popcorn/aarch64/lib/libc.a(__fmodeflags.o)
 .debug_abbrev  0x0000000000009bd4      0x161 0x1 /usr/local/popcorn/aarch64/lib/libc.a(__stdio_read.o)
 .debug_abbrev  0x0000000000009d35       0xec 0x1 /usr/local/popcorn/aarch64/lib/libc.a(getdelim.o)
 .debug_abbrev  0x0000000000009e21       0xde 0x1 /usr/local/popcorn/aarch64/lib/libc.a(ofl_add.o)

.debug_info     0x0000000000000000    0x23e6b
 .debug_info    0x0000000000000000      0xbc4 0x1 tiny_aarch64.o
 .debug_info    0x0000000000000bc4       0x8b 0x1 /usr/local/popcorn/aarch64/lib/crt1.o
 .debug_info    0x0000000000000c4f      0x10a 0x1 /usr/local/popcorn/aarch64/lib/libc.a(closedir.o)
 .debug_info    0x0000000000000d59      0x281 0x1 /usr/local/popcorn/aarch64/lib/libc.a(fdopendir.o)
 .debug_info    0x0000000000000fda      0x234 0x1 /usr/local/popcorn/aarch64/lib/libc.a(readdir.o)
 .debug_info    0x000000000000120e      0x3b5 0x1 /usr/local/popcorn/aarch64/lib/libc.a(__libc_start_main.o)
 .debug_info    0x00000000000015c3      0x3a5 0x1 /usr/local/popcorn/aarch64/lib/libc.a(__errno_location.o)
 .debug_info    0x0000000000001968       0xb0 0x1 /usr/local/popcorn/aarch64/lib/libc.a(exit.o)
 .debug_info    0x0000000000001a18      0x377 0x1 /usr/local/popcorn/aarch64/lib/libc.a(fcntl.o)
 .debug_info    0x0000000000001d8f      0x1c0 0x1 /usr/local/popcorn/aarch64/lib/libc.a(open.o)
 .debug_info    0x0000000000001f4f      0x11d 0x1 /usr/local/popcorn/aarch64/lib/libc.a(openat.o)
 .debug_info    0x000000000000206c      0x1d7 0x1 /usr/local/popcorn/aarch64/lib/libc.a(libc.o)
 .debug_info    0x0000000000002243       0x62 0x1 /usr/local/popcorn/aarch64/lib/libc.a(syscall_ret.o)
 .debug_info    0x00000000000022a5      0x15c 0x1 /usr/local/popcorn/aarch64/lib/libc.a(sendfile.o)
 .debug_info    0x0000000000002401       0xc0 0x1 /usr/local/popcorn/aarch64/lib/libc.a(calloc.o)
 .debug_info    0x00000000000024c1      0x12d 0x1 /usr/local/popcorn/aarch64/lib/libc.a(lite_malloc.o)
 .debug_info    0x00000000000025ee     0x20d8 0x1 /usr/local/popcorn/aarch64/lib/libc.a(malloc.o)
 .debug_info    0x00000000000046c6     0x270c 0x1 /usr/local/popcorn/aarch64/lib/libc.a(popcorn_malloc.o)
 .debug_info    0x0000000000006dd2      0x121 0x1 /usr/local/popcorn/aarch64/lib/libc.a(madvise.o)
 .debug_info    0x0000000000006ef3      0x1b6 0x1 /usr/local/popcorn/aarch64/lib/libc.a(mmap.o)
 .debug_info    0x00000000000070a9      0x1e5 0x1 /usr/local/popcorn/aarch64/lib/libc.a(mremap.o)
 .debug_info    0x000000000000728e      0x113 0x1 /usr/local/popcorn/aarch64/lib/libc.a(munmap.o)
 .debug_info    0x00000000000073a1       0xf8 0x1 /usr/local/popcorn/aarch64/lib/libc.a(accept.o)
 .debug_info    0x0000000000007499      0x1e2 0x1 /usr/local/popcorn/aarch64/lib/libc.a(bind.o)
 .debug_info    0x000000000000767b       0xd2 0x1 /usr/local/popcorn/aarch64/lib/libc.a(htonl.o)
 .debug_info    0x000000000000774d       0xc4 0x1 /usr/local/popcorn/aarch64/lib/libc.a(htons.o)
 .debug_info    0x0000000000007811       0xce 0x1 /usr/local/popcorn/aarch64/lib/libc.a(inet_ntoa.o)
 .debug_info    0x00000000000078df      0x16b 0x1 /usr/local/popcorn/aarch64/lib/libc.a(listen.o)
 .debug_info    0x0000000000007a4a       0xc4 0x1 /usr/local/popcorn/aarch64/lib/libc.a(ntohs.o)
 .debug_info    0x0000000000007b0e      0x193 0x1 /usr/local/popcorn/aarch64/lib/libc.a(setsockopt.o)
 .debug_info    0x0000000000007ca1      0x27d 0x1 /usr/local/popcorn/aarch64/lib/libc.a(socket.o)
 .debug_info    0x0000000000007f1e      0x518 0x1 /usr/local/popcorn/aarch64/lib/libc.a(fork.o)
 .debug_info    0x0000000000008436      0x202 0x1 /usr/local/popcorn/aarch64/lib/libc.a(block.o)
 .debug_info    0x0000000000008638      0x39a 0x1 /usr/local/popcorn/aarch64/lib/libc.a(signal.o)
 .debug_info    0x00000000000089d2      0x3a7 0x1 /usr/local/popcorn/aarch64/lib/libc.a(fstat.o)
 .debug_info    0x0000000000008d79      0x334 0x1 /usr/local/popcorn/aarch64/lib/libc.a(perror.o)
 .debug_info    0x00000000000090ad       0xe6 0x1 /usr/local/popcorn/aarch64/lib/libc.a(printf.o)
 .debug_info    0x0000000000009193      0x11c 0x1 /usr/local/popcorn/aarch64/lib/libc.a(snprintf.o)
 .debug_info    0x00000000000092af       0xfd 0x1 /usr/local/popcorn/aarch64/lib/libc.a(sprintf.o)
 .debug_info    0x00000000000093ac       0xf3 0x1 /usr/local/popcorn/aarch64/lib/libc.a(sscanf.o)
 .debug_info    0x000000000000949f      0x336 0x1 /usr/local/popcorn/aarch64/lib/libc.a(stderr.o)
 .debug_info    0x00000000000097d5      0x337 0x1 /usr/local/popcorn/aarch64/lib/libc.a(stdout.o)
 .debug_info    0x0000000000009b0c     0x1126 0x1 /usr/local/popcorn/aarch64/lib/libc.a(vfprintf.o)
 .debug_info    0x000000000000ac32      0x468 0x1 /usr/local/popcorn/aarch64/lib/libc.a(vsnprintf.o)
 .debug_info    0x000000000000b09a       0xe7 0x1 /usr/local/popcorn/aarch64/lib/libc.a(vsprintf.o)
 .debug_info    0x000000000000b181      0x3cb 0x1 /usr/local/popcorn/aarch64/lib/libc.a(vsscanf.o)
 .debug_info    0x000000000000b54c       0xb9 0x1 /usr/local/popcorn/aarch64/lib/libc.a(atoi.o)
 .debug_info    0x000000000000b605      0x5aa 0x1 /usr/local/popcorn/aarch64/lib/libc.a(strtol.o)
 .debug_info    0x000000000000bbaf      0x112 0x1 /usr/local/popcorn/aarch64/lib/libc.a(memcpy.o)
 .debug_info    0x000000000000bcc1      0x118 0x1 /usr/local/popcorn/aarch64/lib/libc.a(memset.o)
 .debug_info    0x000000000000bdd9       0x87 0x1 /usr/local/popcorn/aarch64/lib/libc.a(strcmp.o)
 .debug_info    0x000000000000be60       0xb0 0x1 /usr/local/popcorn/aarch64/lib/libc.a(strlen.o)
 .debug_info    0x000000000000bf10       0x95 0x1 /usr/local/popcorn/aarch64/lib/libc.a(strnlen.o)
 .debug_info    0x000000000000bfa5       0x80 0x1 /usr/local/popcorn/aarch64/lib/libc.a(strrchr.o)
 .debug_info    0x000000000000c025      0x2ea 0x1 /usr/local/popcorn/aarch64/lib/libc.a(__lock.o)
 .debug_info    0x000000000000c30f      0x127 0x1 /usr/local/popcorn/aarch64/lib/libc.a(__syscall_cp.o)
 .debug_info    0x000000000000c436      0x34f 0x1 /usr/local/popcorn/aarch64/lib/libc.a(__wait.o)
 .debug_info    0x000000000000c785      0x12d 0x1 /usr/local/popcorn/aarch64/lib/libc.a(localtime.o)
 .debug_info    0x000000000000c8b2      0x13a 0x1 /usr/local/popcorn/aarch64/lib/libc.a(localtime_r.o)
 .debug_info    0x000000000000c9ec      0x720 0x1 /usr/local/popcorn/aarch64/lib/libc.a(strftime.o)
 .debug_info    0x000000000000d10c       0xd5 0x1 /usr/local/popcorn/aarch64/lib/libc.a(chdir.o)
 .debug_info    0x000000000000d1e1       0x98 0x1 /usr/local/popcorn/aarch64/lib/libc.a(close.o)
 .debug_info    0x000000000000d279      0x122 0x1 /usr/local/popcorn/aarch64/lib/libc.a(getcwd.o)
 .debug_info    0x000000000000d39b       0xb6 0x1 /usr/local/popcorn/aarch64/lib/libc.a(getpid.o)
 .debug_info    0x000000000000d451       0x9e 0x1 /usr/local/popcorn/aarch64/lib/libc.a(read.o)
 .debug_info    0x000000000000d4ef       0xa3 0x1 /usr/local/popcorn/aarch64/lib/libc.a(write.o)
 .debug_info    0x000000000000d592       0x45 0x1 /usr/local/popcorn/aarch64/lib/libc.a(__environ.o)
 .debug_info    0x000000000000d5d7      0x7aa 0x1 /usr/local/popcorn/aarch64/lib/libc.a(__init_tls.o)
 .debug_info    0x000000000000dd81      0x495 0x1 /usr/local/popcorn/aarch64/lib/libc.a(strerror.o)
 .debug_info    0x000000000000e216       0xcb 0x1 /usr/local/popcorn/aarch64/lib/libc.a(_Exit.o)
 .debug_info    0x000000000000e2e1       0xbe 0x1 /usr/local/popcorn/aarch64/lib/libc.a(syscall.o)
 .debug_info    0x000000000000e39f      0x3c6 0x1 /usr/local/popcorn/aarch64/lib/libc.a(intscan.o)
 .debug_info    0x000000000000e765       0x8e 0x1 /usr/local/popcorn/aarch64/lib/libc.a(procfdname.o)
 .debug_info    0x000000000000e7f3      0x340 0x1 /usr/local/popcorn/aarch64/lib/libc.a(shgetc.o)
 .debug_info    0x000000000000eb33      0x467 0x1 /usr/local/popcorn/aarch64/lib/libc.a(__lctrans.o)
 .debug_info    0x000000000000ef9a      0x4ee 0x1 /usr/local/popcorn/aarch64/lib/libc.a(langinfo.o)
 .debug_info    0x000000000000f488      0x6fa 0x1 /usr/local/popcorn/aarch64/lib/libc.a(expand_heap.o)
 .debug_info    0x000000000000fb82      0x12f 0x1 /usr/local/popcorn/aarch64/lib/libc.a(__fpclassifyl.o)
 .debug_info    0x000000000000fcb1      0x124 0x1 /usr/local/popcorn/aarch64/lib/libc.a(__signbitl.o)
 .debug_info    0x000000000000fdd5      0x145 0x1 /usr/local/popcorn/aarch64/lib/libc.a(frexpl.o)
 .debug_info    0x000000000000ff1a       0x86 0x1 /usr/local/popcorn/aarch64/lib/libc.a(wctomb.o)
 .debug_info    0x000000000000ffa0      0x822 0x1 /usr/local/popcorn/aarch64/lib/libc.a(sigaction.o)
 .debug_info    0x00000000000107c2      0x8b0 0x1 /usr/local/popcorn/aarch64/lib/libc.a(__lockfile.o)
 .debug_info    0x0000000000011072      0x38a 0x1 /usr/local/popcorn/aarch64/lib/libc.a(__stdio_close.o)
 .debug_info    0x00000000000113fc      0x3b4 0x1 /usr/local/popcorn/aarch64/lib/libc.a(__stdio_seek.o)
 .debug_info    0x00000000000117b0      0x42e 0x1 /usr/local/popcorn/aarch64/lib/libc.a(__stdio_write.o)
 .debug_info    0x0000000000011bde      0x408 0x1 /usr/local/popcorn/aarch64/lib/libc.a(__stdout_write.o)
 .debug_info    0x0000000000011fe6      0x34c 0x1 /usr/local/popcorn/aarch64/lib/libc.a(__string_read.o)
 .debug_info    0x0000000000012332      0x310 0x1 /usr/local/popcorn/aarch64/lib/libc.a(__uflow.o)
 .debug_info    0x0000000000012642      0x310 0x1 /usr/local/popcorn/aarch64/lib/libc.a(fputc.o)
 .debug_info    0x0000000000012952      0x3d4 0x1 /usr/local/popcorn/aarch64/lib/libc.a(fwrite.o)
 .debug_info    0x0000000000012d26      0x693 0x1 /usr/local/popcorn/aarch64/lib/libc.a(vfscanf.o)
 .debug_info    0x00000000000133b9       0x5b 0x1 /usr/local/popcorn/aarch64/lib/libc.a(abs.o)
 .debug_info    0x0000000000013414       0xf3 0x1 /usr/local/popcorn/aarch64/lib/libc.a(memchr.o)
 .debug_info    0x0000000000013507       0xae 0x1 /usr/local/popcorn/aarch64/lib/libc.a(memrchr.o)
 .debug_info    0x00000000000135b5       0x9a 0x1 /usr/local/popcorn/aarch64/lib/libc.a(strdup.o)
 .debug_info    0x000000000001364f       0xd0 0x1 /usr/local/popcorn/aarch64/lib/libc.a(__set_thread_area.o)
 .debug_info    0x000000000001371f      0x1f9 0x1 /usr/local/popcorn/aarch64/lib/libc.a(__secs_to_tm.o)
 .debug_info    0x0000000000013918      0x162 0x1 /usr/local/popcorn/aarch64/lib/libc.a(__tm_to_secs.o)
 .debug_info    0x0000000000013a7a      0xa80 0x1 /usr/local/popcorn/aarch64/lib/libc.a(__tz.o)
 .debug_info    0x00000000000144fa       0xd2 0x1 /usr/local/popcorn/aarch64/lib/libc.a(__year_to_secs.o)
 .debug_info    0x00000000000145cc       0xa1 0x1 /usr/local/popcorn/aarch64/lib/libc.a(getenv.o)
 .debug_info    0x000000000001466d      0x8e1 0x1 /usr/local/popcorn/aarch64/lib/libc.a(floatscan.o)
 .debug_info    0x0000000000014f4e       0x5b 0x1 /usr/local/popcorn/aarch64/lib/libc.a(fabs.o)
 .debug_info    0x0000000000014fa9      0x13b 0x1 /usr/local/popcorn/aarch64/lib/libc.a(copysignl.o)
 .debug_info    0x00000000000150e4      0x25a 0x1 /usr/local/popcorn/aarch64/lib/libc.a(fmodl.o)
 .debug_info    0x000000000001533e       0xc9 0x1 /usr/local/popcorn/aarch64/lib/libc.a(scalbn.o)
 .debug_info    0x0000000000015407      0x142 0x1 /usr/local/popcorn/aarch64/lib/libc.a(scalbnl.o)
 .debug_info    0x0000000000015549      0x4f8 0x1 /usr/local/popcorn/aarch64/lib/libc.a(mbrtowc.o)
 .debug_info    0x0000000000015a41       0xa1 0x1 /usr/local/popcorn/aarch64/lib/libc.a(mbsinit.o)
 .debug_info    0x0000000000015ae2      0x462 0x1 /usr/local/popcorn/aarch64/lib/libc.a(wcrtomb.o)
 .debug_info    0x0000000000015f44       0xd2 0x1 /usr/local/popcorn/aarch64/lib/libc.a(restore.o)
 .debug_info    0x0000000000016016      0x31f 0x1 /usr/local/popcorn/aarch64/lib/libc.a(__overflow.o)
 .debug_info    0x0000000000016335      0x316 0x1 /usr/local/popcorn/aarch64/lib/libc.a(__toread.o)
 .debug_info    0x000000000001664b      0x314 0x1 /usr/local/popcorn/aarch64/lib/libc.a(__towrite.o)
 .debug_info    0x000000000001695f       0xc0 0x1 /usr/local/popcorn/aarch64/lib/libc.a(memcmp.o)
 .debug_info    0x0000000000016a1f       0x9b 0x1 /usr/local/popcorn/aarch64/lib/libc.a(strchr.o)
 .debug_info    0x0000000000016aba       0xcd 0x1 /usr/local/popcorn/aarch64/lib/libc.a(strchrnul.o)
 .debug_info    0x0000000000016b87       0xcc 0x1 /usr/local/popcorn/aarch64/lib/libc.a(strncmp.o)
 .debug_info    0x0000000000016c53      0x3c9 0x1 /usr/local/popcorn/aarch64/lib/libc.a(__map_file.o)
 .debug_info    0x000000000001701c       0xa4 0x1 /usr/local/popcorn/aarch64/lib/libc.a(__month_to_secs.o)
 .debug_info    0x00000000000170c0       0x5e 0x1 /usr/local/popcorn/aarch64/lib/libc.a(internal.o)
 .debug_info    0x000000000001711e      0x338 0x1 /usr/local/popcorn/aarch64/lib/libc.a(__stdio_exit.o)
 .debug_info    0x0000000000017456      0x341 0x1 /usr/local/popcorn/aarch64/lib/libc.a(ofl.o)
 .debug_info    0x0000000000017797      0x42f 0x1 /usr/local/popcorn/aarch64/lib/libmigrate.a(migrate.o)
 .debug_info    0x0000000000017bc6      0x298 0x1 /usr/local/popcorn/aarch64/lib/libmigrate.a(mapping.o)
 .debug_info    0x0000000000017e5e      0xd26 0x1 /usr/local/popcorn/aarch64/lib/libstack-transform.a(userspace.o)
 .debug_info    0x0000000000018b84      0x8c3 0x1 /usr/local/popcorn/aarch64/lib/libstack-transform.a(init.o)
 .debug_info    0x0000000000019447     0x100b 0x1 /usr/local/popcorn/aarch64/lib/libstack-transform.a(rewrite.o)
 .debug_info    0x000000000001a452      0xd8c 0x1 /usr/local/popcorn/aarch64/lib/libstack-transform.a(unwind.o)
 .debug_info    0x000000000001b1de      0xc79 0x1 /usr/local/popcorn/aarch64/lib/libstack-transform.a(util.o)
 .debug_info    0x000000000001be57      0x1eb 0x1 /usr/local/popcorn/aarch64/lib/libstack-transform.a(properties.o)
 .debug_info    0x000000000001c042      0x6a9 0x1 /usr/local/popcorn/aarch64/lib/libstack-transform.a(regs.o)
 .debug_info    0x000000000001c6eb      0x206 0x1 /usr/local/popcorn/aarch64/lib/libstack-transform.a(properties.o)
 .debug_info    0x000000000001c8f1      0x6a2 0x1 /usr/local/popcorn/aarch64/lib/libstack-transform.a(regs.o)
 .debug_info    0x000000000001cf93      0x1eb 0x1 /usr/local/popcorn/aarch64/lib/libstack-transform.a(properties.o)
 .debug_info    0x000000000001d17e      0x7d7 0x1 /usr/local/popcorn/aarch64/lib/libstack-transform.a(regs.o)
 .debug_info    0x000000000001d955      0xf20 0x1 /usr/local/popcorn/aarch64/lib/libstack-transform.a(data.o)
 .debug_info    0x000000000001e875      0x1cc 0x1 /usr/local/popcorn/aarch64/lib/libc.a(arch_crash.o)
 .debug_info    0x000000000001ea41       0x95 0x1 /usr/local/popcorn/aarch64/lib/libc.a(assert.o)
 .debug_info    0x000000000001ead6      0x212 0x1 /usr/local/popcorn/aarch64/lib/libc.a(getrlimit.o)
 .debug_info    0x000000000001ece8      0x20e 0x1 /usr/local/popcorn/aarch64/lib/libc.a(syscall.o)
 .debug_info    0x000000000001eef6      0x373 0x1 /usr/local/popcorn/aarch64/lib/libc.a(fclose.o)
 .debug_info    0x000000000001f269      0x35c 0x1 /usr/local/popcorn/aarch64/lib/libc.a(fflush.o)
 .debug_info    0x000000000001f5c5      0x4ff 0x1 /usr/local/popcorn/aarch64/lib/libc.a(fopen.o)
 .debug_info    0x000000000001fac4      0x10e 0x1 /usr/local/popcorn/aarch64/lib/libc.a(fprintf.o)
 .debug_info    0x000000000001fbd2      0x10e 0x1 /usr/local/popcorn/aarch64/lib/libc.a(fscanf.o)
 .debug_info    0x000000000001fce0      0x3c1 0x1 /usr/local/popcorn/aarch64/lib/libc.a(fseek.o)
 .debug_info    0x00000000000200a1      0x30c 0x1 /usr/local/popcorn/aarch64/lib/libc.a(getc.o)
 .debug_info    0x00000000000203ad       0xcd 0x1 /usr/local/popcorn/aarch64/lib/libc.a(getline.o)
 .debug_info    0x000000000002047a       0xeb 0x1 /usr/local/popcorn/aarch64/lib/libc.a(bsearch.o)
 .debug_info    0x0000000000020565      0x622 0x1 /usr/local/popcorn/aarch64/lib/libc.a(qsort.o)
 .debug_info    0x0000000000020b87      0x59c 0x1 /usr/local/popcorn/aarch64/lib/libc.a(pthread_attr_get.o)
 .debug_info    0x0000000000021123      0x431 0x1 /usr/local/popcorn/aarch64/lib/libc.a(pthread_getattr_np.o)
 .debug_info    0x0000000000021554      0x3cf 0x1 /usr/local/popcorn/aarch64/lib/libc.a(pthread_getspecific.o)
 .debug_info    0x0000000000021923      0x648 0x1 /usr/local/popcorn/aarch64/lib/libc.a(pthread_key_create.o)
 .debug_info    0x0000000000021f6b      0x3ab 0x1 /usr/local/popcorn/aarch64/lib/libc.a(pthread_migrate.o)
 .debug_info    0x0000000000022316      0x3ac 0x1 /usr/local/popcorn/aarch64/lib/libc.a(pthread_self.o)
 .debug_info    0x00000000000226c2      0x3e0 0x1 /usr/local/popcorn/aarch64/lib/libc.a(pthread_setspecific.o)
 .debug_info    0x0000000000022aa2      0x115 0x1 /usr/local/popcorn/aarch64/lib/libc.a(lseek.o)
 .debug_info    0x0000000000022bb7       0x6d 0x1 /usr/local/popcorn/aarch64/lib/libc.a(abort.o)
 .debug_info    0x0000000000022c24      0x197 0x1 /usr/local/popcorn/aarch64/lib/libc.a(raise.o)
 .debug_info    0x0000000000022dbb      0x54c 0x1 /usr/local/popcorn/aarch64/lib/libc.a(__fdopen.o)
 .debug_info    0x0000000000023307       0x7b 0x1 /usr/local/popcorn/aarch64/lib/libc.a(__fmodeflags.o)
 .debug_info    0x0000000000023382      0x413 0x1 /usr/local/popcorn/aarch64/lib/libc.a(__stdio_read.o)
 .debug_info    0x0000000000023795      0x3c1 0x1 /usr/local/popcorn/aarch64/lib/libc.a(getdelim.o)
 .debug_info    0x0000000000023b56      0x315 0x1 /usr/local/popcorn/aarch64/lib/libc.a(ofl_add.o)

.debug_ranges   0x0000000000000000     0x6400
 .debug_ranges  0x0000000000000000      0x120 0x1 tiny_aarch64.o
 .debug_ranges  0x0000000000000120        0x0 0x1 /usr/local/popcorn/aarch64/lib/crt1.o
 .debug_ranges  0x0000000000000120        0x0 0x1 /usr/local/popcorn/aarch64/lib/libc.a(closedir.o)
 .debug_ranges  0x0000000000000120        0x0 0x1 /usr/local/popcorn/aarch64/lib/libc.a(fdopendir.o)
 .debug_ranges  0x0000000000000120       0x40 0x1 /usr/local/popcorn/aarch64/lib/libc.a(readdir.o)
 .debug_ranges  0x0000000000000160       0xc0 0x1 /usr/local/popcorn/aarch64/lib/libc.a(__libc_start_main.o)
 .debug_ranges  0x0000000000000220        0x0 0x1 /usr/local/popcorn/aarch64/lib/libc.a(__errno_location.o)
 .debug_ranges  0x0000000000000220       0x40 0x1 /usr/local/popcorn/aarch64/lib/libc.a(exit.o)
 .debug_ranges  0x0000000000000260       0x70 0x1 /usr/local/popcorn/aarch64/lib/libc.a(fcntl.o)
 .debug_ranges  0x00000000000002d0       0x30 0x1 /usr/local/popcorn/aarch64/lib/libc.a(open.o)
 .debug_ranges  0x0000000000000300       0x30 0x1 /usr/local/popcorn/aarch64/lib/libc.a(openat.o)
 .debug_ranges  0x0000000000000330        0x0 0x1 /usr/local/popcorn/aarch64/lib/libc.a(libc.o)
 .debug_ranges  0x0000000000000330        0x0 0x1 /usr/local/popcorn/aarch64/lib/libc.a(syscall_ret.o)
 .debug_ranges  0x0000000000000330        0x0 0x1 /usr/local/popcorn/aarch64/lib/libc.a(sendfile.o)
 .debug_ranges  0x0000000000000330       0x30 0x1 /usr/local/popcorn/aarch64/lib/libc.a(calloc.o)
 .debug_ranges  0x0000000000000360       0x40 0x1 /usr/local/popcorn/aarch64/lib/libc.a(lite_malloc.o)
 .debug_ranges  0x00000000000003a0     0x1070 0x1 /usr/local/popcorn/aarch64/lib/libc.a(malloc.o)
 .debug_ranges  0x0000000000001410     0x18e0 0x1 /usr/local/popcorn/aarch64/lib/libc.a(popcorn_malloc.o)
 .debug_ranges  0x0000000000002cf0        0x0 0x1 /usr/local/popcorn/aarch64/lib/libc.a(madvise.o)
 .debug_ranges  0x0000000000002cf0       0x60 0x1 /usr/local/popcorn/aarch64/lib/libc.a(mmap.o)
 .debug_ranges  0x0000000000002d50       0x30 0x1 /usr/local/popcorn/aarch64/lib/libc.a(mremap.o)
 .debug_ranges  0x0000000000002d80       0x30 0x1 /usr/local/popcorn/aarch64/lib/libc.a(munmap.o)
 .debug_ranges  0x0000000000002db0        0x0 0x1 /usr/local/popcorn/aarch64/lib/libc.a(accept.o)
 .debug_ranges  0x0000000000002db0        0x0 0x1 /usr/local/popcorn/aarch64/lib/libc.a(bind.o)
 .debug_ranges  0x0000000000002db0        0x0 0x1 /usr/local/popcorn/aarch64/lib/libc.a(htonl.o)
 .debug_ranges  0x0000000000002db0        0x0 0x1 /usr/local/popcorn/aarch64/lib/libc.a(htons.o)
 .debug_ranges  0x0000000000002db0        0x0 0x1 /usr/local/popcorn/aarch64/lib/libc.a(inet_ntoa.o)
 .debug_ranges  0x0000000000002db0       0x30 0x1 /usr/local/popcorn/aarch64/lib/libc.a(listen.o)
 .debug_ranges  0x0000000000002de0        0x0 0x1 /usr/local/popcorn/aarch64/lib/libc.a(ntohs.o)
 .debug_ranges  0x0000000000002de0        0x0 0x1 /usr/local/popcorn/aarch64/lib/libc.a(setsockopt.o)
 .debug_ranges  0x0000000000002de0       0x30 0x1 /usr/local/popcorn/aarch64/lib/libc.a(socket.o)
 .debug_ranges  0x0000000000002e10       0x30 0x1 /usr/local/popcorn/aarch64/lib/libc.a(fork.o)
 .debug_ranges  0x0000000000002e40       0x40 0x1 /usr/local/popcorn/aarch64/lib/libc.a(block.o)
 .debug_ranges  0x0000000000002e80        0x0 0x1 /usr/local/popcorn/aarch64/lib/libc.a(signal.o)
 .debug_ranges  0x0000000000002e80        0x0 0x1 /usr/local/popcorn/aarch64/lib/libc.a(fstat.o)
 .debug_ranges  0x0000000000002e80        0x0 0x1 /usr/local/popcorn/aarch64/lib/libc.a(perror.o)
 .debug_ranges  0x0000000000002e80        0x0 0x1 /usr/local/popcorn/aarch64/lib/libc.a(printf.o)
 .debug_ranges  0x0000000000002e80        0x0 0x1 /usr/local/popcorn/aarch64/lib/libc.a(snprintf.o)
 .debug_ranges  0x0000000000002e80        0x0 0x1 /usr/local/popcorn/aarch64/lib/libc.a(sprintf.o)
 .debug_ranges  0x0000000000002e80        0x0 0x1 /usr/local/popcorn/aarch64/lib/libc.a(sscanf.o)
 .debug_ranges  0x0000000000002e80        0x0 0x1 /usr/local/popcorn/aarch64/lib/libc.a(stderr.o)
 .debug_ranges  0x0000000000002e80        0x0 0x1 /usr/local/popcorn/aarch64/lib/libc.a(stdout.o)
 .debug_ranges  0x0000000000002e80      0xbd0 0x1 /usr/local/popcorn/aarch64/lib/libc.a(vfprintf.o)
 .debug_ranges  0x0000000000003a50       0x30 0x1 /usr/local/popcorn/aarch64/lib/libc.a(vsnprintf.o)
 .debug_ranges  0x0000000000003a80        0x0 0x1 /usr/local/popcorn/aarch64/lib/libc.a(vsprintf.o)
 .debug_ranges  0x0000000000003a80       0x30 0x1 /usr/local/popcorn/aarch64/lib/libc.a(vsscanf.o)
 .debug_ranges  0x0000000000003ab0        0x0 0x1 /usr/local/popcorn/aarch64/lib/libc.a(atoi.o)
 .debug_ranges  0x0000000000003ab0       0x80 0x1 /usr/local/popcorn/aarch64/lib/libc.a(strtol.o)
 .debug_ranges  0x0000000000003b30        0x0 0x1 /usr/local/popcorn/aarch64/lib/libc.a(memcpy.o)
 .debug_ranges  0x0000000000003b30        0x0 0x1 /usr/local/popcorn/aarch64/lib/libc.a(memset.o)
 .debug_ranges  0x0000000000003b30        0x0 0x1 /usr/local/popcorn/aarch64/lib/libc.a(strcmp.o)
 .debug_ranges  0x0000000000003b30        0x0 0x1 /usr/local/popcorn/aarch64/lib/libc.a(strlen.o)
 .debug_ranges  0x0000000000003b30        0x0 0x1 /usr/local/popcorn/aarch64/lib/libc.a(strnlen.o)
 .debug_ranges  0x0000000000003b30        0x0 0x1 /usr/local/popcorn/aarch64/lib/libc.a(strrchr.o)
 .debug_ranges  0x0000000000003b30       0x90 0x1 /usr/local/popcorn/aarch64/lib/libc.a(__lock.o)
 .debug_ranges  0x0000000000003bc0       0x30 0x1 /usr/local/popcorn/aarch64/lib/libc.a(__syscall_cp.o)
 .debug_ranges  0x0000000000003bf0       0x60 0x1 /usr/local/popcorn/aarch64/lib/libc.a(__wait.o)
 .debug_ranges  0x0000000000003c50        0x0 0x1 /usr/local/popcorn/aarch64/lib/libc.a(localtime.o)
 .debug_ranges  0x0000000000003c50        0x0 0x1 /usr/local/popcorn/aarch64/lib/libc.a(localtime_r.o)
 .debug_ranges  0x0000000000003c50       0x50 0x1 /usr/local/popcorn/aarch64/lib/libc.a(strftime.o)
 .debug_ranges  0x0000000000003ca0        0x0 0x1 /usr/local/popcorn/aarch64/lib/libc.a(chdir.o)
 .debug_ranges  0x0000000000003ca0       0x30 0x1 /usr/local/popcorn/aarch64/lib/libc.a(close.o)
 .debug_ranges  0x0000000000003cd0        0x0 0x1 /usr/local/popcorn/aarch64/lib/libc.a(getcwd.o)
 .debug_ranges  0x0000000000003cd0        0x0 0x1 /usr/local/popcorn/aarch64/lib/libc.a(getpid.o)
 .debug_ranges  0x0000000000003cd0        0x0 0x1 /usr/local/popcorn/aarch64/lib/libc.a(read.o)
 .debug_ranges  0x0000000000003cd0        0x0 0x1 /usr/local/popcorn/aarch64/lib/libc.a(write.o)
 .debug_ranges  0x0000000000003cd0        0x0 0x1 /usr/local/popcorn/aarch64/lib/libc.a(__environ.o)
 .debug_ranges  0x0000000000003cd0       0x40 0x1 /usr/local/popcorn/aarch64/lib/libc.a(__init_tls.o)
 .debug_ranges  0x0000000000003d10       0x30 0x1 /usr/local/popcorn/aarch64/lib/libc.a(strerror.o)
 .debug_ranges  0x0000000000003d40        0x0 0x1 /usr/local/popcorn/aarch64/lib/libc.a(_Exit.o)
 .debug_ranges  0x0000000000003d40       0x30 0x1 /usr/local/popcorn/aarch64/lib/libc.a(intscan.o)
 .debug_ranges  0x0000000000003d70        0x0 0x1 /usr/local/popcorn/aarch64/lib/libc.a(procfdname.o)
 .debug_ranges  0x0000000000003d70       0x30 0x1 /usr/local/popcorn/aarch64/lib/libc.a(shgetc.o)
 .debug_ranges  0x0000000000003da0       0x40 0x1 /usr/local/popcorn/aarch64/lib/libc.a(__lctrans.o)
 .debug_ranges  0x0000000000003de0       0x30 0x1 /usr/local/popcorn/aarch64/lib/libc.a(langinfo.o)
 .debug_ranges  0x0000000000003e10      0x1d0 0x1 /usr/local/popcorn/aarch64/lib/libc.a(expand_heap.o)
 .debug_ranges  0x0000000000003fe0        0x0 0x1 /usr/local/popcorn/aarch64/lib/libc.a(__fpclassifyl.o)
 .debug_ranges  0x0000000000003fe0        0x0 0x1 /usr/local/popcorn/aarch64/lib/libc.a(__signbitl.o)
 .debug_ranges  0x0000000000003fe0        0x0 0x1 /usr/local/popcorn/aarch64/lib/libc.a(frexpl.o)
 .debug_ranges  0x0000000000003fe0        0x0 0x1 /usr/local/popcorn/aarch64/lib/libc.a(wctomb.o)
 .debug_ranges  0x0000000000003fe0       0xa0 0x1 /usr/local/popcorn/aarch64/lib/libc.a(sigaction.o)
 .debug_ranges  0x0000000000004080       0x60 0x1 /usr/local/popcorn/aarch64/lib/libc.a(__lockfile.o)
 .debug_ranges  0x00000000000040e0       0x30 0x1 /usr/local/popcorn/aarch64/lib/libc.a(__stdio_close.o)
 .debug_ranges  0x0000000000004110        0x0 0x1 /usr/local/popcorn/aarch64/lib/libc.a(__stdio_seek.o)
 .debug_ranges  0x0000000000004110       0x30 0x1 /usr/local/popcorn/aarch64/lib/libc.a(__stdio_write.o)
 .debug_ranges  0x0000000000004140        0x0 0x1 /usr/local/popcorn/aarch64/lib/libc.a(__stdout_write.o)
 .debug_ranges  0x0000000000004140        0x0 0x1 /usr/local/popcorn/aarch64/lib/libc.a(__string_read.o)
 .debug_ranges  0x0000000000004140        0x0 0x1 /usr/local/popcorn/aarch64/lib/libc.a(__uflow.o)
 .debug_ranges  0x0000000000004140        0x0 0x1 /usr/local/popcorn/aarch64/lib/libc.a(fputc.o)
 .debug_ranges  0x0000000000004140       0x60 0x1 /usr/local/popcorn/aarch64/lib/libc.a(fwrite.o)
 .debug_ranges  0x00000000000041a0       0xb0 0x1 /usr/local/popcorn/aarch64/lib/libc.a(vfscanf.o)
 .debug_ranges  0x0000000000004250        0x0 0x1 /usr/local/popcorn/aarch64/lib/libc.a(abs.o)
 .debug_ranges  0x0000000000004250        0x0 0x1 /usr/local/popcorn/aarch64/lib/libc.a(memchr.o)
 .debug_ranges  0x0000000000004250        0x0 0x1 /usr/local/popcorn/aarch64/lib/libc.a(memrchr.o)
 .debug_ranges  0x0000000000004250        0x0 0x1 /usr/local/popcorn/aarch64/lib/libc.a(strdup.o)
 .debug_ranges  0x0000000000004250        0x0 0x1 /usr/local/popcorn/aarch64/lib/libc.a(__secs_to_tm.o)
 .debug_ranges  0x0000000000004250        0x0 0x1 /usr/local/popcorn/aarch64/lib/libc.a(__tm_to_secs.o)
 .debug_ranges  0x0000000000004250      0x490 0x1 /usr/local/popcorn/aarch64/lib/libc.a(__tz.o)
 .debug_ranges  0x00000000000046e0       0x30 0x1 /usr/local/popcorn/aarch64/lib/libc.a(__year_to_secs.o)
 .debug_ranges  0x0000000000004710       0x30 0x1 /usr/local/popcorn/aarch64/lib/libc.a(getenv.o)
 .debug_ranges  0x0000000000004740      0x5e0 0x1 /usr/local/popcorn/aarch64/lib/libc.a(floatscan.o)
 .debug_ranges  0x0000000000004d20        0x0 0x1 /usr/local/popcorn/aarch64/lib/libc.a(fabs.o)
 .debug_ranges  0x0000000000004d20        0x0 0x1 /usr/local/popcorn/aarch64/lib/libc.a(copysignl.o)
 .debug_ranges  0x0000000000004d20        0x0 0x1 /usr/local/popcorn/aarch64/lib/libc.a(fmodl.o)
 .debug_ranges  0x0000000000004d20        0x0 0x1 /usr/local/popcorn/aarch64/lib/libc.a(scalbn.o)
 .debug_ranges  0x0000000000004d20        0x0 0x1 /usr/local/popcorn/aarch64/lib/libc.a(scalbnl.o)
 .debug_ranges  0x0000000000004d20        0x0 0x1 /usr/local/popcorn/aarch64/lib/libc.a(mbrtowc.o)
 .debug_ranges  0x0000000000004d20        0x0 0x1 /usr/local/popcorn/aarch64/lib/libc.a(mbsinit.o)
 .debug_ranges  0x0000000000004d20        0x0 0x1 /usr/local/popcorn/aarch64/lib/libc.a(wcrtomb.o)
 .debug_ranges  0x0000000000004d20       0x50 0x1 /usr/local/popcorn/aarch64/lib/libc.a(restore.o)
 .debug_ranges  0x0000000000004d70        0x0 0x1 /usr/local/popcorn/aarch64/lib/libc.a(__overflow.o)
 .debug_ranges  0x0000000000004d70       0x30 0x1 /usr/local/popcorn/aarch64/lib/libc.a(__toread.o)
 .debug_ranges  0x0000000000004da0       0x30 0x1 /usr/local/popcorn/aarch64/lib/libc.a(__towrite.o)
 .debug_ranges  0x0000000000004dd0        0x0 0x1 /usr/local/popcorn/aarch64/lib/libc.a(memcmp.o)
 .debug_ranges  0x0000000000004dd0        0x0 0x1 /usr/local/popcorn/aarch64/lib/libc.a(strchr.o)
 .debug_ranges  0x0000000000004dd0        0x0 0x1 /usr/local/popcorn/aarch64/lib/libc.a(strchrnul.o)
 .debug_ranges  0x0000000000004dd0        0x0 0x1 /usr/local/popcorn/aarch64/lib/libc.a(strncmp.o)
 .debug_ranges  0x0000000000004dd0        0x0 0x1 /usr/local/popcorn/aarch64/lib/libc.a(__map_file.o)
 .debug_ranges  0x0000000000004dd0        0x0 0x1 /usr/local/popcorn/aarch64/lib/libc.a(__month_to_secs.o)
 .debug_ranges  0x0000000000004dd0        0x0 0x1 /usr/local/popcorn/aarch64/lib/libc.a(internal.o)
 .debug_ranges  0x0000000000004dd0       0x30 0x1 /usr/local/popcorn/aarch64/lib/libc.a(__stdio_exit.o)
 .debug_ranges  0x0000000000004e00       0x30 0x1 /usr/local/popcorn/aarch64/lib/libc.a(ofl.o)
 .debug_ranges  0x0000000000004e30       0xd0 0x1 /usr/local/popcorn/aarch64/lib/libmigrate.a(migrate.o)
 .debug_ranges  0x0000000000004f00       0xd0 0x1 /usr/local/popcorn/aarch64/lib/libmigrate.a(mapping.o)
 .debug_ranges  0x0000000000004fd0      0x130 0x1 /usr/local/popcorn/aarch64/lib/libstack-transform.a(userspace.o)
 .debug_ranges  0x0000000000005100       0x50 0x1 /usr/local/popcorn/aarch64/lib/libstack-transform.a(init.o)
 .debug_ranges  0x0000000000005150      0x3c0 0x1 /usr/local/popcorn/aarch64/lib/libstack-transform.a(rewrite.o)
 .debug_ranges  0x0000000000005510      0x130 0x1 /usr/local/popcorn/aarch64/lib/libstack-transform.a(unwind.o)
 .debug_ranges  0x0000000000005640       0xf0 0x1 /usr/local/popcorn/aarch64/lib/libstack-transform.a(util.o)
 .debug_ranges  0x0000000000005730       0x40 0x1 /usr/local/popcorn/aarch64/lib/libstack-transform.a(properties.o)
 .debug_ranges  0x0000000000005770      0x120 0x1 /usr/local/popcorn/aarch64/lib/libstack-transform.a(regs.o)
 .debug_ranges  0x0000000000005890       0x40 0x1 /usr/local/popcorn/aarch64/lib/libstack-transform.a(properties.o)
 .debug_ranges  0x00000000000058d0      0x120 0x1 /usr/local/popcorn/aarch64/lib/libstack-transform.a(regs.o)
 .debug_ranges  0x00000000000059f0       0x40 0x1 /usr/local/popcorn/aarch64/lib/libstack-transform.a(properties.o)
 .debug_ranges  0x0000000000005a30      0x120 0x1 /usr/local/popcorn/aarch64/lib/libstack-transform.a(regs.o)
 .debug_ranges  0x0000000000005b50      0x410 0x1 /usr/local/popcorn/aarch64/lib/libstack-transform.a(data.o)
 .debug_ranges  0x0000000000005f60       0x50 0x1 /usr/local/popcorn/aarch64/lib/libc.a(arch_crash.o)
 .debug_ranges  0x0000000000005fb0        0x0 0x1 /usr/local/popcorn/aarch64/lib/libc.a(assert.o)
 .debug_ranges  0x0000000000005fb0        0x0 0x1 /usr/local/popcorn/aarch64/lib/libc.a(getrlimit.o)
 .debug_ranges  0x0000000000005fb0        0x0 0x1 /usr/local/popcorn/aarch64/lib/libc.a(syscall.o)
 .debug_ranges  0x0000000000005fb0       0x30 0x1 /usr/local/popcorn/aarch64/lib/libc.a(fclose.o)
 .debug_ranges  0x0000000000005fe0       0x30 0x1 /usr/local/popcorn/aarch64/lib/libc.a(fflush.o)
 .debug_ranges  0x0000000000006010       0x30 0x1 /usr/local/popcorn/aarch64/lib/libc.a(fopen.o)
 .debug_ranges  0x0000000000006040        0x0 0x1 /usr/local/popcorn/aarch64/lib/libc.a(fprintf.o)
 .debug_ranges  0x0000000000006040        0x0 0x1 /usr/local/popcorn/aarch64/lib/libc.a(fscanf.o)
 .debug_ranges  0x0000000000006040       0x40 0x1 /usr/local/popcorn/aarch64/lib/libc.a(fseek.o)
 .debug_ranges  0x0000000000006080        0x0 0x1 /usr/local/popcorn/aarch64/lib/libc.a(getc.o)
 .debug_ranges  0x0000000000006080        0x0 0x1 /usr/local/popcorn/aarch64/lib/libc.a(getline.o)
 .debug_ranges  0x0000000000006080        0x0 0x1 /usr/local/popcorn/aarch64/lib/libc.a(bsearch.o)
 .debug_ranges  0x0000000000006080      0x180 0x1 /usr/local/popcorn/aarch64/lib/libc.a(qsort.o)
 .debug_ranges  0x0000000000006200      0x110 0x1 /usr/local/popcorn/aarch64/lib/libc.a(pthread_attr_get.o)
 .debug_ranges  0x0000000000006310        0x0 0x1 /usr/local/popcorn/aarch64/lib/libc.a(pthread_getattr_np.o)
 .debug_ranges  0x0000000000006310        0x0 0x1 /usr/local/popcorn/aarch64/lib/libc.a(pthread_getspecific.o)
 .debug_ranges  0x0000000000006310       0x90 0x1 /usr/local/popcorn/aarch64/lib/libc.a(pthread_key_create.o)
 .debug_ranges  0x00000000000063a0        0x0 0x1 /usr/local/popcorn/aarch64/lib/libc.a(pthread_migrate.o)
 .debug_ranges  0x00000000000063a0        0x0 0x1 /usr/local/popcorn/aarch64/lib/libc.a(pthread_self.o)
 .debug_ranges  0x00000000000063a0        0x0 0x1 /usr/local/popcorn/aarch64/lib/libc.a(pthread_setspecific.o)
 .debug_ranges  0x00000000000063a0        0x0 0x1 /usr/local/popcorn/aarch64/lib/libc.a(lseek.o)
 .debug_ranges  0x00000000000063a0        0x0 0x1 /usr/local/popcorn/aarch64/lib/libc.a(abort.o)
 .debug_ranges  0x00000000000063a0        0x0 0x1 /usr/local/popcorn/aarch64/lib/libc.a(raise.o)
 .debug_ranges  0x00000000000063a0       0x30 0x1 /usr/local/popcorn/aarch64/lib/libc.a(__fdopen.o)
 .debug_ranges  0x00000000000063d0        0x0 0x1 /usr/local/popcorn/aarch64/lib/libc.a(__fmodeflags.o)
 .debug_ranges  0x00000000000063d0        0x0 0x1 /usr/local/popcorn/aarch64/lib/libc.a(__stdio_read.o)
 .debug_ranges  0x00000000000063d0       0x30 0x1 /usr/local/popcorn/aarch64/lib/libc.a(getdelim.o)
 .debug_ranges  0x0000000000006400        0x0 0x1 /usr/local/popcorn/aarch64/lib/libc.a(ofl_add.o)

.debug_pubnames
                0x0000000000000000     0x36bf
 .debug_pubnames
                0x0000000000000000      0x151 0x1 tiny_aarch64.o
 .debug_pubnames
                0x0000000000000151       0x1f 0x1 /usr/local/popcorn/aarch64/lib/crt1.o
 .debug_pubnames
                0x0000000000000170       0x1f 0x1 /usr/local/popcorn/aarch64/lib/libc.a(closedir.o)
 .debug_pubnames
                0x000000000000018f       0x20 0x1 /usr/local/popcorn/aarch64/lib/libc.a(fdopendir.o)
 .debug_pubnames
                0x00000000000001af       0x2d 0x1 /usr/local/popcorn/aarch64/lib/libc.a(readdir.o)
 .debug_pubnames
                0x00000000000001dc       0xa4 0x1 /usr/local/popcorn/aarch64/lib/libc.a(__libc_start_main.o)
 .debug_pubnames
                0x0000000000000280       0x3a 0x1 /usr/local/popcorn/aarch64/lib/libc.a(__errno_location.o)
 .debug_pubnames
                0x00000000000002ba       0x38 0x1 /usr/local/popcorn/aarch64/lib/libc.a(exit.o)
 .debug_pubnames
                0x00000000000002f2       0x3a 0x1 /usr/local/popcorn/aarch64/lib/libc.a(fcntl.o)
 .debug_pubnames
                0x000000000000032c       0x2a 0x1 /usr/local/popcorn/aarch64/lib/libc.a(open.o)
 .debug_pubnames
                0x0000000000000356       0x1d 0x1 /usr/local/popcorn/aarch64/lib/libc.a(openat.o)
 .debug_pubnames
                0x0000000000000373       0x5a 0x1 /usr/local/popcorn/aarch64/lib/libc.a(libc.o)
 .debug_pubnames
                0x00000000000003cd       0x24 0x1 /usr/local/popcorn/aarch64/lib/libc.a(syscall_ret.o)
 .debug_pubnames
                0x00000000000003f1       0x2e 0x1 /usr/local/popcorn/aarch64/lib/libc.a(sendfile.o)
 .debug_pubnames
                0x000000000000041f       0x30 0x1 /usr/local/popcorn/aarch64/lib/libc.a(calloc.o)
 .debug_pubnames
                0x000000000000044f       0x3f 0x1 /usr/local/popcorn/aarch64/lib/libc.a(lite_malloc.o)
 .debug_pubnames
                0x000000000000048e      0x1d7 0x1 /usr/local/popcorn/aarch64/lib/libc.a(malloc.o)
 .debug_pubnames
                0x0000000000000665      0x1f7 0x1 /usr/local/popcorn/aarch64/lib/libc.a(popcorn_malloc.o)
 .debug_pubnames
                0x000000000000085c       0x2f 0x1 /usr/local/popcorn/aarch64/lib/libc.a(madvise.o)
 .debug_pubnames
                0x000000000000088b       0x36 0x1 /usr/local/popcorn/aarch64/lib/libc.a(mmap.o)
 .debug_pubnames
                0x00000000000008c1       0x38 0x1 /usr/local/popcorn/aarch64/lib/libc.a(mremap.o)
 .debug_pubnames
                0x00000000000008f9       0x38 0x1 /usr/local/popcorn/aarch64/lib/libc.a(munmap.o)
 .debug_pubnames
                0x0000000000000931       0x1d 0x1 /usr/local/popcorn/aarch64/lib/libc.a(accept.o)
 .debug_pubnames
                0x000000000000094e       0x2a 0x1 /usr/local/popcorn/aarch64/lib/libc.a(bind.o)
 .debug_pubnames
                0x0000000000000978       0x2b 0x1 /usr/local/popcorn/aarch64/lib/libc.a(htonl.o)
 .debug_pubnames
                0x00000000000009a3       0x2b 0x1 /usr/local/popcorn/aarch64/lib/libc.a(htons.o)
 .debug_pubnames
                0x00000000000009ce       0x28 0x1 /usr/local/popcorn/aarch64/lib/libc.a(inet_ntoa.o)
 .debug_pubnames
                0x00000000000009f6       0x2c 0x1 /usr/local/popcorn/aarch64/lib/libc.a(listen.o)
 .debug_pubnames
                0x0000000000000a22       0x2b 0x1 /usr/local/popcorn/aarch64/lib/libc.a(ntohs.o)
 .debug_pubnames
                0x0000000000000a4d       0x30 0x1 /usr/local/popcorn/aarch64/lib/libc.a(setsockopt.o)
 .debug_pubnames
                0x0000000000000a7d       0x3b 0x1 /usr/local/popcorn/aarch64/lib/libc.a(socket.o)
 .debug_pubnames
                0x0000000000000ab8       0x56 0x1 /usr/local/popcorn/aarch64/lib/libc.a(fork.o)
 .debug_pubnames
                0x0000000000000b0e       0x78 0x1 /usr/local/popcorn/aarch64/lib/libc.a(block.o)
 .debug_pubnames
                0x0000000000000b86       0x1d 0x1 /usr/local/popcorn/aarch64/lib/libc.a(signal.o)
 .debug_pubnames
                0x0000000000000ba3       0x3a 0x1 /usr/local/popcorn/aarch64/lib/libc.a(fstat.o)
 .debug_pubnames
                0x0000000000000bdd       0x1d 0x1 /usr/local/popcorn/aarch64/lib/libc.a(perror.o)
 .debug_pubnames
                0x0000000000000bfa       0x1d 0x1 /usr/local/popcorn/aarch64/lib/libc.a(printf.o)
 .debug_pubnames
                0x0000000000000c17       0x1f 0x1 /usr/local/popcorn/aarch64/lib/libc.a(snprintf.o)
 .debug_pubnames
                0x0000000000000c36       0x1e 0x1 /usr/local/popcorn/aarch64/lib/libc.a(sprintf.o)
 .debug_pubnames
                0x0000000000000c54       0x1d 0x1 /usr/local/popcorn/aarch64/lib/libc.a(sscanf.o)
 .debug_pubnames
                0x0000000000000c71       0x3d 0x1 /usr/local/popcorn/aarch64/lib/libc.a(stderr.o)
 .debug_pubnames
                0x0000000000000cae       0x3d 0x1 /usr/local/popcorn/aarch64/lib/libc.a(stdout.o)
 .debug_pubnames
                0x0000000000000ceb       0xb9 0x1 /usr/local/popcorn/aarch64/lib/libc.a(vfprintf.o)
 .debug_pubnames
                0x0000000000000da4       0x2d 0x1 /usr/local/popcorn/aarch64/lib/libc.a(vsnprintf.o)
 .debug_pubnames
                0x0000000000000dd1       0x1f 0x1 /usr/local/popcorn/aarch64/lib/libc.a(vsprintf.o)
 .debug_pubnames
                0x0000000000000df0       0x2a 0x1 /usr/local/popcorn/aarch64/lib/libc.a(vsscanf.o)
 .debug_pubnames
                0x0000000000000e1a       0x29 0x1 /usr/local/popcorn/aarch64/lib/libc.a(atoi.o)
 .debug_pubnames
                0x0000000000000e43       0x69 0x1 /usr/local/popcorn/aarch64/lib/libc.a(strtol.o)
 .debug_pubnames
                0x0000000000000eac       0x1d 0x1 /usr/local/popcorn/aarch64/lib/libc.a(memcpy.o)
 .debug_pubnames
                0x0000000000000ec9       0x1d 0x1 /usr/local/popcorn/aarch64/lib/libc.a(memset.o)
 .debug_pubnames
                0x0000000000000ee6       0x1d 0x1 /usr/local/popcorn/aarch64/lib/libc.a(strcmp.o)
 .debug_pubnames
                0x0000000000000f03       0x1d 0x1 /usr/local/popcorn/aarch64/lib/libc.a(strlen.o)
 .debug_pubnames
                0x0000000000000f20       0x1e 0x1 /usr/local/popcorn/aarch64/lib/libc.a(strnlen.o)
 .debug_pubnames
                0x0000000000000f3e       0x1e 0x1 /usr/local/popcorn/aarch64/lib/libc.a(strrchr.o)
 .debug_pubnames
                0x0000000000000f5c       0x7b 0x1 /usr/local/popcorn/aarch64/lib/libc.a(__lock.o)
 .debug_pubnames
                0x0000000000000fd7       0x2c 0x1 /usr/local/popcorn/aarch64/lib/libc.a(__syscall_cp.o)
 .debug_pubnames
                0x0000000000001003       0x70 0x1 /usr/local/popcorn/aarch64/lib/libc.a(__wait.o)
 .debug_pubnames
                0x0000000000001073       0x27 0x1 /usr/local/popcorn/aarch64/lib/libc.a(localtime.o)
 .debug_pubnames
                0x000000000000109a       0x24 0x1 /usr/local/popcorn/aarch64/lib/libc.a(localtime_r.o)
 .debug_pubnames
                0x00000000000010be       0x71 0x1 /usr/local/popcorn/aarch64/lib/libc.a(strftime.o)
 .debug_pubnames
                0x000000000000112f       0x2b 0x1 /usr/local/popcorn/aarch64/lib/libc.a(chdir.o)
 .debug_pubnames
                0x000000000000115a       0x26 0x1 /usr/local/popcorn/aarch64/lib/libc.a(close.o)
 .debug_pubnames
                0x0000000000001180       0x2c 0x1 /usr/local/popcorn/aarch64/lib/libc.a(getcwd.o)
 .debug_pubnames
                0x00000000000011ac       0x2c 0x1 /usr/local/popcorn/aarch64/lib/libc.a(getpid.o)
 .debug_pubnames
                0x00000000000011d8       0x1b 0x1 /usr/local/popcorn/aarch64/lib/libc.a(read.o)
 .debug_pubnames
                0x00000000000011f3       0x1c 0x1 /usr/local/popcorn/aarch64/lib/libc.a(write.o)
 .debug_pubnames
                0x000000000000120f       0x20 0x1 /usr/local/popcorn/aarch64/lib/libc.a(__environ.o)
 .debug_pubnames
                0x000000000000122f       0x8a 0x1 /usr/local/popcorn/aarch64/lib/libc.a(__init_tls.o)
 .debug_pubnames
                0x00000000000012b9       0x58 0x1 /usr/local/popcorn/aarch64/lib/libc.a(strerror.o)
 .debug_pubnames
                0x0000000000001311       0x2b 0x1 /usr/local/popcorn/aarch64/lib/libc.a(_Exit.o)
 .debug_pubnames
                0x000000000000133c       0x38 0x1 /usr/local/popcorn/aarch64/lib/libc.a(intscan.o)
 .debug_pubnames
                0x0000000000001374       0x23 0x1 /usr/local/popcorn/aarch64/lib/libc.a(procfdname.o)
 .debug_pubnames
                0x0000000000001397       0x2b 0x1 /usr/local/popcorn/aarch64/lib/libc.a(shgetc.o)
 .debug_pubnames
                0x00000000000013c2       0x4f 0x1 /usr/local/popcorn/aarch64/lib/libc.a(__lctrans.o)
 .debug_pubnames
                0x0000000000001411       0x73 0x1 /usr/local/popcorn/aarch64/lib/libc.a(langinfo.o)
 .debug_pubnames
                0x0000000000001484      0x129 0x1 /usr/local/popcorn/aarch64/lib/libc.a(expand_heap.o)
 .debug_pubnames
                0x00000000000015ad       0x24 0x1 /usr/local/popcorn/aarch64/lib/libc.a(__fpclassifyl.o)
 .debug_pubnames
                0x00000000000015d1       0x21 0x1 /usr/local/popcorn/aarch64/lib/libc.a(__signbitl.o)
 .debug_pubnames
                0x00000000000015f2       0x1d 0x1 /usr/local/popcorn/aarch64/lib/libc.a(frexpl.o)
 .debug_pubnames
                0x000000000000160f       0x1d 0x1 /usr/local/popcorn/aarch64/lib/libc.a(wctomb.o)
 .debug_pubnames
                0x000000000000162c       0xbd 0x1 /usr/local/popcorn/aarch64/lib/libc.a(sigaction.o)
 .debug_pubnames
                0x00000000000016e9       0x95 0x1 /usr/local/popcorn/aarch64/lib/libc.a(__lockfile.o)
 .debug_pubnames
                0x000000000000177e       0x3d 0x1 /usr/local/popcorn/aarch64/lib/libc.a(__stdio_close.o)
 .debug_pubnames
                0x00000000000017bb       0x32 0x1 /usr/local/popcorn/aarch64/lib/libc.a(__stdio_seek.o)
 .debug_pubnames
                0x00000000000017ed       0x33 0x1 /usr/local/popcorn/aarch64/lib/libc.a(__stdio_write.o)
 .debug_pubnames
                0x0000000000001820       0x34 0x1 /usr/local/popcorn/aarch64/lib/libc.a(__stdout_write.o)
 .debug_pubnames
                0x0000000000001854       0x24 0x1 /usr/local/popcorn/aarch64/lib/libc.a(__string_read.o)
 .debug_pubnames
                0x0000000000001878       0x1e 0x1 /usr/local/popcorn/aarch64/lib/libc.a(__uflow.o)
 .debug_pubnames
                0x0000000000001896       0x1c 0x1 /usr/local/popcorn/aarch64/lib/libc.a(fputc.o)
 .debug_pubnames
                0x00000000000018b2       0x2b 0x1 /usr/local/popcorn/aarch64/lib/libc.a(fwrite.o)
 .debug_pubnames
                0x00000000000018dd       0x44 0x1 /usr/local/popcorn/aarch64/lib/libc.a(vfscanf.o)
 .debug_pubnames
                0x0000000000001921       0x1a 0x1 /usr/local/popcorn/aarch64/lib/libc.a(abs.o)
 .debug_pubnames
                0x000000000000193b       0x1d 0x1 /usr/local/popcorn/aarch64/lib/libc.a(memchr.o)
 .debug_pubnames
                0x0000000000001958       0x20 0x1 /usr/local/popcorn/aarch64/lib/libc.a(memrchr.o)
 .debug_pubnames
                0x0000000000001978       0x1f 0x1 /usr/local/popcorn/aarch64/lib/libc.a(strdup.o)
 .debug_pubnames
                0x0000000000001997       0x35 0x1 /usr/local/popcorn/aarch64/lib/libc.a(__secs_to_tm.o)
 .debug_pubnames
                0x00000000000019cc       0x23 0x1 /usr/local/popcorn/aarch64/lib/libc.a(__tm_to_secs.o)
 .debug_pubnames
                0x00000000000019ef      0x1c3 0x1 /usr/local/popcorn/aarch64/lib/libc.a(__tz.o)
 .debug_pubnames
                0x0000000000001bb2       0x25 0x1 /usr/local/popcorn/aarch64/lib/libc.a(__year_to_secs.o)
 .debug_pubnames
                0x0000000000001bd7       0x1d 0x1 /usr/local/popcorn/aarch64/lib/libc.a(getenv.o)
 .debug_pubnames
                0x0000000000001bf4       0x66 0x1 /usr/local/popcorn/aarch64/lib/libc.a(floatscan.o)
 .debug_pubnames
                0x0000000000001c5a       0x1b 0x1 /usr/local/popcorn/aarch64/lib/libc.a(fabs.o)
 .debug_pubnames
                0x0000000000001c75       0x20 0x1 /usr/local/popcorn/aarch64/lib/libc.a(copysignl.o)
 .debug_pubnames
                0x0000000000001c95       0x3f 0x1 /usr/local/popcorn/aarch64/lib/libc.a(fmodl.o)
 .debug_pubnames
                0x0000000000001cd4       0x1d 0x1 /usr/local/popcorn/aarch64/lib/libc.a(scalbn.o)
 .debug_pubnames
                0x0000000000001cf1       0x1e 0x1 /usr/local/popcorn/aarch64/lib/libc.a(scalbnl.o)
 .debug_pubnames
                0x0000000000001d0f       0x44 0x1 /usr/local/popcorn/aarch64/lib/libc.a(mbrtowc.o)
 .debug_pubnames
                0x0000000000001d53       0x1e 0x1 /usr/local/popcorn/aarch64/lib/libc.a(mbsinit.o)
 .debug_pubnames
                0x0000000000001d71       0x31 0x1 /usr/local/popcorn/aarch64/lib/libc.a(wcrtomb.o)
 .debug_pubnames
                0x0000000000001da2       0x21 0x1 /usr/local/popcorn/aarch64/lib/libc.a(__overflow.o)
 .debug_pubnames
                0x0000000000001dc3       0x3d 0x1 /usr/local/popcorn/aarch64/lib/libc.a(__toread.o)
 .debug_pubnames
                0x0000000000001e00       0x3f 0x1 /usr/local/popcorn/aarch64/lib/libc.a(__towrite.o)
 .debug_pubnames
                0x0000000000001e3f       0x1d 0x1 /usr/local/popcorn/aarch64/lib/libc.a(memcmp.o)
 .debug_pubnames
                0x0000000000001e5c       0x1d 0x1 /usr/local/popcorn/aarch64/lib/libc.a(strchr.o)
 .debug_pubnames
                0x0000000000001e79       0x22 0x1 /usr/local/popcorn/aarch64/lib/libc.a(strchrnul.o)
 .debug_pubnames
                0x0000000000001e9b       0x1e 0x1 /usr/local/popcorn/aarch64/lib/libc.a(strncmp.o)
 .debug_pubnames
                0x0000000000001eb9       0x4e 0x1 /usr/local/popcorn/aarch64/lib/libc.a(__map_file.o)
 .debug_pubnames
                0x0000000000001f07       0x3d 0x1 /usr/local/popcorn/aarch64/lib/libc.a(__month_to_secs.o)
 .debug_pubnames
                0x0000000000001f44       0x1e 0x1 /usr/local/popcorn/aarch64/lib/libc.a(internal.o)
 .debug_pubnames
                0x0000000000001f62       0x41 0x1 /usr/local/popcorn/aarch64/lib/libc.a(__stdio_exit.o)
 .debug_pubnames
                0x0000000000001fa3       0x4c 0x1 /usr/local/popcorn/aarch64/lib/libc.a(ofl.o)
 .debug_pubnames
                0x0000000000001fef       0xed 0x1 /usr/local/popcorn/aarch64/lib/libmigrate.a(migrate.o)
 .debug_pubnames
                0x00000000000020dc       0xb4 0x1 /usr/local/popcorn/aarch64/lib/libmigrate.a(mapping.o)
 .debug_pubnames
                0x0000000000002190      0x183 0x1 /usr/local/popcorn/aarch64/lib/libstack-transform.a(userspace.o)
 .debug_pubnames
                0x0000000000002313       0x49 0x1 /usr/local/popcorn/aarch64/lib/libstack-transform.a(init.o)
 .debug_pubnames
                0x000000000000235c      0x158 0x1 /usr/local/popcorn/aarch64/lib/libstack-transform.a(rewrite.o)
 .debug_pubnames
                0x00000000000024b4      0x129 0x1 /usr/local/popcorn/aarch64/lib/libstack-transform.a(unwind.o)
 .debug_pubnames
                0x00000000000025dd       0xda 0x1 /usr/local/popcorn/aarch64/lib/libstack-transform.a(util.o)
 .debug_pubnames
                0x00000000000026b7       0xad 0x1 /usr/local/popcorn/aarch64/lib/libstack-transform.a(properties.o)
 .debug_pubnames
                0x0000000000002764      0x189 0x1 /usr/local/popcorn/aarch64/lib/libstack-transform.a(regs.o)
 .debug_pubnames
                0x00000000000028ed       0xb9 0x1 /usr/local/popcorn/aarch64/lib/libstack-transform.a(properties.o)
 .debug_pubnames
                0x00000000000029a6      0x1ad 0x1 /usr/local/popcorn/aarch64/lib/libstack-transform.a(regs.o)
 .debug_pubnames
                0x0000000000002b53       0xa7 0x1 /usr/local/popcorn/aarch64/lib/libstack-transform.a(properties.o)
 .debug_pubnames
                0x0000000000002bfa      0x177 0x1 /usr/local/popcorn/aarch64/lib/libstack-transform.a(regs.o)
 .debug_pubnames
                0x0000000000002d71      0x113 0x1 /usr/local/popcorn/aarch64/lib/libstack-transform.a(data.o)
 .debug_pubnames
                0x0000000000002e84       0x5b 0x1 /usr/local/popcorn/aarch64/lib/libc.a(arch_crash.o)
 .debug_pubnames
                0x0000000000002edf       0x24 0x1 /usr/local/popcorn/aarch64/lib/libc.a(assert.o)
 .debug_pubnames
                0x0000000000002f03       0x3e 0x1 /usr/local/popcorn/aarch64/lib/libc.a(getrlimit.o)
 .debug_pubnames
                0x0000000000002f41       0x2d 0x1 /usr/local/popcorn/aarch64/lib/libc.a(syscall.o)
 .debug_pubnames
                0x0000000000002f6e       0x27 0x1 /usr/local/popcorn/aarch64/lib/libc.a(fclose.o)
 .debug_pubnames
                0x0000000000002f95       0x27 0x1 /usr/local/popcorn/aarch64/lib/libc.a(fflush.o)
 .debug_pubnames
                0x0000000000002fbc       0x49 0x1 /usr/local/popcorn/aarch64/lib/libc.a(fopen.o)
 .debug_pubnames
                0x0000000000003005       0x1e 0x1 /usr/local/popcorn/aarch64/lib/libc.a(fprintf.o)
 .debug_pubnames
                0x0000000000003023       0x1d 0x1 /usr/local/popcorn/aarch64/lib/libc.a(fscanf.o)
 .debug_pubnames
                0x0000000000003040       0x3f 0x1 /usr/local/popcorn/aarch64/lib/libc.a(fseek.o)
 .debug_pubnames
                0x000000000000307f       0x1b 0x1 /usr/local/popcorn/aarch64/lib/libc.a(getc.o)
 .debug_pubnames
                0x000000000000309a       0x1e 0x1 /usr/local/popcorn/aarch64/lib/libc.a(getline.o)
 .debug_pubnames
                0x00000000000030b8       0x1e 0x1 /usr/local/popcorn/aarch64/lib/libc.a(bsearch.o)
 .debug_pubnames
                0x00000000000030d6       0x7c 0x1 /usr/local/popcorn/aarch64/lib/libc.a(qsort.o)
 .debug_pubnames
                0x0000000000003152      0x206 0x1 /usr/local/popcorn/aarch64/lib/libc.a(pthread_attr_get.o)
 .debug_pubnames
                0x0000000000003358       0x29 0x1 /usr/local/popcorn/aarch64/lib/libc.a(pthread_getattr_np.o)
 .debug_pubnames
                0x0000000000003381       0x3f 0x1 /usr/local/popcorn/aarch64/lib/libc.a(pthread_getspecific.o)
 .debug_pubnames
                0x00000000000033c0       0xe5 0x1 /usr/local/popcorn/aarch64/lib/libc.a(pthread_key_create.o)
 .debug_pubnames
                0x00000000000034a5       0x3e 0x1 /usr/local/popcorn/aarch64/lib/libc.a(pthread_migrate.o)
 .debug_pubnames
                0x00000000000034e3       0x41 0x1 /usr/local/popcorn/aarch64/lib/libc.a(pthread_self.o)
 .debug_pubnames
                0x0000000000003524       0x3d 0x1 /usr/local/popcorn/aarch64/lib/libc.a(pthread_setspecific.o)
 .debug_pubnames
                0x0000000000003561       0x2b 0x1 /usr/local/popcorn/aarch64/lib/libc.a(lseek.o)
 .debug_pubnames
                0x000000000000358c       0x28 0x1 /usr/local/popcorn/aarch64/lib/libc.a(abort.o)
 .debug_pubnames
                0x00000000000035b4       0x3a 0x1 /usr/local/popcorn/aarch64/lib/libc.a(raise.o)
 .debug_pubnames
                0x00000000000035ee       0x3d 0x1 /usr/local/popcorn/aarch64/lib/libc.a(__fdopen.o)
 .debug_pubnames
                0x000000000000362b       0x23 0x1 /usr/local/popcorn/aarch64/lib/libc.a(__fmodeflags.o)
 .debug_pubnames
                0x000000000000364e       0x32 0x1 /usr/local/popcorn/aarch64/lib/libc.a(__stdio_read.o)
 .debug_pubnames
                0x0000000000003680       0x1f 0x1 /usr/local/popcorn/aarch64/lib/libc.a(getdelim.o)
 .debug_pubnames
                0x000000000000369f       0x20 0x1 /usr/local/popcorn/aarch64/lib/libc.a(ofl_add.o)

.debug_pubtypes
                0x0000000000000000     0x61fc
 .debug_pubtypes
                0x0000000000000000      0x1ee 0x1 tiny_aarch64.o
 .debug_pubtypes
                0x00000000000001ee       0x30 0x1 /usr/local/popcorn/aarch64/lib/crt1.o
 .debug_pubtypes
                0x000000000000021e       0x52 0x1 /usr/local/popcorn/aarch64/lib/libc.a(closedir.o)
 .debug_pubtypes
                0x0000000000000270       0xf4 0x1 /usr/local/popcorn/aarch64/lib/libc.a(fdopendir.o)
 .debug_pubtypes
                0x0000000000000364       0xa2 0x1 /usr/local/popcorn/aarch64/lib/libc.a(readdir.o)
 .debug_pubtypes
                0x0000000000000406       0x74 0x1 /usr/local/popcorn/aarch64/lib/libc.a(__libc_start_main.o)
 .debug_pubtypes
                0x000000000000047a       0xb5 0x1 /usr/local/popcorn/aarch64/lib/libc.a(__errno_location.o)
 .debug_pubtypes
                0x000000000000052f       0x3e 0x1 /usr/local/popcorn/aarch64/lib/libc.a(exit.o)
 .debug_pubtypes
                0x000000000000056d       0x86 0x1 /usr/local/popcorn/aarch64/lib/libc.a(fcntl.o)
 .debug_pubtypes
                0x00000000000005f3       0x7c 0x1 /usr/local/popcorn/aarch64/lib/libc.a(open.o)
 .debug_pubtypes
                0x000000000000066f       0x7c 0x1 /usr/local/popcorn/aarch64/lib/libc.a(openat.o)
 .debug_pubtypes
                0x00000000000006eb       0x72 0x1 /usr/local/popcorn/aarch64/lib/libc.a(libc.o)
 .debug_pubtypes
                0x000000000000075d       0x35 0x1 /usr/local/popcorn/aarch64/lib/libc.a(syscall_ret.o)
 .debug_pubtypes
                0x0000000000000792       0x5e 0x1 /usr/local/popcorn/aarch64/lib/libc.a(sendfile.o)
 .debug_pubtypes
                0x00000000000007f0       0x3b 0x1 /usr/local/popcorn/aarch64/lib/libc.a(calloc.o)
 .debug_pubtypes
                0x000000000000082b       0x52 0x1 /usr/local/popcorn/aarch64/lib/libc.a(lite_malloc.o)
 .debug_pubtypes
                0x000000000000087d       0xae 0x1 /usr/local/popcorn/aarch64/lib/libc.a(malloc.o)
 .debug_pubtypes
                0x000000000000092b       0xae 0x1 /usr/local/popcorn/aarch64/lib/libc.a(popcorn_malloc.o)
 .debug_pubtypes
                0x00000000000009d9       0x48 0x1 /usr/local/popcorn/aarch64/lib/libc.a(madvise.o)
 .debug_pubtypes
                0x0000000000000a21       0x52 0x1 /usr/local/popcorn/aarch64/lib/libc.a(mmap.o)
 .debug_pubtypes
                0x0000000000000a73       0x78 0x1 /usr/local/popcorn/aarch64/lib/libc.a(mremap.o)
 .debug_pubtypes
                0x0000000000000aeb       0x48 0x1 /usr/local/popcorn/aarch64/lib/libc.a(munmap.o)
 .debug_pubtypes
                0x0000000000000b33       0x7f 0x1 /usr/local/popcorn/aarch64/lib/libc.a(accept.o)
 .debug_pubtypes
                0x0000000000000bb2       0x7f 0x1 /usr/local/popcorn/aarch64/lib/libc.a(bind.o)
 .debug_pubtypes
                0x0000000000000c31       0x41 0x1 /usr/local/popcorn/aarch64/lib/libc.a(htonl.o)
 .debug_pubtypes
                0x0000000000000c72       0x43 0x1 /usr/local/popcorn/aarch64/lib/libc.a(htons.o)
 .debug_pubtypes
                0x0000000000000cb5       0x65 0x1 /usr/local/popcorn/aarch64/lib/libc.a(inet_ntoa.o)
 .debug_pubtypes
                0x0000000000000d1a       0x27 0x1 /usr/local/popcorn/aarch64/lib/libc.a(listen.o)
 .debug_pubtypes
                0x0000000000000d41       0x43 0x1 /usr/local/popcorn/aarch64/lib/libc.a(ntohs.o)
 .debug_pubtypes
                0x0000000000000d84       0x46 0x1 /usr/local/popcorn/aarch64/lib/libc.a(setsockopt.o)
 .debug_pubtypes
                0x0000000000000dca       0x27 0x1 /usr/local/popcorn/aarch64/lib/libc.a(socket.o)
 .debug_pubtypes
                0x0000000000000df1       0xdf 0x1 /usr/local/popcorn/aarch64/lib/libc.a(fork.o)
 .debug_pubtypes
                0x0000000000000ed0       0x35 0x1 /usr/local/popcorn/aarch64/lib/libc.a(block.o)
 .debug_pubtypes
                0x0000000000000f05       0xc4 0x1 /usr/local/popcorn/aarch64/lib/libc.a(signal.o)
 .debug_pubtypes
                0x0000000000000fc9       0xdc 0x1 /usr/local/popcorn/aarch64/lib/libc.a(fstat.o)
 .debug_pubtypes
                0x00000000000010a5       0xc2 0x1 /usr/local/popcorn/aarch64/lib/libc.a(perror.o)
 .debug_pubtypes
                0x0000000000001167       0x53 0x1 /usr/local/popcorn/aarch64/lib/libc.a(printf.o)
 .debug_pubtypes
                0x00000000000011ba       0x74 0x1 /usr/local/popcorn/aarch64/lib/libc.a(snprintf.o)
 .debug_pubtypes
                0x000000000000122e       0x53 0x1 /usr/local/popcorn/aarch64/lib/libc.a(sprintf.o)
 .debug_pubtypes
                0x0000000000001281       0x53 0x1 /usr/local/popcorn/aarch64/lib/libc.a(sscanf.o)
 .debug_pubtypes
                0x00000000000012d4       0xc2 0x1 /usr/local/popcorn/aarch64/lib/libc.a(stderr.o)
 .debug_pubtypes
                0x0000000000001396       0xc2 0x1 /usr/local/popcorn/aarch64/lib/libc.a(stdout.o)
 .debug_pubtypes
                0x0000000000001458      0x1a1 0x1 /usr/local/popcorn/aarch64/lib/libc.a(vfprintf.o)
 .debug_pubtypes
                0x00000000000015f9       0xfd 0x1 /usr/local/popcorn/aarch64/lib/libc.a(vsnprintf.o)
 .debug_pubtypes
                0x00000000000016f6       0x53 0x1 /usr/local/popcorn/aarch64/lib/libc.a(vsprintf.o)
 .debug_pubtypes
                0x0000000000001749       0xf2 0x1 /usr/local/popcorn/aarch64/lib/libc.a(vsscanf.o)
 .debug_pubtypes
                0x000000000000183b       0x34 0x1 /usr/local/popcorn/aarch64/lib/libc.a(atoi.o)
 .debug_pubtypes
                0x000000000000186f      0x10a 0x1 /usr/local/popcorn/aarch64/lib/libc.a(strtol.o)
 .debug_pubtypes
                0x0000000000001979       0x71 0x1 /usr/local/popcorn/aarch64/lib/libc.a(memcpy.o)
 .debug_pubtypes
                0x00000000000019ea       0x86 0x1 /usr/local/popcorn/aarch64/lib/libc.a(memset.o)
 .debug_pubtypes
                0x0000000000001a70       0x35 0x1 /usr/local/popcorn/aarch64/lib/libc.a(strcmp.o)
 .debug_pubtypes
                0x0000000000001aa5       0x4a 0x1 /usr/local/popcorn/aarch64/lib/libc.a(strlen.o)
 .debug_pubtypes
                0x0000000000001aef       0x3c 0x1 /usr/local/popcorn/aarch64/lib/libc.a(strnlen.o)
 .debug_pubtypes
                0x0000000000001b2b       0x23 0x1 /usr/local/popcorn/aarch64/lib/libc.a(strrchr.o)
 .debug_pubtypes
                0x0000000000001b4e       0x27 0x1 /usr/local/popcorn/aarch64/lib/libc.a(__lock.o)
 .debug_pubtypes
                0x0000000000001b75       0x31 0x1 /usr/local/popcorn/aarch64/lib/libc.a(__syscall_cp.o)
 .debug_pubtypes
                0x0000000000001ba6       0x38 0x1 /usr/local/popcorn/aarch64/lib/libc.a(__wait.o)
 .debug_pubtypes
                0x0000000000001bde       0x42 0x1 /usr/local/popcorn/aarch64/lib/libc.a(localtime.o)
 .debug_pubtypes
                0x0000000000001c20       0x54 0x1 /usr/local/popcorn/aarch64/lib/libc.a(localtime_r.o)
 .debug_pubtypes
                0x0000000000001c74       0xeb 0x1 /usr/local/popcorn/aarch64/lib/libc.a(strftime.o)
 .debug_pubtypes
                0x0000000000001d5f       0x30 0x1 /usr/local/popcorn/aarch64/lib/libc.a(chdir.o)
 .debug_pubtypes
                0x0000000000001d8f       0x27 0x1 /usr/local/popcorn/aarch64/lib/libc.a(close.o)
 .debug_pubtypes
                0x0000000000001db6       0x49 0x1 /usr/local/popcorn/aarch64/lib/libc.a(getcwd.o)
 .debug_pubtypes
                0x0000000000001dff       0x31 0x1 /usr/local/popcorn/aarch64/lib/libc.a(getpid.o)
 .debug_pubtypes
                0x0000000000001e30       0x54 0x1 /usr/local/popcorn/aarch64/lib/libc.a(read.o)
 .debug_pubtypes
                0x0000000000001e84       0x54 0x1 /usr/local/popcorn/aarch64/lib/libc.a(write.o)
 .debug_pubtypes
                0x0000000000001ed8       0x1b 0x1 /usr/local/popcorn/aarch64/lib/libc.a(__environ.o)
 .debug_pubtypes
                0x0000000000001ef3      0x161 0x1 /usr/local/popcorn/aarch64/lib/libc.a(__init_tls.o)
 .debug_pubtypes
                0x0000000000002054       0xc6 0x1 /usr/local/popcorn/aarch64/lib/libc.a(strerror.o)
 .debug_pubtypes
                0x000000000000211a       0x27 0x1 /usr/local/popcorn/aarch64/lib/libc.a(_Exit.o)
 .debug_pubtypes
                0x0000000000002141       0xdd 0x1 /usr/local/popcorn/aarch64/lib/libc.a(intscan.o)
 .debug_pubtypes
                0x000000000000221e       0x2c 0x1 /usr/local/popcorn/aarch64/lib/libc.a(procfdname.o)
 .debug_pubtypes
                0x000000000000224a       0xc2 0x1 /usr/local/popcorn/aarch64/lib/libc.a(shgetc.o)
 .debug_pubtypes
                0x000000000000230c       0xc6 0x1 /usr/local/popcorn/aarch64/lib/libc.a(__lctrans.o)
 .debug_pubtypes
                0x00000000000023d2       0xd2 0x1 /usr/local/popcorn/aarch64/lib/libc.a(langinfo.o)
 .debug_pubtypes
                0x00000000000024a4       0x67 0x1 /usr/local/popcorn/aarch64/lib/libc.a(expand_heap.o)
 .debug_pubtypes
                0x000000000000250b       0x97 0x1 /usr/local/popcorn/aarch64/lib/libc.a(__fpclassifyl.o)
 .debug_pubtypes
                0x00000000000025a2       0x97 0x1 /usr/local/popcorn/aarch64/lib/libc.a(__signbitl.o)
 .debug_pubtypes
                0x0000000000002639       0x97 0x1 /usr/local/popcorn/aarch64/lib/libc.a(frexpl.o)
 .debug_pubtypes
                0x00000000000026d0       0x40 0x1 /usr/local/popcorn/aarch64/lib/libc.a(wctomb.o)
 .debug_pubtypes
                0x0000000000002710       0xfc 0x1 /usr/local/popcorn/aarch64/lib/libc.a(sigaction.o)
 .debug_pubtypes
                0x000000000000280c      0x100 0x1 /usr/local/popcorn/aarch64/lib/libc.a(__lockfile.o)
 .debug_pubtypes
                0x000000000000290c       0xc2 0x1 /usr/local/popcorn/aarch64/lib/libc.a(__stdio_close.o)
 .debug_pubtypes
                0x00000000000029ce       0xc2 0x1 /usr/local/popcorn/aarch64/lib/libc.a(__stdio_seek.o)
 .debug_pubtypes
                0x0000000000002a90       0xd8 0x1 /usr/local/popcorn/aarch64/lib/libc.a(__stdio_write.o)
 .debug_pubtypes
                0x0000000000002b68       0xe1 0x1 /usr/local/popcorn/aarch64/lib/libc.a(__stdout_write.o)
 .debug_pubtypes
                0x0000000000002c49       0xc2 0x1 /usr/local/popcorn/aarch64/lib/libc.a(__string_read.o)
 .debug_pubtypes
                0x0000000000002d0b       0xc2 0x1 /usr/local/popcorn/aarch64/lib/libc.a(__uflow.o)
 .debug_pubtypes
                0x0000000000002dcd       0xc2 0x1 /usr/local/popcorn/aarch64/lib/libc.a(fputc.o)
 .debug_pubtypes
                0x0000000000002e8f       0xc2 0x1 /usr/local/popcorn/aarch64/lib/libc.a(fwrite.o)
 .debug_pubtypes
                0x0000000000002f51      0x17c 0x1 /usr/local/popcorn/aarch64/lib/libc.a(vfscanf.o)
 .debug_pubtypes
                0x00000000000030cd       0x1a 0x1 /usr/local/popcorn/aarch64/lib/libc.a(abs.o)
 .debug_pubtypes
                0x00000000000030e7       0x5b 0x1 /usr/local/popcorn/aarch64/lib/libc.a(memchr.o)
 .debug_pubtypes
                0x0000000000003142       0x4d 0x1 /usr/local/popcorn/aarch64/lib/libc.a(memrchr.o)
 .debug_pubtypes
                0x000000000000318f       0x3c 0x1 /usr/local/popcorn/aarch64/lib/libc.a(strdup.o)
 .debug_pubtypes
                0x00000000000031cb       0x49 0x1 /usr/local/popcorn/aarch64/lib/libc.a(__secs_to_tm.o)
 .debug_pubtypes
                0x0000000000003214       0x49 0x1 /usr/local/popcorn/aarch64/lib/libc.a(__tm_to_secs.o)
 .debug_pubtypes
                0x000000000000325d       0xcd 0x1 /usr/local/popcorn/aarch64/lib/libc.a(__tz.o)
 .debug_pubtypes
                0x000000000000332a       0x2c 0x1 /usr/local/popcorn/aarch64/lib/libc.a(__year_to_secs.o)
 .debug_pubtypes
                0x0000000000003356       0x3c 0x1 /usr/local/popcorn/aarch64/lib/libc.a(getenv.o)
 .debug_pubtypes
                0x0000000000003392       0xfe 0x1 /usr/local/popcorn/aarch64/lib/libc.a(floatscan.o)
 .debug_pubtypes
                0x0000000000003490       0x1d 0x1 /usr/local/popcorn/aarch64/lib/libc.a(fabs.o)
 .debug_pubtypes
                0x00000000000034ad       0x8f 0x1 /usr/local/popcorn/aarch64/lib/libc.a(copysignl.o)
 .debug_pubtypes
                0x000000000000353c       0xc7 0x1 /usr/local/popcorn/aarch64/lib/libc.a(fmodl.o)
 .debug_pubtypes
                0x0000000000003603       0x55 0x1 /usr/local/popcorn/aarch64/lib/libc.a(scalbn.o)
 .debug_pubtypes
                0x0000000000003658       0x97 0x1 /usr/local/popcorn/aarch64/lib/libc.a(scalbnl.o)
 .debug_pubtypes
                0x00000000000036ef      0x11d 0x1 /usr/local/popcorn/aarch64/lib/libc.a(mbrtowc.o)
 .debug_pubtypes
                0x000000000000380c       0x49 0x1 /usr/local/popcorn/aarch64/lib/libc.a(mbsinit.o)
 .debug_pubtypes
                0x0000000000003855      0x101 0x1 /usr/local/popcorn/aarch64/lib/libc.a(wcrtomb.o)
 .debug_pubtypes
                0x0000000000003956       0xc2 0x1 /usr/local/popcorn/aarch64/lib/libc.a(__overflow.o)
 .debug_pubtypes
                0x0000000000003a18       0xc2 0x1 /usr/local/popcorn/aarch64/lib/libc.a(__toread.o)
 .debug_pubtypes
                0x0000000000003ada       0xc2 0x1 /usr/local/popcorn/aarch64/lib/libc.a(__towrite.o)
 .debug_pubtypes
                0x0000000000003b9c       0x4d 0x1 /usr/local/popcorn/aarch64/lib/libc.a(memcmp.o)
 .debug_pubtypes
                0x0000000000003be9       0x35 0x1 /usr/local/popcorn/aarch64/lib/libc.a(strchr.o)
 .debug_pubtypes
                0x0000000000003c1e       0x64 0x1 /usr/local/popcorn/aarch64/lib/libc.a(strchrnul.o)
 .debug_pubtypes
                0x0000000000003c82       0x56 0x1 /usr/local/popcorn/aarch64/lib/libc.a(strncmp.o)
 .debug_pubtypes
                0x0000000000003cd8       0xf9 0x1 /usr/local/popcorn/aarch64/lib/libc.a(__map_file.o)
 .debug_pubtypes
                0x0000000000003dd1       0x1a 0x1 /usr/local/popcorn/aarch64/lib/libc.a(__month_to_secs.o)
 .debug_pubtypes
                0x0000000000003deb       0x30 0x1 /usr/local/popcorn/aarch64/lib/libc.a(internal.o)
 .debug_pubtypes
                0x0000000000003e1b       0xc2 0x1 /usr/local/popcorn/aarch64/lib/libc.a(__stdio_exit.o)
 .debug_pubtypes
                0x0000000000003edd       0xc2 0x1 /usr/local/popcorn/aarch64/lib/libc.a(ofl.o)
 .debug_pubtypes
                0x0000000000003f9f       0x7d 0x1 /usr/local/popcorn/aarch64/lib/libmigrate.a(migrate.o)
 .debug_pubtypes
                0x000000000000401c       0x67 0x1 /usr/local/popcorn/aarch64/lib/libmigrate.a(mapping.o)
 .debug_pubtypes
                0x0000000000004083      0x21e 0x1 /usr/local/popcorn/aarch64/lib/libstack-transform.a(userspace.o)
 .debug_pubtypes
                0x00000000000042a1      0x1ef 0x1 /usr/local/popcorn/aarch64/lib/libstack-transform.a(init.o)
 .debug_pubtypes
                0x0000000000004490      0x20c 0x1 /usr/local/popcorn/aarch64/lib/libstack-transform.a(rewrite.o)
 .debug_pubtypes
                0x000000000000469c      0x20c 0x1 /usr/local/popcorn/aarch64/lib/libstack-transform.a(unwind.o)
 .debug_pubtypes
                0x00000000000048a8      0x22e 0x1 /usr/local/popcorn/aarch64/lib/libstack-transform.a(util.o)
 .debug_pubtypes
                0x0000000000004ad6       0x8f 0x1 /usr/local/popcorn/aarch64/lib/libstack-transform.a(properties.o)
 .debug_pubtypes
                0x0000000000004b65       0xd7 0x1 /usr/local/popcorn/aarch64/lib/libstack-transform.a(regs.o)
 .debug_pubtypes
                0x0000000000004c3c       0x8f 0x1 /usr/local/popcorn/aarch64/lib/libstack-transform.a(properties.o)
 .debug_pubtypes
                0x0000000000004ccb       0xc5 0x1 /usr/local/popcorn/aarch64/lib/libstack-transform.a(regs.o)
 .debug_pubtypes
                0x0000000000004d90       0x8f 0x1 /usr/local/popcorn/aarch64/lib/libstack-transform.a(properties.o)
 .debug_pubtypes
                0x0000000000004e1f      0x103 0x1 /usr/local/popcorn/aarch64/lib/libstack-transform.a(regs.o)
 .debug_pubtypes
                0x0000000000004f22      0x22c 0x1 /usr/local/popcorn/aarch64/lib/libstack-transform.a(data.o)
 .debug_pubtypes
                0x000000000000514e       0x29 0x1 /usr/local/popcorn/aarch64/lib/libc.a(arch_crash.o)
 .debug_pubtypes
                0x0000000000005177       0x23 0x1 /usr/local/popcorn/aarch64/lib/libc.a(assert.o)
 .debug_pubtypes
                0x000000000000519a       0x6e 0x1 /usr/local/popcorn/aarch64/lib/libc.a(getrlimit.o)
 .debug_pubtypes
                0x0000000000005208       0x69 0x1 /usr/local/popcorn/aarch64/lib/libc.a(syscall.o)
 .debug_pubtypes
                0x0000000000005271       0xc2 0x1 /usr/local/popcorn/aarch64/lib/libc.a(fclose.o)
 .debug_pubtypes
                0x0000000000005333       0xc2 0x1 /usr/local/popcorn/aarch64/lib/libc.a(fflush.o)
 .debug_pubtypes
                0x00000000000053f5       0xc2 0x1 /usr/local/popcorn/aarch64/lib/libc.a(fopen.o)
 .debug_pubtypes
                0x00000000000054b7       0x5c 0x1 /usr/local/popcorn/aarch64/lib/libc.a(fprintf.o)
 .debug_pubtypes
                0x0000000000005513       0x5c 0x1 /usr/local/popcorn/aarch64/lib/libc.a(fscanf.o)
 .debug_pubtypes
                0x000000000000556f       0xc2 0x1 /usr/local/popcorn/aarch64/lib/libc.a(fseek.o)
 .debug_pubtypes
                0x0000000000005631       0xc2 0x1 /usr/local/popcorn/aarch64/lib/libc.a(getc.o)
 .debug_pubtypes
                0x00000000000056f3       0x5e 0x1 /usr/local/popcorn/aarch64/lib/libc.a(getline.o)
 .debug_pubtypes
                0x0000000000005751       0x44 0x1 /usr/local/popcorn/aarch64/lib/libc.a(bsearch.o)
 .debug_pubtypes
                0x0000000000005795       0x6e 0x1 /usr/local/popcorn/aarch64/lib/libc.a(qsort.o)
 .debug_pubtypes
                0x0000000000005803      0x104 0x1 /usr/local/popcorn/aarch64/lib/libc.a(pthread_attr_get.o)
 .debug_pubtypes
                0x0000000000005907       0xd6 0x1 /usr/local/popcorn/aarch64/lib/libc.a(pthread_getattr_np.o)
 .debug_pubtypes
                0x00000000000059dd       0xd8 0x1 /usr/local/popcorn/aarch64/lib/libc.a(pthread_getspecific.o)
 .debug_pubtypes
                0x0000000000005ab5       0xe6 0x1 /usr/local/popcorn/aarch64/lib/libc.a(pthread_key_create.o)
 .debug_pubtypes
                0x0000000000005b9b       0xb5 0x1 /usr/local/popcorn/aarch64/lib/libc.a(pthread_migrate.o)
 .debug_pubtypes
                0x0000000000005c50       0xc3 0x1 /usr/local/popcorn/aarch64/lib/libc.a(pthread_self.o)
 .debug_pubtypes
                0x0000000000005d13       0xd8 0x1 /usr/local/popcorn/aarch64/lib/libc.a(pthread_setspecific.o)
 .debug_pubtypes
                0x0000000000005deb       0x31 0x1 /usr/local/popcorn/aarch64/lib/libc.a(lseek.o)
 .debug_pubtypes
                0x0000000000005e1c       0x1b 0x1 /usr/local/popcorn/aarch64/lib/libc.a(abort.o)
 .debug_pubtypes
                0x0000000000005e37       0x59 0x1 /usr/local/popcorn/aarch64/lib/libc.a(raise.o)
 .debug_pubtypes
                0x0000000000005e90       0xe1 0x1 /usr/local/popcorn/aarch64/lib/libc.a(__fdopen.o)
 .debug_pubtypes
                0x0000000000005f71       0x23 0x1 /usr/local/popcorn/aarch64/lib/libc.a(__fmodeflags.o)
 .debug_pubtypes
                0x0000000000005f94       0xd8 0x1 /usr/local/popcorn/aarch64/lib/libc.a(__stdio_read.o)
 .debug_pubtypes
                0x000000000000606c       0xce 0x1 /usr/local/popcorn/aarch64/lib/libc.a(getdelim.o)
 .debug_pubtypes
                0x000000000000613a       0xc2 0x1 /usr/local/popcorn/aarch64/lib/libc.a(ofl_add.o)

.comment        0x0000000000000000       0x35
 ** merge strings
                0x0000000000000000       0x35

.stack_transform.unwind
                0x0000000000000000      0x260
 .stack_transform.unwind
                0x0000000000000000      0x188 0x4 tiny_aarch64.o
 .stack_transform.unwind
                0x0000000000000188       0x18 0x4 /usr/local/popcorn/aarch64/lib/libc.a(__libc_start_main.o)
 .stack_transform.unwind
                0x00000000000001a0       0x88 0x4 /usr/local/popcorn/aarch64/lib/libmigrate.a(migrate.o)
 .stack_transform.unwind
                0x0000000000000228       0x38 0x4 /usr/local/popcorn/aarch64/lib/libmigrate.a(mapping.o)

.stack_transform.unwind_arange
                0x0000000000000000      0x1c0
 .stack_transform.unwind_arange
                0x0000000000000000      0x110 0x8 tiny_aarch64.o
 .stack_transform.unwind_arange
                0x0000000000000110       0x10 0x8 /usr/local/popcorn/aarch64/lib/libc.a(__libc_start_main.o)
 .stack_transform.unwind_arange
                0x0000000000000120       0x70 0x8 /usr/local/popcorn/aarch64/lib/libmigrate.a(migrate.o)
 .stack_transform.unwind_arange
                0x0000000000000190       0x30 0x8 /usr/local/popcorn/aarch64/lib/libmigrate.a(mapping.o)

.debug_line     0x0000000000000000    0x11eb8
 .debug_line    0x0000000000000000      0xc14 0x1 tiny_aarch64.o
 .debug_line    0x0000000000000c14       0x4b 0x1 /usr/local/popcorn/aarch64/lib/crt1.o
 .debug_line    0x0000000000000c5f       0x9a 0x1 /usr/local/popcorn/aarch64/lib/libc.a(closedir.o)
 .debug_line    0x0000000000000cf9       0xd2 0x1 /usr/local/popcorn/aarch64/lib/libc.a(fdopendir.o)
 .debug_line    0x0000000000000dcb       0xff 0x1 /usr/local/popcorn/aarch64/lib/libc.a(readdir.o)
 .debug_line    0x0000000000000eca      0x275 0x1 /usr/local/popcorn/aarch64/lib/libc.a(__libc_start_main.o)
 .debug_line    0x000000000000113f       0xdf 0x1 /usr/local/popcorn/aarch64/lib/libc.a(__errno_location.o)
 .debug_line    0x000000000000121e       0xaa 0x1 /usr/local/popcorn/aarch64/lib/libc.a(exit.o)
 .debug_line    0x00000000000012c8      0x1d0 0x1 /usr/local/popcorn/aarch64/lib/libc.a(fcntl.o)
 .debug_line    0x0000000000001498       0xd9 0x1 /usr/local/popcorn/aarch64/lib/libc.a(open.o)
 .debug_line    0x0000000000001571       0x9f 0x1 /usr/local/popcorn/aarch64/lib/libc.a(openat.o)
 .debug_line    0x0000000000001610       0x6c 0x1 /usr/local/popcorn/aarch64/lib/libc.a(libc.o)
 .debug_line    0x000000000000167c       0x61 0x1 /usr/local/popcorn/aarch64/lib/libc.a(syscall_ret.o)
 .debug_line    0x00000000000016dd       0xa0 0x1 /usr/local/popcorn/aarch64/lib/libc.a(sendfile.o)
 .debug_line    0x000000000000177d       0xbf 0x1 /usr/local/popcorn/aarch64/lib/libc.a(calloc.o)
 .debug_line    0x000000000000183c       0xed 0x1 /usr/local/popcorn/aarch64/lib/libc.a(lite_malloc.o)
 .debug_line    0x0000000000001929      0xfa7 0x1 /usr/local/popcorn/aarch64/lib/libc.a(malloc.o)
 .debug_line    0x00000000000028d0     0x1268 0x1 /usr/local/popcorn/aarch64/lib/libc.a(popcorn_malloc.o)
 .debug_line    0x0000000000003b38       0xa5 0x1 /usr/local/popcorn/aarch64/lib/libc.a(madvise.o)
 .debug_line    0x0000000000003bdd       0xf0 0x1 /usr/local/popcorn/aarch64/lib/libc.a(mmap.o)
 .debug_line    0x0000000000003ccd       0xff 0x1 /usr/local/popcorn/aarch64/lib/libc.a(mremap.o)
 .debug_line    0x0000000000003dcc       0xb8 0x1 /usr/local/popcorn/aarch64/lib/libc.a(munmap.o)
 .debug_line    0x0000000000003e84       0x8c 0x1 /usr/local/popcorn/aarch64/lib/libc.a(accept.o)
 .debug_line    0x0000000000003f10       0xc2 0x1 /usr/local/popcorn/aarch64/lib/libc.a(bind.o)
 .debug_line    0x0000000000003fd2       0x8b 0x1 /usr/local/popcorn/aarch64/lib/libc.a(htonl.o)
 .debug_line    0x000000000000405d       0x8f 0x1 /usr/local/popcorn/aarch64/lib/libc.a(htons.o)
 .debug_line    0x00000000000040ec       0x93 0x1 /usr/local/popcorn/aarch64/lib/libc.a(inet_ntoa.o)
 .debug_line    0x000000000000417f       0xa0 0x1 /usr/local/popcorn/aarch64/lib/libc.a(listen.o)
 .debug_line    0x000000000000421f       0x8f 0x1 /usr/local/popcorn/aarch64/lib/libc.a(ntohs.o)
 .debug_line    0x00000000000042ae       0xad 0x1 /usr/local/popcorn/aarch64/lib/libc.a(setsockopt.o)
 .debug_line    0x000000000000435b       0xff 0x1 /usr/local/popcorn/aarch64/lib/libc.a(socket.o)
 .debug_line    0x000000000000445a      0x13f 0x1 /usr/local/popcorn/aarch64/lib/libc.a(fork.o)
 .debug_line    0x0000000000004599       0xd1 0x1 /usr/local/popcorn/aarch64/lib/libc.a(block.o)
 .debug_line    0x000000000000466a       0x96 0x1 /usr/local/popcorn/aarch64/lib/libc.a(signal.o)
 .debug_line    0x0000000000004700       0xf0 0x1 /usr/local/popcorn/aarch64/lib/libc.a(fstat.o)
 .debug_line    0x00000000000047f0       0xd1 0x1 /usr/local/popcorn/aarch64/lib/libc.a(perror.o)
 .debug_line    0x00000000000048c1       0x82 0x1 /usr/local/popcorn/aarch64/lib/libc.a(printf.o)
 .debug_line    0x0000000000004943       0x77 0x1 /usr/local/popcorn/aarch64/lib/libc.a(snprintf.o)
 .debug_line    0x00000000000049ba       0x76 0x1 /usr/local/popcorn/aarch64/lib/libc.a(sprintf.o)
 .debug_line    0x0000000000004a30       0x75 0x1 /usr/local/popcorn/aarch64/lib/libc.a(sscanf.o)
 .debug_line    0x0000000000004aa5       0x7b 0x1 /usr/local/popcorn/aarch64/lib/libc.a(stderr.o)
 .debug_line    0x0000000000004b20       0x7b 0x1 /usr/local/popcorn/aarch64/lib/libc.a(stdout.o)
 .debug_line    0x0000000000004b9b     0x1326 0x1 /usr/local/popcorn/aarch64/lib/libc.a(vfprintf.o)
 .debug_line    0x0000000000005ec1      0x12f 0x1 /usr/local/popcorn/aarch64/lib/libc.a(vsnprintf.o)
 .debug_line    0x0000000000005ff0       0x72 0x1 /usr/local/popcorn/aarch64/lib/libc.a(vsprintf.o)
 .debug_line    0x0000000000006062       0xbb 0x1 /usr/local/popcorn/aarch64/lib/libc.a(vsscanf.o)
 .debug_line    0x000000000000611d       0xab 0x1 /usr/local/popcorn/aarch64/lib/libc.a(atoi.o)
 .debug_line    0x00000000000061c8      0x16a 0x1 /usr/local/popcorn/aarch64/lib/libc.a(strtol.o)
 .debug_line    0x0000000000006332      0x2ba 0x1 /usr/local/popcorn/aarch64/lib/libc.a(memcpy.o)
 .debug_line    0x00000000000065ec      0x110 0x1 /usr/local/popcorn/aarch64/lib/libc.a(memset.o)
 .debug_line    0x00000000000066fc       0x5b 0x1 /usr/local/popcorn/aarch64/lib/libc.a(strcmp.o)
 .debug_line    0x0000000000006757       0x9e 0x1 /usr/local/popcorn/aarch64/lib/libc.a(strlen.o)
 .debug_line    0x00000000000067f5       0x77 0x1 /usr/local/popcorn/aarch64/lib/libc.a(strnlen.o)
 .debug_line    0x000000000000686c       0x55 0x1 /usr/local/popcorn/aarch64/lib/libc.a(strrchr.o)
 .debug_line    0x00000000000068c1      0x134 0x1 /usr/local/popcorn/aarch64/lib/libc.a(__lock.o)
 .debug_line    0x00000000000069f5       0x84 0x1 /usr/local/popcorn/aarch64/lib/libc.a(__syscall_cp.o)
 .debug_line    0x0000000000006a79      0x125 0x1 /usr/local/popcorn/aarch64/lib/libc.a(__wait.o)
 .debug_line    0x0000000000006b9e       0x7f 0x1 /usr/local/popcorn/aarch64/lib/libc.a(localtime.o)
 .debug_line    0x0000000000006c1d       0xad 0x1 /usr/local/popcorn/aarch64/lib/libc.a(localtime_r.o)
 .debug_line    0x0000000000006cca      0x4bd 0x1 /usr/local/popcorn/aarch64/lib/libc.a(strftime.o)
 .debug_line    0x0000000000007187       0x83 0x1 /usr/local/popcorn/aarch64/lib/libc.a(chdir.o)
 .debug_line    0x000000000000720a       0x70 0x1 /usr/local/popcorn/aarch64/lib/libc.a(close.o)
 .debug_line    0x000000000000727a       0xb5 0x1 /usr/local/popcorn/aarch64/lib/libc.a(getcwd.o)
 .debug_line    0x000000000000732f       0x9a 0x1 /usr/local/popcorn/aarch64/lib/libc.a(getpid.o)
 .debug_line    0x00000000000073c9       0x69 0x1 /usr/local/popcorn/aarch64/lib/libc.a(read.o)
 .debug_line    0x0000000000007432       0x6a 0x1 /usr/local/popcorn/aarch64/lib/libc.a(write.o)
 .debug_line    0x000000000000749c       0x34 0x1 /usr/local/popcorn/aarch64/lib/libc.a(__environ.o)
 .debug_line    0x00000000000074d0      0x269 0x1 /usr/local/popcorn/aarch64/lib/libc.a(__init_tls.o)
 .debug_line    0x0000000000007739      0x128 0x1 /usr/local/popcorn/aarch64/lib/libc.a(strerror.o)
 .debug_line    0x0000000000007861       0x7c 0x1 /usr/local/popcorn/aarch64/lib/libc.a(_Exit.o)
 .debug_line    0x00000000000078dd       0x44 0x1 /usr/local/popcorn/aarch64/lib/libc.a(syscall.o)
 .debug_line    0x0000000000007921      0x371 0x1 /usr/local/popcorn/aarch64/lib/libc.a(intscan.o)
 .debug_line    0x0000000000007c92       0xa3 0x1 /usr/local/popcorn/aarch64/lib/libc.a(procfdname.o)
 .debug_line    0x0000000000007d35      0x110 0x1 /usr/local/popcorn/aarch64/lib/libc.a(shgetc.o)
 .debug_line    0x0000000000007e45      0x11c 0x1 /usr/local/popcorn/aarch64/lib/libc.a(__lctrans.o)
 .debug_line    0x0000000000007f61      0x17f 0x1 /usr/local/popcorn/aarch64/lib/libc.a(langinfo.o)
 .debug_line    0x00000000000080e0      0x3df 0x1 /usr/local/popcorn/aarch64/lib/libc.a(expand_heap.o)
 .debug_line    0x00000000000084bf       0xaa 0x1 /usr/local/popcorn/aarch64/lib/libc.a(__fpclassifyl.o)
 .debug_line    0x0000000000008569       0x87 0x1 /usr/local/popcorn/aarch64/lib/libc.a(__signbitl.o)
 .debug_line    0x00000000000085f0       0xba 0x1 /usr/local/popcorn/aarch64/lib/libc.a(frexpl.o)
 .debug_line    0x00000000000086aa       0x71 0x1 /usr/local/popcorn/aarch64/lib/libc.a(wctomb.o)
 .debug_line    0x000000000000871b      0x244 0x1 /usr/local/popcorn/aarch64/lib/libc.a(sigaction.o)
 .debug_line    0x000000000000895f      0x1a5 0x1 /usr/local/popcorn/aarch64/lib/libc.a(__lockfile.o)
 .debug_line    0x0000000000008b04       0xec 0x1 /usr/local/popcorn/aarch64/lib/libc.a(__stdio_close.o)
 .debug_line    0x0000000000008bf0       0xcd 0x1 /usr/local/popcorn/aarch64/lib/libc.a(__stdio_seek.o)
 .debug_line    0x0000000000008cbd      0x171 0x1 /usr/local/popcorn/aarch64/lib/libc.a(__stdio_write.o)
 .debug_line    0x0000000000008e2e       0xff 0x1 /usr/local/popcorn/aarch64/lib/libc.a(__stdout_write.o)
 .debug_line    0x0000000000008f2d       0xba 0x1 /usr/local/popcorn/aarch64/lib/libc.a(__string_read.o)
 .debug_line    0x0000000000008fe7       0xae 0x1 /usr/local/popcorn/aarch64/lib/libc.a(__uflow.o)
 .debug_line    0x0000000000009095       0xcf 0x1 /usr/local/popcorn/aarch64/lib/libc.a(fputc.o)
 .debug_line    0x0000000000009164      0x12c 0x1 /usr/local/popcorn/aarch64/lib/libc.a(fwrite.o)
 .debug_line    0x0000000000009290      0x61a 0x1 /usr/local/popcorn/aarch64/lib/libc.a(vfscanf.o)
 .debug_line    0x00000000000098aa       0x4a 0x1 /usr/local/popcorn/aarch64/lib/libc.a(abs.o)
 .debug_line    0x00000000000098f4       0xe7 0x1 /usr/local/popcorn/aarch64/lib/libc.a(memchr.o)
 .debug_line    0x00000000000099db       0x7a 0x1 /usr/local/popcorn/aarch64/lib/libc.a(memrchr.o)
 .debug_line    0x0000000000009a55       0x7a 0x1 /usr/local/popcorn/aarch64/lib/libc.a(strdup.o)
 .debug_line    0x0000000000009acf       0x47 0x1 /usr/local/popcorn/aarch64/lib/libc.a(__set_thread_area.o)
 .debug_line    0x0000000000009b16      0x1dd 0x1 /usr/local/popcorn/aarch64/lib/libc.a(__secs_to_tm.o)
 .debug_line    0x0000000000009cf3       0xa9 0x1 /usr/local/popcorn/aarch64/lib/libc.a(__tm_to_secs.o)
 .debug_line    0x0000000000009d9c      0xad1 0x1 /usr/local/popcorn/aarch64/lib/libc.a(__tz.o)
 .debug_line    0x000000000000a86d       0xf5 0x1 /usr/local/popcorn/aarch64/lib/libc.a(__year_to_secs.o)
 .debug_line    0x000000000000a962       0x89 0x1 /usr/local/popcorn/aarch64/lib/libc.a(getenv.o)
 .debug_line    0x000000000000a9eb      0xd49 0x1 /usr/local/popcorn/aarch64/lib/libc.a(floatscan.o)
 .debug_line    0x000000000000b734       0x4e 0x1 /usr/local/popcorn/aarch64/lib/libc.a(fabs.o)
 .debug_line    0x000000000000b782       0x95 0x1 /usr/local/popcorn/aarch64/lib/libc.a(copysignl.o)
 .debug_line    0x000000000000b817      0x175 0x1 /usr/local/popcorn/aarch64/lib/libc.a(fmodl.o)
 .debug_line    0x000000000000b98c       0xac 0x1 /usr/local/popcorn/aarch64/lib/libc.a(scalbn.o)
 .debug_line    0x000000000000ba38       0xc1 0x1 /usr/local/popcorn/aarch64/lib/libc.a(scalbnl.o)
 .debug_line    0x000000000000baf9      0x185 0x1 /usr/local/popcorn/aarch64/lib/libc.a(mbrtowc.o)
 .debug_line    0x000000000000bc7e       0x73 0x1 /usr/local/popcorn/aarch64/lib/libc.a(mbsinit.o)
 .debug_line    0x000000000000bcf1      0x14b 0x1 /usr/local/popcorn/aarch64/lib/libc.a(wcrtomb.o)
 .debug_line    0x000000000000be3c       0x50 0x1 /usr/local/popcorn/aarch64/lib/libc.a(restore.o)
 .debug_line    0x000000000000be8c       0xd3 0x1 /usr/local/popcorn/aarch64/lib/libc.a(__overflow.o)
 .debug_line    0x000000000000bf5f       0xe4 0x1 /usr/local/popcorn/aarch64/lib/libc.a(__toread.o)
 .debug_line    0x000000000000c043       0xd6 0x1 /usr/local/popcorn/aarch64/lib/libc.a(__towrite.o)
 .debug_line    0x000000000000c119       0x8c 0x1 /usr/local/popcorn/aarch64/lib/libc.a(memcmp.o)
 .debug_line    0x000000000000c1a5       0x53 0x1 /usr/local/popcorn/aarch64/lib/libc.a(strchr.o)
 .debug_line    0x000000000000c1f8       0xb0 0x1 /usr/local/popcorn/aarch64/lib/libc.a(strchrnul.o)
 .debug_line    0x000000000000c2a8       0x8d 0x1 /usr/local/popcorn/aarch64/lib/libc.a(strncmp.o)
 .debug_line    0x000000000000c335       0xfb 0x1 /usr/local/popcorn/aarch64/lib/libc.a(__map_file.o)
 .debug_line    0x000000000000c430       0x71 0x1 /usr/local/popcorn/aarch64/lib/libc.a(__month_to_secs.o)
 .debug_line    0x000000000000c4a1       0x58 0x1 /usr/local/popcorn/aarch64/lib/libc.a(internal.o)
 .debug_line    0x000000000000c4f9       0xfc 0x1 /usr/local/popcorn/aarch64/lib/libc.a(__stdio_exit.o)
 .debug_line    0x000000000000c5f5       0xaa 0x1 /usr/local/popcorn/aarch64/lib/libc.a(ofl.o)
 .debug_line    0x000000000000c69f      0x336 0x1 /usr/local/popcorn/aarch64/lib/libmigrate.a(migrate.o)
 .debug_line    0x000000000000c9d5      0x337 0x1 /usr/local/popcorn/aarch64/lib/libmigrate.a(mapping.o)
 .debug_line    0x000000000000cd0c      0x450 0x1 /usr/local/popcorn/aarch64/lib/libstack-transform.a(userspace.o)
 .debug_line    0x000000000000d15c      0x2bc 0x1 /usr/local/popcorn/aarch64/lib/libstack-transform.a(init.o)
 .debug_line    0x000000000000d418      0x9bf 0x1 /usr/local/popcorn/aarch64/lib/libstack-transform.a(rewrite.o)
 .debug_line    0x000000000000ddd7      0x4fa 0x1 /usr/local/popcorn/aarch64/lib/libstack-transform.a(unwind.o)
 .debug_line    0x000000000000e2d1      0x3f8 0x1 /usr/local/popcorn/aarch64/lib/libstack-transform.a(util.o)
 .debug_line    0x000000000000e6c9       0xf8 0x1 /usr/local/popcorn/aarch64/lib/libstack-transform.a(properties.o)
 .debug_line    0x000000000000e7c1      0x546 0x1 /usr/local/popcorn/aarch64/lib/libstack-transform.a(regs.o)
 .debug_line    0x000000000000ed07       0xfe 0x1 /usr/local/popcorn/aarch64/lib/libstack-transform.a(properties.o)
 .debug_line    0x000000000000ee05      0x559 0x1 /usr/local/popcorn/aarch64/lib/libstack-transform.a(regs.o)
 .debug_line    0x000000000000f35e       0xf6 0x1 /usr/local/popcorn/aarch64/lib/libstack-transform.a(properties.o)
 .debug_line    0x000000000000f454      0x3fb 0x1 /usr/local/popcorn/aarch64/lib/libstack-transform.a(regs.o)
 .debug_line    0x000000000000f84f      0x75f 0x1 /usr/local/popcorn/aarch64/lib/libstack-transform.a(data.o)
 .debug_line    0x000000000000ffae       0x9d 0x1 /usr/local/popcorn/aarch64/lib/libc.a(arch_crash.o)
 .debug_line    0x000000000001004b       0x52 0x1 /usr/local/popcorn/aarch64/lib/libc.a(assert.o)
 .debug_line    0x000000000001009d      0x124 0x1 /usr/local/popcorn/aarch64/lib/libc.a(getrlimit.o)
 .debug_line    0x00000000000101c1      0x180 0x1 /usr/local/popcorn/aarch64/lib/libc.a(syscall.o)
 .debug_line    0x0000000000010341      0x107 0x1 /usr/local/popcorn/aarch64/lib/libc.a(fclose.o)
 .debug_line    0x0000000000010448      0x146 0x1 /usr/local/popcorn/aarch64/lib/libc.a(fflush.o)
 .debug_line    0x000000000001058e      0x125 0x1 /usr/local/popcorn/aarch64/lib/libc.a(fopen.o)
 .debug_line    0x00000000000106b3       0x76 0x1 /usr/local/popcorn/aarch64/lib/libc.a(fprintf.o)
 .debug_line    0x0000000000010729       0x75 0x1 /usr/local/popcorn/aarch64/lib/libc.a(fscanf.o)
 .debug_line    0x000000000001079e      0x120 0x1 /usr/local/popcorn/aarch64/lib/libc.a(fseek.o)
 .debug_line    0x00000000000108be       0xc2 0x1 /usr/local/popcorn/aarch64/lib/libc.a(getc.o)
 .debug_line    0x0000000000010980       0x68 0x1 /usr/local/popcorn/aarch64/lib/libc.a(getline.o)
 .debug_line    0x00000000000109e8       0x83 0x1 /usr/local/popcorn/aarch64/lib/libc.a(bsearch.o)
 .debug_line    0x0000000000010a6b      0x3ca 0x1 /usr/local/popcorn/aarch64/lib/libc.a(qsort.o)
 .debug_line    0x0000000000010e35      0x277 0x1 /usr/local/popcorn/aarch64/lib/libc.a(pthread_attr_get.o)
 .debug_line    0x00000000000110ac      0x127 0x1 /usr/local/popcorn/aarch64/lib/libc.a(pthread_getattr_np.o)
 .debug_line    0x00000000000111d3       0xe6 0x1 /usr/local/popcorn/aarch64/lib/libc.a(pthread_getspecific.o)
 .debug_line    0x00000000000112b9      0x1c2 0x1 /usr/local/popcorn/aarch64/lib/libc.a(pthread_key_create.o)
 .debug_line    0x000000000001147b       0xdf 0x1 /usr/local/popcorn/aarch64/lib/libc.a(pthread_migrate.o)
 .debug_line    0x000000000001155a       0xd6 0x1 /usr/local/popcorn/aarch64/lib/libc.a(pthread_self.o)
 .debug_line    0x0000000000011630       0xee 0x1 /usr/local/popcorn/aarch64/lib/libc.a(pthread_setspecific.o)
 .debug_line    0x000000000001171e       0x9e 0x1 /usr/local/popcorn/aarch64/lib/libc.a(lseek.o)
 .debug_line    0x00000000000117bc       0x74 0x1 /usr/local/popcorn/aarch64/lib/libc.a(abort.o)
 .debug_line    0x0000000000011830       0xb6 0x1 /usr/local/popcorn/aarch64/lib/libc.a(raise.o)
 .debug_line    0x00000000000118e6      0x1a2 0x1 /usr/local/popcorn/aarch64/lib/libc.a(__fdopen.o)
 .debug_line    0x0000000000011a88       0xb3 0x1 /usr/local/popcorn/aarch64/lib/libc.a(__fmodeflags.o)
 .debug_line    0x0000000000011b3b      0x139 0x1 /usr/local/popcorn/aarch64/lib/libc.a(__stdio_read.o)
 .debug_line    0x0000000000011c74      0x199 0x1 /usr/local/popcorn/aarch64/lib/libc.a(getdelim.o)
 .debug_line    0x0000000000011e0d       0xab 0x1 /usr/local/popcorn/aarch64/lib/libc.a(ofl_add.o)

.debug_frame    0x0000000000000000     0x3ca8
 .debug_frame   0x0000000000000000       0x38 0x8 /usr/local/popcorn/aarch64/lib/crt1.o
 .debug_frame   0x0000000000000038       0x40 0x8 /usr/local/popcorn/aarch64/lib/libc.a(closedir.o)
 .debug_frame   0x0000000000000078       0x40 0x8 /usr/local/popcorn/aarch64/lib/libc.a(fdopendir.o)
 .debug_frame   0x00000000000000b8       0x40 0x8 /usr/local/popcorn/aarch64/lib/libc.a(readdir.o)
 .debug_frame   0x00000000000000f8       0xc0 0x8 /usr/local/popcorn/aarch64/lib/libc.a(__libc_start_main.o)
 .debug_frame   0x00000000000001b8       0x30 0x8 /usr/local/popcorn/aarch64/lib/libc.a(__errno_location.o)
 .debug_frame   0x00000000000001e8       0x80 0x8 /usr/local/popcorn/aarch64/lib/libc.a(exit.o)
 .debug_frame   0x0000000000000268       0x38 0x8 /usr/local/popcorn/aarch64/lib/libc.a(fcntl.o)
 .debug_frame   0x00000000000002a0       0x40 0x8 /usr/local/popcorn/aarch64/lib/libc.a(open.o)
 .debug_frame   0x00000000000002e0       0x38 0x8 /usr/local/popcorn/aarch64/lib/libc.a(openat.o)
 .debug_frame   0x0000000000000318       0x40 0x8 /usr/local/popcorn/aarch64/lib/libc.a(syscall_ret.o)
 .debug_frame   0x0000000000000358       0x30 0x8 /usr/local/popcorn/aarch64/lib/libc.a(sendfile.o)
 .debug_frame   0x0000000000000388       0x58 0x8 /usr/local/popcorn/aarch64/lib/libc.a(calloc.o)
 .debug_frame   0x00000000000003e0       0x40 0x8 /usr/local/popcorn/aarch64/lib/libc.a(lite_malloc.o)
 .debug_frame   0x0000000000000420      0x170 0x8 /usr/local/popcorn/aarch64/lib/libc.a(malloc.o)
 .debug_frame   0x0000000000000590       0xe8 0x8 /usr/local/popcorn/aarch64/lib/libc.a(popcorn_malloc.o)
 .debug_frame   0x0000000000000678       0x38 0x8 /usr/local/popcorn/aarch64/lib/libc.a(madvise.o)
 .debug_frame   0x00000000000006b0       0x60 0x8 /usr/local/popcorn/aarch64/lib/libc.a(mmap.o)
 .debug_frame   0x0000000000000710       0x60 0x8 /usr/local/popcorn/aarch64/lib/libc.a(mremap.o)
 .debug_frame   0x0000000000000770       0x58 0x8 /usr/local/popcorn/aarch64/lib/libc.a(munmap.o)
 .debug_frame   0x00000000000007c8       0x38 0x8 /usr/local/popcorn/aarch64/lib/libc.a(accept.o)
 .debug_frame   0x0000000000000800       0x38 0x8 /usr/local/popcorn/aarch64/lib/libc.a(bind.o)
 .debug_frame   0x0000000000000838       0x30 0x8 /usr/local/popcorn/aarch64/lib/libc.a(htonl.o)
 .debug_frame   0x0000000000000868       0x30 0x8 /usr/local/popcorn/aarch64/lib/libc.a(htons.o)
 .debug_frame   0x0000000000000898       0x40 0x8 /usr/local/popcorn/aarch64/lib/libc.a(inet_ntoa.o)
 .debug_frame   0x00000000000008d8       0x38 0x8 /usr/local/popcorn/aarch64/lib/libc.a(listen.o)
 .debug_frame   0x0000000000000910       0x30 0x8 /usr/local/popcorn/aarch64/lib/libc.a(ntohs.o)
 .debug_frame   0x0000000000000940       0x38 0x8 /usr/local/popcorn/aarch64/lib/libc.a(setsockopt.o)
 .debug_frame   0x0000000000000978       0x40 0x8 /usr/local/popcorn/aarch64/lib/libc.a(socket.o)
 .debug_frame   0x00000000000009b8       0x58 0x8 /usr/local/popcorn/aarch64/lib/libc.a(fork.o)
 .debug_frame   0x0000000000000a10       0x60 0x8 /usr/local/popcorn/aarch64/lib/libc.a(block.o)
 .debug_frame   0x0000000000000a70       0x40 0x8 /usr/local/popcorn/aarch64/lib/libc.a(signal.o)
 .debug_frame   0x0000000000000ab0       0x40 0x8 /usr/local/popcorn/aarch64/lib/libc.a(fstat.o)
 .debug_frame   0x0000000000000af0       0x40 0x8 /usr/local/popcorn/aarch64/lib/libc.a(perror.o)
 .debug_frame   0x0000000000000b30       0x40 0x8 /usr/local/popcorn/aarch64/lib/libc.a(printf.o)
 .debug_frame   0x0000000000000b70       0x40 0x8 /usr/local/popcorn/aarch64/lib/libc.a(snprintf.o)
 .debug_frame   0x0000000000000bb0       0x40 0x8 /usr/local/popcorn/aarch64/lib/libc.a(sprintf.o)
 .debug_frame   0x0000000000000bf0       0x40 0x8 /usr/local/popcorn/aarch64/lib/libc.a(sscanf.o)
 .debug_frame   0x0000000000000c30       0xf0 0x8 /usr/local/popcorn/aarch64/lib/libc.a(vfprintf.o)
 .debug_frame   0x0000000000000d20       0x78 0x8 /usr/local/popcorn/aarch64/lib/libc.a(vsnprintf.o)
 .debug_frame   0x0000000000000d98       0x38 0x8 /usr/local/popcorn/aarch64/lib/libc.a(vsprintf.o)
 .debug_frame   0x0000000000000dd0       0x58 0x8 /usr/local/popcorn/aarch64/lib/libc.a(vsscanf.o)
 .debug_frame   0x0000000000000e28       0x30 0x8 /usr/local/popcorn/aarch64/lib/libc.a(atoi.o)
 .debug_frame   0x0000000000000e58       0xd8 0x8 /usr/local/popcorn/aarch64/lib/libc.a(strtol.o)
 .debug_frame   0x0000000000000f30       0x30 0x8 /usr/local/popcorn/aarch64/lib/libc.a(memcpy.o)
 .debug_frame   0x0000000000000f60       0x30 0x8 /usr/local/popcorn/aarch64/lib/libc.a(memset.o)
 .debug_frame   0x0000000000000f90       0x30 0x8 /usr/local/popcorn/aarch64/lib/libc.a(strcmp.o)
 .debug_frame   0x0000000000000fc0       0x30 0x8 /usr/local/popcorn/aarch64/lib/libc.a(strlen.o)
 .debug_frame   0x0000000000000ff0       0x40 0x8 /usr/local/popcorn/aarch64/lib/libc.a(strnlen.o)
 .debug_frame   0x0000000000001030       0x40 0x8 /usr/local/popcorn/aarch64/lib/libc.a(strrchr.o)
 .debug_frame   0x0000000000001070       0x58 0x8 /usr/local/popcorn/aarch64/lib/libc.a(__lock.o)
 .debug_frame   0x00000000000010c8       0x48 0x8 /usr/local/popcorn/aarch64/lib/libc.a(__syscall_cp.o)
 .debug_frame   0x0000000000001110       0x30 0x8 /usr/local/popcorn/aarch64/lib/libc.a(__wait.o)
 .debug_frame   0x0000000000001140       0x30 0x8 /usr/local/popcorn/aarch64/lib/libc.a(localtime.o)
 .debug_frame   0x0000000000001170       0x40 0x8 /usr/local/popcorn/aarch64/lib/libc.a(localtime_r.o)
 .debug_frame   0x00000000000011b0       0xb0 0x8 /usr/local/popcorn/aarch64/lib/libc.a(strftime.o)
 .debug_frame   0x0000000000001260       0x38 0x8 /usr/local/popcorn/aarch64/lib/libc.a(chdir.o)
 .debug_frame   0x0000000000001298       0x50 0x8 /usr/local/popcorn/aarch64/lib/libc.a(close.o)
 .debug_frame   0x00000000000012e8       0x40 0x8 /usr/local/popcorn/aarch64/lib/libc.a(getcwd.o)
 .debug_frame   0x0000000000001328       0x30 0x8 /usr/local/popcorn/aarch64/lib/libc.a(getpid.o)
 .debug_frame   0x0000000000001358       0x38 0x8 /usr/local/popcorn/aarch64/lib/libc.a(read.o)
 .debug_frame   0x0000000000001390       0x38 0x8 /usr/local/popcorn/aarch64/lib/libc.a(write.o)
 .debug_frame   0x00000000000013c8       0x90 0x8 /usr/local/popcorn/aarch64/lib/libc.a(__init_tls.o)
 .debug_frame   0x0000000000001458       0x48 0x8 /usr/local/popcorn/aarch64/lib/libc.a(strerror.o)
 .debug_frame   0x00000000000014a0       0x30 0x8 /usr/local/popcorn/aarch64/lib/libc.a(_Exit.o)
 .debug_frame   0x00000000000014d0       0x50 0x8 /usr/local/popcorn/aarch64/lib/libc.a(intscan.o)
 .debug_frame   0x0000000000001520       0x30 0x8 /usr/local/popcorn/aarch64/lib/libc.a(procfdname.o)
 .debug_frame   0x0000000000001550       0x58 0x8 /usr/local/popcorn/aarch64/lib/libc.a(shgetc.o)
 .debug_frame   0x00000000000015a8       0x60 0x8 /usr/local/popcorn/aarch64/lib/libc.a(__lctrans.o)
 .debug_frame   0x0000000000001608       0x50 0x8 /usr/local/popcorn/aarch64/lib/libc.a(langinfo.o)
 .debug_frame   0x0000000000001658       0xa0 0x8 /usr/local/popcorn/aarch64/lib/libc.a(expand_heap.o)
 .debug_frame   0x00000000000016f8       0x38 0x8 /usr/local/popcorn/aarch64/lib/libc.a(__fpclassifyl.o)
 .debug_frame   0x0000000000001730       0x38 0x8 /usr/local/popcorn/aarch64/lib/libc.a(__signbitl.o)
 .debug_frame   0x0000000000001768       0x40 0x8 /usr/local/popcorn/aarch64/lib/libc.a(frexpl.o)
 .debug_frame   0x00000000000017a8       0x38 0x8 /usr/local/popcorn/aarch64/lib/libc.a(wctomb.o)
 .debug_frame   0x00000000000017e0       0x78 0x8 /usr/local/popcorn/aarch64/lib/libc.a(sigaction.o)
 .debug_frame   0x0000000000001858       0x58 0x8 /usr/local/popcorn/aarch64/lib/libc.a(__lockfile.o)
 .debug_frame   0x00000000000018b0       0x50 0x8 /usr/local/popcorn/aarch64/lib/libc.a(__stdio_close.o)
 .debug_frame   0x0000000000001900       0x30 0x8 /usr/local/popcorn/aarch64/lib/libc.a(__stdio_seek.o)
 .debug_frame   0x0000000000001930       0x48 0x8 /usr/local/popcorn/aarch64/lib/libc.a(__stdio_write.o)
 .debug_frame   0x0000000000001978       0x38 0x8 /usr/local/popcorn/aarch64/lib/libc.a(__stdout_write.o)
 .debug_frame   0x00000000000019b0       0x48 0x8 /usr/local/popcorn/aarch64/lib/libc.a(__string_read.o)
 .debug_frame   0x00000000000019f8       0x40 0x8 /usr/local/popcorn/aarch64/lib/libc.a(__uflow.o)
 .debug_frame   0x0000000000001a38       0x40 0x8 /usr/local/popcorn/aarch64/lib/libc.a(fputc.o)
 .debug_frame   0x0000000000001a78       0x78 0x8 /usr/local/popcorn/aarch64/lib/libc.a(fwrite.o)
 .debug_frame   0x0000000000001af0       0x50 0x8 /usr/local/popcorn/aarch64/lib/libc.a(vfscanf.o)
 .debug_frame   0x0000000000001b40       0x30 0x8 /usr/local/popcorn/aarch64/lib/libc.a(abs.o)
 .debug_frame   0x0000000000001b70       0x30 0x8 /usr/local/popcorn/aarch64/lib/libc.a(memchr.o)
 .debug_frame   0x0000000000001ba0       0x30 0x8 /usr/local/popcorn/aarch64/lib/libc.a(memrchr.o)
 .debug_frame   0x0000000000001bd0       0x40 0x8 /usr/local/popcorn/aarch64/lib/libc.a(strdup.o)
 .debug_frame   0x0000000000001c10       0x30 0x8 /usr/local/popcorn/aarch64/lib/libc.a(__secs_to_tm.o)
 .debug_frame   0x0000000000001c40       0x40 0x8 /usr/local/popcorn/aarch64/lib/libc.a(__tm_to_secs.o)
 .debug_frame   0x0000000000001c80      0x150 0x8 /usr/local/popcorn/aarch64/lib/libc.a(__tz.o)
 .debug_frame   0x0000000000001dd0       0x38 0x8 /usr/local/popcorn/aarch64/lib/libc.a(__year_to_secs.o)
 .debug_frame   0x0000000000001e08       0x40 0x8 /usr/local/popcorn/aarch64/lib/libc.a(getenv.o)
 .debug_frame   0x0000000000001e48       0x88 0x8 /usr/local/popcorn/aarch64/lib/libc.a(floatscan.o)
 .debug_frame   0x0000000000001ed0       0x30 0x8 /usr/local/popcorn/aarch64/lib/libc.a(fabs.o)
 .debug_frame   0x0000000000001f00       0x38 0x8 /usr/local/popcorn/aarch64/lib/libc.a(copysignl.o)
 .debug_frame   0x0000000000001f38       0x48 0x8 /usr/local/popcorn/aarch64/lib/libc.a(fmodl.o)
 .debug_frame   0x0000000000001f80       0x30 0x8 /usr/local/popcorn/aarch64/lib/libc.a(scalbn.o)
 .debug_frame   0x0000000000001fb0       0x40 0x8 /usr/local/popcorn/aarch64/lib/libc.a(scalbnl.o)
 .debug_frame   0x0000000000001ff0       0x38 0x8 /usr/local/popcorn/aarch64/lib/libc.a(mbrtowc.o)
 .debug_frame   0x0000000000002028       0x30 0x8 /usr/local/popcorn/aarch64/lib/libc.a(mbsinit.o)
 .debug_frame   0x0000000000002058       0x38 0x8 /usr/local/popcorn/aarch64/lib/libc.a(wcrtomb.o)
 .debug_frame   0x0000000000002090       0x40 0x8 /usr/local/popcorn/aarch64/lib/libc.a(__overflow.o)
 .debug_frame   0x00000000000020d0       0x58 0x8 /usr/local/popcorn/aarch64/lib/libc.a(__toread.o)
 .debug_frame   0x0000000000002128       0x48 0x8 /usr/local/popcorn/aarch64/lib/libc.a(__towrite.o)
 .debug_frame   0x0000000000002170       0x30 0x8 /usr/local/popcorn/aarch64/lib/libc.a(memcmp.o)
 .debug_frame   0x00000000000021a0       0x40 0x8 /usr/local/popcorn/aarch64/lib/libc.a(strchr.o)
 .debug_frame   0x00000000000021e0       0x40 0x8 /usr/local/popcorn/aarch64/lib/libc.a(strchrnul.o)
 .debug_frame   0x0000000000002220       0x30 0x8 /usr/local/popcorn/aarch64/lib/libc.a(strncmp.o)
 .debug_frame   0x0000000000002250       0x40 0x8 /usr/local/popcorn/aarch64/lib/libc.a(__map_file.o)
 .debug_frame   0x0000000000002290       0x30 0x8 /usr/local/popcorn/aarch64/lib/libc.a(__month_to_secs.o)
 .debug_frame   0x00000000000022c0       0x68 0x8 /usr/local/popcorn/aarch64/lib/libc.a(__stdio_exit.o)
 .debug_frame   0x0000000000002328       0x50 0x8 /usr/local/popcorn/aarch64/lib/libc.a(ofl.o)
 .debug_frame   0x0000000000002378      0x150 0x8 /usr/local/popcorn/aarch64/lib/libmigrate.a(migrate.o)
 .debug_frame   0x00000000000024c8       0xd8 0x8 /usr/local/popcorn/aarch64/lib/libmigrate.a(mapping.o)
 .debug_frame   0x00000000000025a0       0xc8 0x8 /usr/local/popcorn/aarch64/lib/libstack-transform.a(userspace.o)
 .debug_frame   0x0000000000002668       0x98 0x8 /usr/local/popcorn/aarch64/lib/libstack-transform.a(init.o)
 .debug_frame   0x0000000000002700       0xe0 0x8 /usr/local/popcorn/aarch64/lib/libstack-transform.a(rewrite.o)
 .debug_frame   0x00000000000027e0      0x150 0x8 /usr/local/popcorn/aarch64/lib/libstack-transform.a(unwind.o)
 .debug_frame   0x0000000000002930      0x130 0x8 /usr/local/popcorn/aarch64/lib/libstack-transform.a(util.o)
 .debug_frame   0x0000000000002a60       0x68 0x8 /usr/local/popcorn/aarch64/lib/libstack-transform.a(properties.o)
 .debug_frame   0x0000000000002ac8      0x1e0 0x8 /usr/local/popcorn/aarch64/lib/libstack-transform.a(regs.o)
 .debug_frame   0x0000000000002ca8       0x68 0x8 /usr/local/popcorn/aarch64/lib/libstack-transform.a(properties.o)
 .debug_frame   0x0000000000002d10      0x1e0 0x8 /usr/local/popcorn/aarch64/lib/libstack-transform.a(regs.o)
 .debug_frame   0x0000000000002ef0       0x68 0x8 /usr/local/popcorn/aarch64/lib/libstack-transform.a(properties.o)
 .debug_frame   0x0000000000002f58      0x1f0 0x8 /usr/local/popcorn/aarch64/lib/libstack-transform.a(regs.o)
 .debug_frame   0x0000000000003148      0x178 0x8 /usr/local/popcorn/aarch64/lib/libstack-transform.a(data.o)
 .debug_frame   0x00000000000032c0       0x78 0x8 /usr/local/popcorn/aarch64/lib/libc.a(arch_crash.o)
 .debug_frame   0x0000000000003338       0x38 0x8 /usr/local/popcorn/aarch64/lib/libc.a(assert.o)
 .debug_frame   0x0000000000003370       0x40 0x8 /usr/local/popcorn/aarch64/lib/libc.a(getrlimit.o)
 .debug_frame   0x00000000000033b0       0x38 0x8 /usr/local/popcorn/aarch64/lib/libc.a(syscall.o)
 .debug_frame   0x00000000000033e8       0x58 0x8 /usr/local/popcorn/aarch64/lib/libc.a(fclose.o)
 .debug_frame   0x0000000000003440       0x40 0x8 /usr/local/popcorn/aarch64/lib/libc.a(fflush.o)
 .debug_frame   0x0000000000003480       0x40 0x8 /usr/local/popcorn/aarch64/lib/libc.a(fopen.o)
 .debug_frame   0x00000000000034c0       0x40 0x8 /usr/local/popcorn/aarch64/lib/libc.a(fprintf.o)
 .debug_frame   0x0000000000003500       0x40 0x8 /usr/local/popcorn/aarch64/lib/libc.a(fscanf.o)
 .debug_frame   0x0000000000003540       0x88 0x8 /usr/local/popcorn/aarch64/lib/libc.a(fseek.o)
 .debug_frame   0x00000000000035c8       0x40 0x8 /usr/local/popcorn/aarch64/lib/libc.a(getc.o)
 .debug_frame   0x0000000000003608       0x30 0x8 /usr/local/popcorn/aarch64/lib/libc.a(getline.o)
 .debug_frame   0x0000000000003638       0x48 0x8 /usr/local/popcorn/aarch64/lib/libc.a(bsearch.o)
 .debug_frame   0x0000000000003680       0xf8 0x8 /usr/local/popcorn/aarch64/lib/libc.a(qsort.o)
 .debug_frame   0x0000000000003778      0x198 0x8 /usr/local/popcorn/aarch64/lib/libc.a(pthread_attr_get.o)
 .debug_frame   0x0000000000003910       0x40 0x8 /usr/local/popcorn/aarch64/lib/libc.a(pthread_getattr_np.o)
 .debug_frame   0x0000000000003950       0x30 0x8 /usr/local/popcorn/aarch64/lib/libc.a(pthread_getspecific.o)
 .debug_frame   0x0000000000003980       0x90 0x8 /usr/local/popcorn/aarch64/lib/libc.a(pthread_key_create.o)
 .debug_frame   0x0000000000003a10       0x30 0x8 /usr/local/popcorn/aarch64/lib/libc.a(pthread_migrate.o)
 .debug_frame   0x0000000000003a40       0x30 0x8 /usr/local/popcorn/aarch64/lib/libc.a(pthread_self.o)
 .debug_frame   0x0000000000003a70       0x30 0x8 /usr/local/popcorn/aarch64/lib/libc.a(pthread_setspecific.o)
 .debug_frame   0x0000000000003aa0       0x30 0x8 /usr/local/popcorn/aarch64/lib/libc.a(lseek.o)
 .debug_frame   0x0000000000003ad0       0x40 0x8 /usr/local/popcorn/aarch64/lib/libc.a(abort.o)
 .debug_frame   0x0000000000003b10       0x40 0x8 /usr/local/popcorn/aarch64/lib/libc.a(raise.o)
 .debug_frame   0x0000000000003b50       0x40 0x8 /usr/local/popcorn/aarch64/lib/libc.a(__fdopen.o)
 .debug_frame   0x0000000000003b90       0x40 0x8 /usr/local/popcorn/aarch64/lib/libc.a(__fmodeflags.o)
 .debug_frame   0x0000000000003bd0       0x48 0x8 /usr/local/popcorn/aarch64/lib/libc.a(__stdio_read.o)
 .debug_frame   0x0000000000003c18       0x50 0x8 /usr/local/popcorn/aarch64/lib/libc.a(getdelim.o)
 .debug_frame   0x0000000000003c68       0x40 0x8 /usr/local/popcorn/aarch64/lib/libc.a(ofl_add.o)

.debug_aranges  0x0000000000000000       0xa0
 .debug_aranges
                0x0000000000000000       0x30 0x1 /usr/local/popcorn/aarch64/lib/libc.a(syscall.o)
 .debug_aranges
                0x0000000000000030       0x30 0x1 /usr/local/popcorn/aarch64/lib/libc.a(__set_thread_area.o)
 .debug_aranges
                0x0000000000000060       0x40 0x1 /usr/local/popcorn/aarch64/lib/libc.a(restore.o)

.note.gnu.gold-version
                0x0000000000000000       0x1c
 ** note header
                0x0000000000000000       0x10
 ** fill        0x0000000000000010        0x9
 ** zero fill   0x0000000000000019        0x3

.symtab         0x0000000000000000    0x15258
 ** symtab      0x0000000000000000    0x15258

.strtab         0x0000000000000000     0x4db2
 ** string table
                0x0000000000000000     0x4db2

.shstrtab       0x0000000000000000      0x176
 ** string table
                0x0000000000000000      0x176
